
test.axf:     file format elf32-bigmips


Disassembly of section .text:

10000000 <.text>:
10000000:	27bdffd8 	addiu	sp,sp,-40
10000004:	afb10014 	sw	s1,20(sp)
10000008:	3c111000 	lui	s1,0x1000
1000000c:	2624038c 	addiu	a0,s1,908
10000010:	3c111000 	lui	s1,0x1000
10000014:	afbf0024 	sw	ra,36(sp)
10000018:	afb40020 	sw	s4,32(sp)
1000001c:	afb3001c 	sw	s3,28(sp)
10000020:	afb20018 	sw	s2,24(sp)
10000024:	0c0000b2 	jal	0x100002c8
10000028:	afb00010 	sw	s0,16(sp)
1000002c:	3c101000 	lui	s0,0x1000
10000030:	0c0000b2 	jal	0x100002c8
10000034:	262403a4 	addiu	a0,s1,932
10000038:	0c0000b2 	jal	0x100002c8
1000003c:	260403a8 	addiu	a0,s0,936
10000040:	3c121000 	lui	s2,0x1000
10000044:	3c043000 	lui	a0,0x3000
10000048:	0c0000c3 	jal	0x1000030c
1000004c:	3c103000 	lui	s0,0x3000
10000050:	0c0000b2 	jal	0x100002c8
10000054:	264403b8 	addiu	a0,s2,952
10000058:	8e040000 	lw	a0,0(s0)
1000005c:	0c0000c3 	jal	0x1000030c
10000060:	3c141000 	lui	s4,0x1000
10000064:	0c0000b2 	jal	0x100002c8
10000068:	262403a4 	addiu	a0,s1,932
1000006c:	0c0000b2 	jal	0x100002c8
10000070:	268403c0 	addiu	a0,s4,960
10000074:	0c0000c3 	jal	0x1000030c
10000078:	26040010 	addiu	a0,s0,16
1000007c:	0c0000b2 	jal	0x100002c8
10000080:	264403b8 	addiu	a0,s2,952
10000084:	360f0010 	ori	t7,s0,0x10
10000088:	8de40000 	lw	a0,0(t7)
1000008c:	0c0000c3 	jal	0x1000030c
10000090:	36130040 	ori	s3,s0,0x40
10000094:	0c0000b2 	jal	0x100002c8
10000098:	262403a4 	addiu	a0,s1,932
1000009c:	3c0e1000 	lui	t6,0x1000
100000a0:	0c0000b2 	jal	0x100002c8
100000a4:	25c403d0 	addiu	a0,t6,976
100000a8:	0c0000c3 	jal	0x1000030c
100000ac:	26040020 	addiu	a0,s0,32
100000b0:	0c0000b2 	jal	0x100002c8
100000b4:	264403b8 	addiu	a0,s2,952
100000b8:	360d0020 	ori	t5,s0,0x20
100000bc:	8da40000 	lw	a0,0(t5)
100000c0:	0c0000c3 	jal	0x1000030c
100000c4:	00000000 	nop
100000c8:	0c0000b2 	jal	0x100002c8
100000cc:	262403a4 	addiu	a0,s1,932
100000d0:	3c0c1000 	lui	t4,0x1000
100000d4:	0c0000b2 	jal	0x100002c8
100000d8:	258403e0 	addiu	a0,t4,992
100000dc:	0c0000c3 	jal	0x1000030c
100000e0:	26040030 	addiu	a0,s0,48
100000e4:	0c0000b2 	jal	0x100002c8
100000e8:	264403b8 	addiu	a0,s2,952
100000ec:	360b0030 	ori	t3,s0,0x30
100000f0:	8d640000 	lw	a0,0(t3)
100000f4:	0c0000c3 	jal	0x1000030c
100000f8:	00000000 	nop
100000fc:	0c0000b2 	jal	0x100002c8
10000100:	262403a4 	addiu	a0,s1,932
10000104:	3c0a1000 	lui	t2,0x1000
10000108:	0c0000b2 	jal	0x100002c8
1000010c:	254403f0 	addiu	a0,t2,1008
10000110:	0c0000c3 	jal	0x1000030c
10000114:	26040040 	addiu	a0,s0,64
10000118:	0c0000b2 	jal	0x100002c8
1000011c:	264403b8 	addiu	a0,s2,952
10000120:	8e640000 	lw	a0,0(s3)
10000124:	0c0000c3 	jal	0x1000030c
10000128:	00000000 	nop
1000012c:	0c0000b2 	jal	0x100002c8
10000130:	262403a4 	addiu	a0,s1,932
10000134:	3c091000 	lui	t1,0x1000
10000138:	0c0000b2 	jal	0x100002c8
1000013c:	25240400 	addiu	a0,t1,1024
10000140:	0c0000c3 	jal	0x1000030c
10000144:	26040050 	addiu	a0,s0,80
10000148:	0c0000b2 	jal	0x100002c8
1000014c:	264403b8 	addiu	a0,s2,952
10000150:	36080050 	ori	t0,s0,0x50
10000154:	8d040000 	lw	a0,0(t0)
10000158:	0c0000c3 	jal	0x1000030c
1000015c:	00000000 	nop
10000160:	0c0000b2 	jal	0x100002c8
10000164:	262403a4 	addiu	a0,s1,932
10000168:	3c071000 	lui	a3,0x1000
1000016c:	0c0000b2 	jal	0x100002c8
10000170:	24e40410 	addiu	a0,a3,1040
10000174:	0c0000c3 	jal	0x1000030c
10000178:	26040060 	addiu	a0,s0,96
1000017c:	0c0000b2 	jal	0x100002c8
10000180:	264403b8 	addiu	a0,s2,952
10000184:	36060060 	ori	a2,s0,0x60
10000188:	8cc40000 	lw	a0,0(a2)
1000018c:	0c0000c3 	jal	0x1000030c
10000190:	00000000 	nop
10000194:	0c0000b2 	jal	0x100002c8
10000198:	262403a4 	addiu	a0,s1,932
1000019c:	3c051000 	lui	a1,0x1000
100001a0:	0c0000b2 	jal	0x100002c8
100001a4:	24a40420 	addiu	a0,a1,1056
100001a8:	0c0000c3 	jal	0x1000030c
100001ac:	26040070 	addiu	a0,s0,112
100001b0:	0c0000b2 	jal	0x100002c8
100001b4:	264403b8 	addiu	a0,s2,952
100001b8:	36040070 	ori	a0,s0,0x70
100001bc:	8c840000 	lw	a0,0(a0)
100001c0:	0c0000c3 	jal	0x1000030c
100001c4:	00000000 	nop
100001c8:	0c0000b2 	jal	0x100002c8
100001cc:	262403a4 	addiu	a0,s1,932
100001d0:	8e630000 	lw	v1,0(s3)
100001d4:	24020001 	li	v0,1
100001d8:	1062000f 	beq	v1,v0,0x10000218
100001dc:	00000000 	nop
100001e0:	3c041000 	lui	a0,0x1000
100001e4:	0c0000b2 	jal	0x100002c8
100001e8:	24840470 	addiu	a0,a0,1136
100001ec:	0c0000b2 	jal	0x100002c8
100001f0:	262403a4 	addiu	a0,s1,932
100001f4:	8fbf0024 	lw	ra,36(sp)
100001f8:	00001021 	move	v0,zero
100001fc:	8fb40020 	lw	s4,32(sp)
10000200:	8fb3001c 	lw	s3,28(sp)
10000204:	8fb20018 	lw	s2,24(sp)
10000208:	8fb10014 	lw	s1,20(sp)
1000020c:	8fb00010 	lw	s0,16(sp)
10000210:	03e00008 	jr	ra
10000214:	27bd0028 	addiu	sp,sp,40
10000218:	8e180000 	lw	t8,0(s0)
1000021c:	00000000 	nop
10000220:	1700ffef 	bnez	t8,0x100001e0
10000224:	3c1f1000 	lui	ra,0x1000
10000228:	27e40430 	addiu	a0,ra,1072
1000022c:	26130080 	addiu	s3,s0,128
10000230:	8e140080 	lw	s4,128(s0)
10000234:	0c0000b2 	jal	0x100002c8
10000238:	00000000 	nop
1000023c:	0c0000c3 	jal	0x1000030c
10000240:	02602021 	move	a0,s3
10000244:	0c0000b2 	jal	0x100002c8
10000248:	264403b8 	addiu	a0,s2,952
1000024c:	0c0000c3 	jal	0x1000030c
10000250:	02802021 	move	a0,s4
10000254:	0c0000b2 	jal	0x100002c8
10000258:	262403a4 	addiu	a0,s1,932
1000025c:	3c031000 	lui	v1,0x1000
10000260:	3c02fefe 	lui	v0,0xfefe
10000264:	24640450 	addiu	a0,v1,1104
10000268:	3459feff 	ori	t9,v0,0xfeff
1000026c:	0c0000b2 	jal	0x100002c8
10000270:	02999821 	addu	s3,s4,t9
10000274:	0c0000c3 	jal	0x1000030c
10000278:	26040090 	addiu	a0,s0,144
1000027c:	0c0000b2 	jal	0x100002c8
10000280:	264403b8 	addiu	a0,s2,952
10000284:	0c0000c3 	jal	0x1000030c
10000288:	02602021 	move	a0,s3
1000028c:	36120090 	ori	s2,s0,0x90
10000290:	0c0000b2 	jal	0x100002c8
10000294:	262403a4 	addiu	a0,s1,932
10000298:	ae530000 	sw	s3,0(s2)
1000029c:	08000079 	j	0x100001e4
100002a0:	3c041000 	lui	a0,0x1000
100002a4:	3c022000 	lui	v0,0x2000
100002a8:	8c450020 	lw	a1,32(v0)
100002ac:	00000000 	nop
100002b0:	30a30002 	andi	v1,a1,0x2
100002b4:	1060fffb 	beqz	v1,0x100002a4
100002b8:	00000000 	nop
100002bc:	ac440000 	sw	a0,0(v0)
100002c0:	03e00008 	jr	ra
100002c4:	00001021 	move	v0,zero
100002c8:	80850000 	lb	a1,0(a0)
100002cc:	00000000 	nop
100002d0:	10a0000c 	beqz	a1,0x10000304
100002d4:	24840001 	addiu	a0,a0,1
100002d8:	3c022000 	lui	v0,0x2000
100002dc:	8c460020 	lw	a2,32(v0)
100002e0:	00000000 	nop
100002e4:	30c30002 	andi	v1,a2,0x2
100002e8:	1060fffb 	beqz	v1,0x100002d8
100002ec:	00000000 	nop
100002f0:	ac450000 	sw	a1,0(v0)
100002f4:	80850000 	lb	a1,0(a0)
100002f8:	00000000 	nop
100002fc:	14a0fff6 	bnez	a1,0x100002d8
10000300:	24840001 	addiu	a0,a0,1
10000304:	03e00008 	jr	ra
10000308:	00001021 	move	v0,zero
1000030c:	2405001c 	li	a1,28
10000310:	2406fffc 	li	a2,-4
10000314:	00a41006 	srlv	v0,a0,a1
10000318:	3042000f 	andi	v0,v0,0xf
1000031c:	2c43000a 	sltiu	v1,v0,10
10000320:	1060000e 	beqz	v1,0x1000035c
10000324:	24470057 	addiu	a3,v0,87
10000328:	24470030 	addiu	a3,v0,48
1000032c:	3c022000 	lui	v0,0x2000
10000330:	8c490020 	lw	t1,32(v0)
10000334:	00000000 	nop
10000338:	31280002 	andi	t0,t1,0x2
1000033c:	1100fffb 	beqz	t0,0x1000032c
10000340:	00000000 	nop
10000344:	24a5fffc 	addiu	a1,a1,-4
10000348:	ac470000 	sw	a3,0(v0)
1000034c:	14a6fff2 	bne	a1,a2,0x10000318
10000350:	00a41006 	srlv	v0,a0,a1
10000354:	03e00008 	jr	ra
10000358:	00000000 	nop
1000035c:	3c022000 	lui	v0,0x2000
10000360:	8c4b0020 	lw	t3,32(v0)
10000364:	00000000 	nop
10000368:	316a0002 	andi	t2,t3,0x2
1000036c:	1140fffb 	beqz	t2,0x1000035c
10000370:	00000000 	nop
10000374:	24a5fffc 	addiu	a1,a1,-4
10000378:	ac470000 	sw	a3,0(v0)
1000037c:	14a6ffe6 	bne	a1,a2,0x10000318
10000380:	00a41006 	srlv	v0,a0,a1
10000384:	080000d5 	j	0x10000354
10000388:	00000000 	nop
