
test.axf:     file format elf32-bigmips


Disassembly of section .text:

10000000 <.text>:
10000000:	3c021000 	lui	v0,0x1000
10000004:	27bdffe8 	addiu	sp,sp,-24
10000008:	afbf0014 	sw	ra,20(sp)
1000000c:	0c00001b 	jal	0x1000006c
10000010:	24440130 	addiu	a0,v0,304
10000014:	3c041000 	lui	a0,0x1000
10000018:	0c00001b 	jal	0x1000006c
1000001c:	24840150 	addiu	a0,a0,336
10000020:	3c033000 	lui	v1,0x3000
10000024:	8c650000 	lw	a1,0(v1)
10000028:	00000000 	nop
1000002c:	14a0fffd 	bnez	a1,0x10000024
10000030:	00000000 	nop
10000034:	8c670080 	lw	a3,128(v1)
10000038:	24660080 	addiu	a2,v1,128
1000003c:	acc70010 	sw	a3,16(a2)
10000040:	08000009 	j	0x10000024
10000044:	00000000 	nop
10000048:	3c022000 	lui	v0,0x2000
1000004c:	8c450020 	lw	a1,32(v0)
10000050:	00000000 	nop
10000054:	30a30002 	andi	v1,a1,0x2
10000058:	1060fffb 	beqz	v1,0x10000048
1000005c:	00000000 	nop
10000060:	ac440000 	sw	a0,0(v0)
10000064:	03e00008 	jr	ra
10000068:	00001021 	move	v0,zero
1000006c:	80850000 	lb	a1,0(a0)
10000070:	00000000 	nop
10000074:	10a0000c 	beqz	a1,0x100000a8
10000078:	24840001 	addiu	a0,a0,1
1000007c:	3c022000 	lui	v0,0x2000
10000080:	8c460020 	lw	a2,32(v0)
10000084:	00000000 	nop
10000088:	30c30002 	andi	v1,a2,0x2
1000008c:	1060fffb 	beqz	v1,0x1000007c
10000090:	00000000 	nop
10000094:	ac450000 	sw	a1,0(v0)
10000098:	80850000 	lb	a1,0(a0)
1000009c:	00000000 	nop
100000a0:	14a0fff6 	bnez	a1,0x1000007c
100000a4:	24840001 	addiu	a0,a0,1
100000a8:	03e00008 	jr	ra
100000ac:	00001021 	move	v0,zero
100000b0:	2405001c 	li	a1,28
100000b4:	2406fffc 	li	a2,-4
100000b8:	00a41006 	srlv	v0,a0,a1
100000bc:	3042000f 	andi	v0,v0,0xf
100000c0:	2c43000a 	sltiu	v1,v0,10
100000c4:	1060000e 	beqz	v1,0x10000100
100000c8:	24470057 	addiu	a3,v0,87
100000cc:	24470030 	addiu	a3,v0,48
100000d0:	3c022000 	lui	v0,0x2000
100000d4:	8c490020 	lw	t1,32(v0)
100000d8:	00000000 	nop
100000dc:	31280002 	andi	t0,t1,0x2
100000e0:	1100fffb 	beqz	t0,0x100000d0
100000e4:	00000000 	nop
100000e8:	24a5fffc 	addiu	a1,a1,-4
100000ec:	ac470000 	sw	a3,0(v0)
100000f0:	14a6fff2 	bne	a1,a2,0x100000bc
100000f4:	00a41006 	srlv	v0,a0,a1
100000f8:	03e00008 	jr	ra
100000fc:	00000000 	nop
10000100:	3c022000 	lui	v0,0x2000
10000104:	8c4b0020 	lw	t3,32(v0)
10000108:	00000000 	nop
1000010c:	316a0002 	andi	t2,t3,0x2
10000110:	1140fffb 	beqz	t2,0x10000100
10000114:	00000000 	nop
10000118:	24a5fffc 	addiu	a1,a1,-4
1000011c:	ac470000 	sw	a3,0(v0)
10000120:	14a6ffe6 	bne	a1,a2,0x100000bc
10000124:	00a41006 	srlv	v0,a0,a1
10000128:	0800003e 	j	0x100000f8
1000012c:	00000000 	nop
