
test.axf:     format de fichier elf32-bigmips


D'eassemblage de la section .text:

00000000 <.text>:
   0:	3c1c0001 	lui	gp,0x1
   4:	279c84e0 	addiu	gp,gp,-31520
   8:	3c050000 	lui	a1,0x0
   c:	24a504ec 	addiu	a1,a1,1260
  10:	3c040000 	lui	a0,0x0
  14:	248444f0 	addiu	a0,a0,17648
  18:	3c1d0000 	lui	sp,0x0
  1c:	27bd44d8 	addiu	sp,sp,17624
  20:	aca00000 	sw	zero,0(a1)
  24:	00a4182a 	slt	v1,a1,a0
  28:	1460fffd 	bnez	v1,0x20
  2c:	24a50004 	addiu	a1,a1,4
  30:	0c00002b 	jal	0xac
  34:	00000000 	nop
  38:	0800000e 	j	0x38
  3c:	ac900000 	sw	s0,0(a0)
  40:	ac910004 	sw	s1,4(a0)
  44:	ac920008 	sw	s2,8(a0)
  48:	ac93000c 	sw	s3,12(a0)
  4c:	ac940010 	sw	s4,16(a0)
  50:	ac950014 	sw	s5,20(a0)
  54:	ac960018 	sw	s6,24(a0)
  58:	ac97001c 	sw	s7,28(a0)
  5c:	ac9e0020 	sw	s8,32(a0)
  60:	ac9c0024 	sw	gp,36(a0)
  64:	ac9d0028 	sw	sp,40(a0)
  68:	ac9f002c 	sw	ra,44(a0)
  6c:	03e00008 	jr	ra
  70:	34020000 	li	v0,0x0
  74:	8c900000 	lw	s0,0(a0)
  78:	8c910004 	lw	s1,4(a0)
  7c:	8c920008 	lw	s2,8(a0)
  80:	8c93000c 	lw	s3,12(a0)
  84:	8c940010 	lw	s4,16(a0)
  88:	8c950014 	lw	s5,20(a0)
  8c:	8c960018 	lw	s6,24(a0)
  90:	8c97001c 	lw	s7,28(a0)
  94:	8c9e0020 	lw	s8,32(a0)
  98:	8c9c0024 	lw	gp,36(a0)
  9c:	8c9d0028 	lw	sp,40(a0)
  a0:	8c9f002c 	lw	ra,44(a0)
  a4:	03e00008 	jr	ra
  a8:	34a20000 	ori	v0,a1,0x0
  ac:	27bdffc8 	addiu	sp,sp,-56
  b0:	afb40020 	sw	s4,32(sp)
  b4:	3c140000 	lui	s4,0x0
  b8:	26840408 	addiu	a0,s4,1032
  bc:	afb10014 	sw	s1,20(sp)
  c0:	3c110000 	lui	s1,0x0
  c4:	afbf0034 	sw	ra,52(sp)
  c8:	afbe0030 	sw	s8,48(sp)
  cc:	afb7002c 	sw	s7,44(sp)
  d0:	afb60028 	sw	s6,40(sp)
  d4:	afb50024 	sw	s5,36(sp)
  d8:	afb3001c 	sw	s3,28(sp)
  dc:	afb20018 	sw	s2,24(sp)
  e0:	0c0000d1 	jal	0x344
  e4:	afb00010 	sw	s0,16(sp)
  e8:	0c0000d1 	jal	0x344
  ec:	26240420 	addiu	a0,s1,1056
  f0:	3c0f0000 	lui	t7,0x0
  f4:	0c0000d1 	jal	0x344
  f8:	25e40424 	addiu	a0,t7,1060
  fc:	3c120000 	lui	s2,0x0
 100:	3c043000 	lui	a0,0x3000
 104:	0c0000e2 	jal	0x388
 108:	3c133000 	lui	s3,0x3000
 10c:	0c0000d1 	jal	0x344
 110:	26440434 	addiu	a0,s2,1076
 114:	8e640000 	lw	a0,0(s3)
 118:	0c0000e2 	jal	0x388
 11c:	26550434 	addiu	s5,s2,1076
 120:	0c0000d1 	jal	0x344
 124:	26240420 	addiu	a0,s1,1056
 128:	3c0e0000 	lui	t6,0x0
 12c:	0c0000d1 	jal	0x344
 130:	25c4043c 	addiu	a0,t6,1084
 134:	0c0000e2 	jal	0x388
 138:	26640010 	addiu	a0,s3,16
 13c:	0c0000d1 	jal	0x344
 140:	02a02021 	move	a0,s5
 144:	366d0010 	ori	t5,s3,0x10
 148:	8da40000 	lw	a0,0(t5)
 14c:	0c0000e2 	jal	0x388
 150:	26340420 	addiu	s4,s1,1056
 154:	0c0000d1 	jal	0x344
 158:	02802021 	move	a0,s4
 15c:	3c0c0000 	lui	t4,0x0
 160:	0c0000d1 	jal	0x344
 164:	2584044c 	addiu	a0,t4,1100
 168:	0c0000e2 	jal	0x388
 16c:	26640020 	addiu	a0,s3,32
 170:	0c0000d1 	jal	0x344
 174:	02a02021 	move	a0,s5
 178:	366b0020 	ori	t3,s3,0x20
 17c:	8d640000 	lw	a0,0(t3)
 180:	0c0000e2 	jal	0x388
 184:	36700070 	ori	s0,s3,0x70
 188:	0c0000d1 	jal	0x344
 18c:	02802021 	move	a0,s4
 190:	3c0a0000 	lui	t2,0x0
 194:	0c0000d1 	jal	0x344
 198:	2544045c 	addiu	a0,t2,1116
 19c:	0c0000e2 	jal	0x388
 1a0:	26640030 	addiu	a0,s3,48
 1a4:	0c0000d1 	jal	0x344
 1a8:	02a02021 	move	a0,s5
 1ac:	36690030 	ori	t1,s3,0x30
 1b0:	8d240000 	lw	a0,0(t1)
 1b4:	0c0000e2 	jal	0x388
 1b8:	3c1e0000 	lui	s8,0x0
 1bc:	0c0000d1 	jal	0x344
 1c0:	02802021 	move	a0,s4
 1c4:	3c080000 	lui	t0,0x0
 1c8:	0c0000d1 	jal	0x344
 1cc:	2504046c 	addiu	a0,t0,1132
 1d0:	0c0000e2 	jal	0x388
 1d4:	26640040 	addiu	a0,s3,64
 1d8:	0c0000d1 	jal	0x344
 1dc:	02a02021 	move	a0,s5
 1e0:	36670040 	ori	a3,s3,0x40
 1e4:	8ce40000 	lw	a0,0(a3)
 1e8:	0c0000e2 	jal	0x388
 1ec:	24110001 	li	s1,1
 1f0:	0c0000d1 	jal	0x344
 1f4:	02802021 	move	a0,s4
 1f8:	3c060000 	lui	a2,0x0
 1fc:	0c0000d1 	jal	0x344
 200:	24c4047c 	addiu	a0,a2,1148
 204:	0c0000e2 	jal	0x388
 208:	26640050 	addiu	a0,s3,80
 20c:	0c0000d1 	jal	0x344
 210:	02a02021 	move	a0,s5
 214:	36650050 	ori	a1,s3,0x50
 218:	8ca40000 	lw	a0,0(a1)
 21c:	0c0000e2 	jal	0x388
 220:	27de04cc 	addiu	s8,s8,1228
 224:	0c0000d1 	jal	0x344
 228:	02802021 	move	a0,s4
 22c:	3c030000 	lui	v1,0x0
 230:	0c0000d1 	jal	0x344
 234:	2464048c 	addiu	a0,v1,1164
 238:	0c0000e2 	jal	0x388
 23c:	26640060 	addiu	a0,s3,96
 240:	0c0000d1 	jal	0x344
 244:	02a02021 	move	a0,s5
 248:	36620060 	ori	v0,s3,0x60
 24c:	8c440000 	lw	a0,0(v0)
 250:	0c0000e2 	jal	0x388
 254:	00000000 	nop
 258:	0c0000d1 	jal	0x344
 25c:	02802021 	move	a0,s4
 260:	3c040000 	lui	a0,0x0
 264:	0c0000d1 	jal	0x344
 268:	2484049c 	addiu	a0,a0,1180
 26c:	0c0000e2 	jal	0x388
 270:	26640070 	addiu	a0,s3,112
 274:	0c0000d1 	jal	0x344
 278:	02a02021 	move	a0,s5
 27c:	8e040000 	lw	a0,0(s0)
 280:	0c0000e2 	jal	0x388
 284:	3c103000 	lui	s0,0x3000
 288:	26160090 	addiu	s6,s0,144
 28c:	0c0000d1 	jal	0x344
 290:	02802021 	move	a0,s4
 294:	26130080 	addiu	s3,s0,128
 298:	02c0b821 	move	s7,s6
 29c:	8e180040 	lw	t8,64(s0)
 2a0:	00000000 	nop
 2a4:	1711fffd 	bne	t8,s1,0x29c
 2a8:	00000000 	nop
 2ac:	8e190000 	lw	t9,0(s0)
 2b0:	00000000 	nop
 2b4:	1720fff9 	bnez	t9,0x29c
 2b8:	3c1f0000 	lui	ra,0x0
 2bc:	27e404ac 	addiu	a0,ra,1196
 2c0:	8e720000 	lw	s2,0(s3)
 2c4:	0c0000d1 	jal	0x344
 2c8:	00000000 	nop
 2cc:	0c0000e2 	jal	0x388
 2d0:	02602021 	move	a0,s3
 2d4:	0c0000d1 	jal	0x344
 2d8:	02a02021 	move	a0,s5
 2dc:	0c0000e2 	jal	0x388
 2e0:	02402021 	move	a0,s2
 2e4:	0c0000d1 	jal	0x344
 2e8:	02802021 	move	a0,s4
 2ec:	0c0000d1 	jal	0x344
 2f0:	03c02021 	move	a0,s8
 2f4:	0c0000e2 	jal	0x388
 2f8:	02c02021 	move	a0,s6
 2fc:	0c0000d1 	jal	0x344
 300:	02a02021 	move	a0,s5
 304:	0c0000e2 	jal	0x388
 308:	02402021 	move	a0,s2
 30c:	0c0000d1 	jal	0x344
 310:	02802021 	move	a0,s4
 314:	aef20000 	sw	s2,0(s7)
 318:	080000a7 	j	0x29c
 31c:	00000000 	nop
 320:	3c022000 	lui	v0,0x2000
 324:	8c450020 	lw	a1,32(v0)
 328:	00000000 	nop
 32c:	30a30002 	andi	v1,a1,0x2
 330:	1060fffb 	beqz	v1,0x320
 334:	00000000 	nop
 338:	ac440000 	sw	a0,0(v0)
 33c:	03e00008 	jr	ra
 340:	00001021 	move	v0,zero
 344:	80850000 	lb	a1,0(a0)
 348:	00000000 	nop
 34c:	10a0000c 	beqz	a1,0x380
 350:	24840001 	addiu	a0,a0,1
 354:	3c022000 	lui	v0,0x2000
 358:	8c460020 	lw	a2,32(v0)
 35c:	00000000 	nop
 360:	30c30002 	andi	v1,a2,0x2
 364:	1060fffb 	beqz	v1,0x354
 368:	00000000 	nop
 36c:	ac450000 	sw	a1,0(v0)
 370:	80850000 	lb	a1,0(a0)
 374:	00000000 	nop
 378:	14a0fff6 	bnez	a1,0x354
 37c:	24840001 	addiu	a0,a0,1
 380:	03e00008 	jr	ra
 384:	00001021 	move	v0,zero
 388:	2405001c 	li	a1,28
 38c:	2406fffc 	li	a2,-4
 390:	00a41006 	srlv	v0,a0,a1
 394:	3042000f 	andi	v0,v0,0xf
 398:	2c43000a 	sltiu	v1,v0,10
 39c:	1060000e 	beqz	v1,0x3d8
 3a0:	24470057 	addiu	a3,v0,87
 3a4:	24470030 	addiu	a3,v0,48
 3a8:	3c022000 	lui	v0,0x2000
 3ac:	8c490020 	lw	t1,32(v0)
 3b0:	00000000 	nop
 3b4:	31280002 	andi	t0,t1,0x2
 3b8:	1100fffb 	beqz	t0,0x3a8
 3bc:	00000000 	nop
 3c0:	24a5fffc 	addiu	a1,a1,-4
 3c4:	ac470000 	sw	a3,0(v0)
 3c8:	14a6fff2 	bne	a1,a2,0x394
 3cc:	00a41006 	srlv	v0,a0,a1
 3d0:	03e00008 	jr	ra
 3d4:	00000000 	nop
 3d8:	3c022000 	lui	v0,0x2000
 3dc:	8c4b0020 	lw	t3,32(v0)
 3e0:	00000000 	nop
 3e4:	316a0002 	andi	t2,t3,0x2
 3e8:	1140fffb 	beqz	t2,0x3d8
 3ec:	00000000 	nop
 3f0:	24a5fffc 	addiu	a1,a1,-4
 3f4:	ac470000 	sw	a3,0(v0)
 3f8:	14a6ffe6 	bne	a1,a2,0x394
 3fc:	00a41006 	srlv	v0,a0,a1
 400:	080000f4 	j	0x3d0
 404:	00000000 	nop
