
test.axf:     file format elf32-bigmips


Disassembly of section .text:

00000000 <.text>:
       0:	3c1c0001 	lui	gp,0x1
       4:	279c9430 	addiu	gp,gp,-27600
       8:	3c050000 	lui	a1,0x0
       c:	24a51434 	addiu	a1,a1,5172
      10:	3c040000 	lui	a0,0x0
      14:	24845450 	addiu	a0,a0,21584
      18:	3c1d0000 	lui	sp,0x0
      1c:	27bd5438 	addiu	sp,sp,21560
      20:	aca00000 	sw	zero,0(a1)
      24:	00a4182a 	slt	v1,a1,a0
      28:	1460fffd 	bnez	v1,0x20
      2c:	24a50004 	addiu	a1,a1,4
      30:	0c0000aa 	jal	0x2a8
      34:	00000000 	nop
      38:	0800000e 	j	0x38
      3c:	ac900000 	sw	s0,0(a0)
      40:	ac910004 	sw	s1,4(a0)
      44:	ac920008 	sw	s2,8(a0)
      48:	ac93000c 	sw	s3,12(a0)
      4c:	ac940010 	sw	s4,16(a0)
      50:	ac950014 	sw	s5,20(a0)
      54:	ac960018 	sw	s6,24(a0)
      58:	ac97001c 	sw	s7,28(a0)
      5c:	ac9e0020 	sw	s8,32(a0)
      60:	ac9c0024 	sw	gp,36(a0)
      64:	ac9d0028 	sw	sp,40(a0)
      68:	ac9f002c 	sw	ra,44(a0)
      6c:	03e00008 	jr	ra
      70:	34020000 	li	v0,0x0
      74:	8c900000 	lw	s0,0(a0)
      78:	8c910004 	lw	s1,4(a0)
      7c:	8c920008 	lw	s2,8(a0)
      80:	8c93000c 	lw	s3,12(a0)
      84:	8c940010 	lw	s4,16(a0)
      88:	8c950014 	lw	s5,20(a0)
      8c:	8c960018 	lw	s6,24(a0)
      90:	8c97001c 	lw	s7,28(a0)
      94:	8c9e0020 	lw	s8,32(a0)
      98:	8c9c0024 	lw	gp,36(a0)
      9c:	8c9d0028 	lw	sp,40(a0)
      a0:	8c9f002c 	lw	ra,44(a0)
      a4:	03e00008 	jr	ra
      a8:	34a20000 	ori	v0,a1,0x0
      ac:	27bdffe8 	addiu	sp,sp,-24
      b0:	afbf0014 	sw	ra,20(sp)
      b4:	0c00036a 	jal	0xda8
      b8:	00000000 	nop
      bc:	1040fffd 	beqz	v0,0xb4
      c0:	00000000 	nop
      c4:	0c00036e 	jal	0xdb8
      c8:	00000000 	nop
      cc:	8fbf0014 	lw	ra,20(sp)
      d0:	304200ff 	andi	v0,v0,0xff
      d4:	03e00008 	jr	ra
      d8:	27bd0018 	addiu	sp,sp,24
      dc:	27bdffe8 	addiu	sp,sp,-24
      e0:	afb00010 	sw	s0,16(sp)
      e4:	3c10005f 	lui	s0,0x5f
      e8:	afbf0014 	sw	ra,20(sp)
      ec:	0800003f 	j	0xfc
      f0:	26105e10 	addiu	s0,s0,24080
      f4:	12000006 	beqz	s0,0x110
      f8:	00000000 	nop
      fc:	0c00036a 	jal	0xda8
     100:	2610ffff 	addiu	s0,s0,-1
     104:	1040fffb 	beqz	v0,0xf4
     108:	00000000 	nop
     10c:	24020001 	li	v0,1
     110:	8fbf0014 	lw	ra,20(sp)
     114:	8fb00010 	lw	s0,16(sp)
     118:	03e00008 	jr	ra
     11c:	27bd0018 	addiu	sp,sp,24
     120:	27bdffd8 	addiu	sp,sp,-40
     124:	afb30020 	sw	s3,32(sp)
     128:	afb2001c 	sw	s2,28(sp)
     12c:	afb10018 	sw	s1,24(sp)
     130:	3c1302fa 	lui	s3,0x2fa
     134:	3c120000 	lui	s2,0x0
     138:	3c110000 	lui	s1,0x0
     13c:	afb00014 	sw	s0,20(sp)
     140:	afbf0024 	sw	ra,36(sp)
     144:	24100001 	li	s0,1
     148:	3673f080 	ori	s3,s3,0xf080
     14c:	265210e8 	addiu	s2,s2,4328
     150:	26311104 	addiu	s1,s1,4356
     154:	02601021 	move	v0,s3
     158:	00000000 	nop
     15c:	2442ffff 	addiu	v0,v0,-1
     160:	1440fffd 	bnez	v0,0x158
     164:	00000000 	nop
     168:	0c000322 	jal	0xc88
     16c:	02402021 	move	a0,s2
     170:	0c000341 	jal	0xd04
     174:	02002021 	move	a0,s0
     178:	0c000322 	jal	0xc88
     17c:	02202021 	move	a0,s1
     180:	0c00036a 	jal	0xda8
     184:	00000000 	nop
     188:	1040fff2 	beqz	v0,0x154
     18c:	26100001 	addiu	s0,s0,1
     190:	8fbf0024 	lw	ra,36(sp)
     194:	8fb30020 	lw	s3,32(sp)
     198:	8fb2001c 	lw	s2,28(sp)
     19c:	8fb10018 	lw	s1,24(sp)
     1a0:	8fb00014 	lw	s0,20(sp)
     1a4:	0800036e 	j	0xdb8
     1a8:	27bd0028 	addiu	sp,sp,40
     1ac:	3c022000 	lui	v0,0x2000
     1b0:	8c430050 	lw	v1,80(v0)
     1b4:	00000000 	nop
     1b8:	3063000f 	andi	v1,v1,0xf
     1bc:	1060fffc 	beqz	v1,0x1b0
     1c0:	24440050 	addiu	a0,v0,80
     1c4:	8c820000 	lw	v0,0(a0)
     1c8:	3c042000 	lui	a0,0x2000
     1cc:	3042000f 	andi	v0,v0,0xf
     1d0:	8c830050 	lw	v1,80(a0)
     1d4:	00000000 	nop
     1d8:	3063000f 	andi	v1,v1,0xf
     1dc:	1460fffc 	bnez	v1,0x1d0
     1e0:	00000000 	nop
     1e4:	03e00008 	jr	ra
     1e8:	00000000 	nop
     1ec:	3c040000 	lui	a0,0x0
     1f0:	27bdffe8 	addiu	sp,sp,-24
     1f4:	afbf0014 	sw	ra,20(sp)
     1f8:	0c000322 	jal	0xc88
     1fc:	24841108 	addiu	a0,a0,4360
     200:	3c040000 	lui	a0,0x0
     204:	0c000322 	jal	0xc88
     208:	24841138 	addiu	a0,a0,4408
     20c:	3c040000 	lui	a0,0x0
     210:	0c000322 	jal	0xc88
     214:	24841150 	addiu	a0,a0,4432
     218:	3c040000 	lui	a0,0x0
     21c:	0c000322 	jal	0xc88
     220:	24841168 	addiu	a0,a0,4456
     224:	3c040000 	lui	a0,0x0
     228:	0c000322 	jal	0xc88
     22c:	24841180 	addiu	a0,a0,4480
     230:	3c040000 	lui	a0,0x0
     234:	0c000322 	jal	0xc88
     238:	24841198 	addiu	a0,a0,4504
     23c:	3c040000 	lui	a0,0x0
     240:	0c000322 	jal	0xc88
     244:	248411b0 	addiu	a0,a0,4528
     248:	3c040000 	lui	a0,0x0
     24c:	8fbf0014 	lw	ra,20(sp)
     250:	248411d0 	addiu	a0,a0,4560
     254:	08000322 	j	0xc88
     258:	27bd0018 	addiu	sp,sp,24
     25c:	3c040000 	lui	a0,0x0
     260:	27bdffe8 	addiu	sp,sp,-24
     264:	afbf0014 	sw	ra,20(sp)
     268:	0c000322 	jal	0xc88
     26c:	248411ec 	addiu	a0,a0,4588
     270:	3c040000 	lui	a0,0x0
     274:	0c000322 	jal	0xc88
     278:	24841214 	addiu	a0,a0,4628
     27c:	3c040000 	lui	a0,0x0
     280:	0c000322 	jal	0xc88
     284:	248412a4 	addiu	a0,a0,4772
     288:	3c040000 	lui	a0,0x0
     28c:	0c000322 	jal	0xc88
     290:	24841220 	addiu	a0,a0,4640
     294:	3c040000 	lui	a0,0x0
     298:	8fbf0014 	lw	ra,20(sp)
     29c:	248412f4 	addiu	a0,a0,4852
     2a0:	08000322 	j	0xc88
     2a4:	27bd0018 	addiu	sp,sp,24
     2a8:	3c040000 	lui	a0,0x0
     2ac:	27bdffb8 	addiu	sp,sp,-72
     2b0:	2484122c 	addiu	a0,a0,4652
     2b4:	afbf0044 	sw	ra,68(sp)
     2b8:	afbe0040 	sw	s8,64(sp)
     2bc:	afb7003c 	sw	s7,60(sp)
     2c0:	afb60038 	sw	s6,56(sp)
     2c4:	afb50034 	sw	s5,52(sp)
     2c8:	afb40030 	sw	s4,48(sp)
     2cc:	afb3002c 	sw	s3,44(sp)
     2d0:	afb20028 	sw	s2,40(sp)
     2d4:	afb10024 	sw	s1,36(sp)
     2d8:	0c000322 	jal	0xc88
     2dc:	afb00020 	sw	s0,32(sp)
     2e0:	3c020000 	lui	v0,0x0
     2e4:	0c000322 	jal	0xc88
     2e8:	244411ec 	addiu	a0,v0,4588
     2ec:	3c020000 	lui	v0,0x0
     2f0:	0c000322 	jal	0xc88
     2f4:	24441214 	addiu	a0,v0,4628
     2f8:	3c020000 	lui	v0,0x0
     2fc:	0c000322 	jal	0xc88
     300:	244412a4 	addiu	a0,v0,4772
     304:	3c020000 	lui	v0,0x0
     308:	3c150000 	lui	s5,0x0
     30c:	0c000322 	jal	0xc88
     310:	24441220 	addiu	a0,v0,4640
     314:	0c000322 	jal	0xc88
     318:	26a412f4 	addiu	a0,s5,4852
     31c:	0c000272 	jal	0x9c8
     320:	3c110000 	lui	s1,0x0
     324:	3c020000 	lui	v0,0x0
     328:	0c000322 	jal	0xc88
     32c:	24441108 	addiu	a0,v0,4360
     330:	3c020000 	lui	v0,0x0
     334:	0c000322 	jal	0xc88
     338:	24441138 	addiu	a0,v0,4408
     33c:	3c020000 	lui	v0,0x0
     340:	0c000322 	jal	0xc88
     344:	24441150 	addiu	a0,v0,4432
     348:	3c020000 	lui	v0,0x0
     34c:	0c000322 	jal	0xc88
     350:	24441168 	addiu	a0,v0,4456
     354:	3c020000 	lui	v0,0x0
     358:	0c000322 	jal	0xc88
     35c:	24441180 	addiu	a0,v0,4480
     360:	3c020000 	lui	v0,0x0
     364:	0c000322 	jal	0xc88
     368:	24441198 	addiu	a0,v0,4504
     36c:	3c020000 	lui	v0,0x0
     370:	0c000322 	jal	0xc88
     374:	244411b0 	addiu	a0,v0,4528
     378:	3c020000 	lui	v0,0x0
     37c:	244411d0 	addiu	a0,v0,4560
     380:	3c1e0000 	lui	s8,0x0
     384:	3c170000 	lui	s7,0x0
     388:	3c1402fa 	lui	s4,0x2fa
     38c:	3c130000 	lui	s3,0x0
     390:	0c000322 	jal	0xc88
     394:	3c120000 	lui	s2,0x0
     398:	26311238 	addiu	s1,s1,4664
     39c:	27de123c 	addiu	s8,s8,4668
     3a0:	26f71250 	addiu	s7,s7,4688
     3a4:	26b512f4 	addiu	s5,s5,4852
     3a8:	24100038 	li	s0,56
     3ac:	3694f080 	ori	s4,s4,0xf080
     3b0:	267310e8 	addiu	s3,s3,4328
     3b4:	26521104 	addiu	s2,s2,4356
     3b8:	24160068 	li	s6,104
     3bc:	0c000322 	jal	0xc88
     3c0:	02202021 	move	a0,s1
     3c4:	0c00036e 	jal	0xdb8
     3c8:	00000000 	nop
     3cc:	00401821 	move	v1,v0
     3d0:	2442ffd0 	addiu	v0,v0,-48
     3d4:	2c420006 	sltiu	v0,v0,6
     3d8:	14400022 	bnez	v0,0x464
     3dc:	00602021 	move	a0,v1
     3e0:	10700034 	beq	v1,s0,0x4b4
     3e4:	00002821 	move	a1,zero
     3e8:	28620039 	slti	v0,v1,57
     3ec:	10400048 	beqz	v0,0x510
     3f0:	24020033 	li	v0,51
     3f4:	1062007e 	beq	v1,v0,0x5f0
     3f8:	28620034 	slti	v0,v1,52
     3fc:	10400065 	beqz	v0,0x594
     400:	24020034 	li	v0,52
     404:	24020031 	li	v0,49
     408:	106200af 	beq	v1,v0,0x6c8
     40c:	24020032 	li	v0,50
     410:	1062009e 	beq	v1,v0,0x68c
     414:	3c020000 	lui	v0,0x0
     418:	3c040000 	lui	a0,0x0
     41c:	2484126c 	addiu	a0,a0,4716
     420:	0c000322 	jal	0xc88
     424:	afa30018 	sw	v1,24(sp)
     428:	8fa30018 	lw	v1,24(sp)
     42c:	0c000341 	jal	0xd04
     430:	00602021 	move	a0,v1
     434:	3c040000 	lui	a0,0x0
     438:	0c000322 	jal	0xc88
     43c:	24841294 	addiu	a0,a0,4756
     440:	0c000322 	jal	0xc88
     444:	02202021 	move	a0,s1
     448:	0c00036e 	jal	0xdb8
     44c:	00000000 	nop
     450:	00401821 	move	v1,v0
     454:	2442ffd0 	addiu	v0,v0,-48
     458:	2c420006 	sltiu	v0,v0,6
     45c:	1040ffe0 	beqz	v0,0x3e0
     460:	00602021 	move	a0,v1
     464:	0c000319 	jal	0xc64
     468:	afa30018 	sw	v1,24(sp)
     46c:	0c000322 	jal	0xc88
     470:	03c02021 	move	a0,s8
     474:	0c0003e5 	jal	0xf94
     478:	00000000 	nop
     47c:	02e02021 	move	a0,s7
     480:	0c000322 	jal	0xc88
     484:	afa20014 	sw	v0,20(sp)
     488:	8fa50014 	lw	a1,20(sp)
     48c:	0c000377 	jal	0xddc
     490:	00a02021 	move	a0,a1
     494:	0c000322 	jal	0xc88
     498:	00402021 	move	a0,v0
     49c:	0c000322 	jal	0xc88
     4a0:	02a02021 	move	a0,s5
     4a4:	8fa30018 	lw	v1,24(sp)
     4a8:	8fa50014 	lw	a1,20(sp)
     4ac:	1470ffcf 	bne	v1,s0,0x3ec
     4b0:	28620039 	slti	v0,v1,57
     4b4:	24020001 	li	v0,1
     4b8:	afa20010 	sw	v0,16(sp)
     4bc:	02801021 	move	v0,s4
     4c0:	00000000 	nop
     4c4:	2442ffff 	addiu	v0,v0,-1
     4c8:	1440fffd 	bnez	v0,0x4c0
     4cc:	00000000 	nop
     4d0:	0c000322 	jal	0xc88
     4d4:	02602021 	move	a0,s3
     4d8:	8fa40010 	lw	a0,16(sp)
     4dc:	0c000341 	jal	0xd04
     4e0:	00000000 	nop
     4e4:	0c000322 	jal	0xc88
     4e8:	02402021 	move	a0,s2
     4ec:	0c00036a 	jal	0xda8
     4f0:	00000000 	nop
     4f4:	14400061 	bnez	v0,0x67c
     4f8:	00000000 	nop
     4fc:	8fa20010 	lw	v0,16(sp)
     500:	00000000 	nop
     504:	24420001 	addiu	v0,v0,1
     508:	0800012f 	j	0x4bc
     50c:	afa20010 	sw	v0,16(sp)
     510:	10760040 	beq	v1,s6,0x614
     514:	28620069 	slti	v0,v1,105
     518:	10400016 	beqz	v0,0x574
     51c:	24020076 	li	v0,118
     520:	24020048 	li	v0,72
     524:	1062003b 	beq	v1,v0,0x614
     528:	24020056 	li	v0,86
     52c:	1462ffba 	bne	v1,v0,0x418
     530:	00000000 	nop
     534:	3c040000 	lui	a0,0x0
     538:	0c000322 	jal	0xc88
     53c:	248411ec 	addiu	a0,a0,4588
     540:	3c020000 	lui	v0,0x0
     544:	0c000322 	jal	0xc88
     548:	24441214 	addiu	a0,v0,4628
     54c:	3c020000 	lui	v0,0x0
     550:	0c000322 	jal	0xc88
     554:	244412a4 	addiu	a0,v0,4772
     558:	3c020000 	lui	v0,0x0
     55c:	0c000322 	jal	0xc88
     560:	24441220 	addiu	a0,v0,4640
     564:	0c000322 	jal	0xc88
     568:	02a02021 	move	a0,s5
     56c:	080000ef 	j	0x3bc
     570:	00000000 	nop
     574:	1062ffef 	beq	v1,v0,0x534
     578:	240200ff 	li	v0,255
     57c:	1462ffa7 	bne	v1,v0,0x41c
     580:	3c040000 	lui	a0,0x0
     584:	0c0001b5 	jal	0x6d4
     588:	00000000 	nop
     58c:	080000ef 	j	0x3bc
     590:	00000000 	nop
     594:	10620007 	beq	v1,v0,0x5b4
     598:	24020037 	li	v0,55
     59c:	1462ff9f 	bne	v1,v0,0x41c
     5a0:	3c040000 	lui	a0,0x0
     5a4:	0c00030b 	jal	0xc2c
     5a8:	00000000 	nop
     5ac:	080000ef 	j	0x3bc
     5b0:	00000000 	nop
     5b4:	3c020000 	lui	v0,0x0
     5b8:	2444125c 	addiu	a0,v0,4700
     5bc:	0c000322 	jal	0xc88
     5c0:	afa50014 	sw	a1,20(sp)
     5c4:	0c0003e5 	jal	0xf94
     5c8:	00000000 	nop
     5cc:	00402021 	move	a0,v0
     5d0:	0c000377 	jal	0xddc
     5d4:	afa20018 	sw	v0,24(sp)
     5d8:	0c000322 	jal	0xc88
     5dc:	00402021 	move	a0,v0
     5e0:	8fa30018 	lw	v1,24(sp)
     5e4:	8fa50014 	lw	a1,20(sp)
     5e8:	080000ef 	j	0x3bc
     5ec:	a0a30000 	sb	v1,0(a1)
     5f0:	90a40000 	lbu	a0,0(a1)
     5f4:	0c000377 	jal	0xddc
     5f8:	00000000 	nop
     5fc:	0c000322 	jal	0xc88
     600:	00402021 	move	a0,v0
     604:	0c000322 	jal	0xc88
     608:	02a02021 	move	a0,s5
     60c:	080000ef 	j	0x3bc
     610:	00000000 	nop
     614:	3c040000 	lui	a0,0x0
     618:	0c000322 	jal	0xc88
     61c:	24841108 	addiu	a0,a0,4360
     620:	3c040000 	lui	a0,0x0
     624:	0c000322 	jal	0xc88
     628:	24841138 	addiu	a0,a0,4408
     62c:	3c040000 	lui	a0,0x0
     630:	0c000322 	jal	0xc88
     634:	24841150 	addiu	a0,a0,4432
     638:	3c040000 	lui	a0,0x0
     63c:	0c000322 	jal	0xc88
     640:	24841168 	addiu	a0,a0,4456
     644:	3c040000 	lui	a0,0x0
     648:	0c000322 	jal	0xc88
     64c:	24841180 	addiu	a0,a0,4480
     650:	3c040000 	lui	a0,0x0
     654:	0c000322 	jal	0xc88
     658:	24841198 	addiu	a0,a0,4504
     65c:	3c040000 	lui	a0,0x0
     660:	0c000322 	jal	0xc88
     664:	248411b0 	addiu	a0,a0,4528
     668:	3c040000 	lui	a0,0x0
     66c:	0c000322 	jal	0xc88
     670:	248411d0 	addiu	a0,a0,4560
     674:	080000ef 	j	0x3bc
     678:	00000000 	nop
     67c:	0c00036e 	jal	0xdb8
     680:	00000000 	nop
     684:	080000ef 	j	0x3bc
     688:	00000000 	nop
     68c:	2444125c 	addiu	a0,v0,4700
     690:	0c000322 	jal	0xc88
     694:	afa50014 	sw	a1,20(sp)
     698:	0c0003e5 	jal	0xf94
     69c:	00000000 	nop
     6a0:	00402021 	move	a0,v0
     6a4:	0c000377 	jal	0xddc
     6a8:	afa20018 	sw	v0,24(sp)
     6ac:	0c000322 	jal	0xc88
     6b0:	00402021 	move	a0,v0
     6b4:	8fa30018 	lw	v1,24(sp)
     6b8:	8fa50014 	lw	a1,20(sp)
     6bc:	00000000 	nop
     6c0:	080000ef 	j	0x3bc
     6c4:	aca30000 	sw	v1,0(a1)
     6c8:	8ca40000 	lw	a0,0(a1)
     6cc:	0800017d 	j	0x5f4
     6d0:	00000000 	nop
     6d4:	27bdffd8 	addiu	sp,sp,-40
     6d8:	afb00010 	sw	s0,16(sp)
     6dc:	afbf0024 	sw	ra,36(sp)
     6e0:	afb40020 	sw	s4,32(sp)
     6e4:	afb3001c 	sw	s3,28(sp)
     6e8:	afb20018 	sw	s2,24(sp)
     6ec:	0c00002b 	jal	0xac
     6f0:	afb10014 	sw	s1,20(sp)
     6f4:	00408021 	move	s0,v0
     6f8:	240200ff 	li	v0,255
     6fc:	12020055 	beq	s0,v0,0x854
     700:	3c040000 	lui	a0,0x0
     704:	0c000322 	jal	0xc88
     708:	24841280 	addiu	a0,a0,4736
     70c:	3c040000 	lui	a0,0x0
     710:	0c000322 	jal	0xc88
     714:	24841298 	addiu	a0,a0,4760
     718:	3c110000 	lui	s1,0x0
     71c:	0c000341 	jal	0xd04
     720:	02002021 	move	a0,s0
     724:	0c000322 	jal	0xc88
     728:	26241104 	addiu	a0,s1,4356
     72c:	0c00002b 	jal	0xac
     730:	00000000 	nop
     734:	00408021 	move	s0,v0
     738:	240200ff 	li	v0,255
     73c:	1202000a 	beq	s0,v0,0x768
     740:	3c040000 	lui	a0,0x0
     744:	0c000322 	jal	0xc88
     748:	248412a8 	addiu	a0,a0,4776
     74c:	3c040000 	lui	a0,0x0
     750:	0c000322 	jal	0xc88
     754:	24841298 	addiu	a0,a0,4760
     758:	0c000341 	jal	0xd04
     75c:	02002021 	move	a0,s0
     760:	0c000322 	jal	0xc88
     764:	26241104 	addiu	a0,s1,4356
     768:	0c00002b 	jal	0xac
     76c:	00000000 	nop
     770:	00408021 	move	s0,v0
     774:	240200ff 	li	v0,255
     778:	1202000a 	beq	s0,v0,0x7a4
     77c:	3c040000 	lui	a0,0x0
     780:	0c000322 	jal	0xc88
     784:	248412c0 	addiu	a0,a0,4800
     788:	3c040000 	lui	a0,0x0
     78c:	0c000322 	jal	0xc88
     790:	24841298 	addiu	a0,a0,4760
     794:	0c000341 	jal	0xd04
     798:	02002021 	move	a0,s0
     79c:	0c000322 	jal	0xc88
     7a0:	26241104 	addiu	a0,s1,4356
     7a4:	0c00002b 	jal	0xac
     7a8:	00000000 	nop
     7ac:	0c00002b 	jal	0xac
     7b0:	00409821 	move	s3,v0
     7b4:	0c00002b 	jal	0xac
     7b8:	00409021 	move	s2,v0
     7bc:	0c00002b 	jal	0xac
     7c0:	0040a021 	move	s4,v0
     7c4:	00028600 	sll	s0,v0,0x18
     7c8:	0014a400 	sll	s4,s4,0x10
     7cc:	02148025 	or	s0,s0,s4
     7d0:	02138025 	or	s0,s0,s3
     7d4:	00129200 	sll	s2,s2,0x8
     7d8:	02128025 	or	s0,s0,s2
     7dc:	1200000a 	beqz	s0,0x808
     7e0:	00009821 	move	s3,zero
     7e4:	00009021 	move	s2,zero
     7e8:	3c141000 	lui	s4,0x1000
     7ec:	0c00002b 	jal	0xac
     7f0:	26520001 	addiu	s2,s2,1
     7f4:	02939821 	addu	s3,s4,s3
     7f8:	0250182b 	sltu	v1,s2,s0
     7fc:	a2620000 	sb	v0,0(s3)
     800:	1460fffa 	bnez	v1,0x7ec
     804:	02409821 	move	s3,s2
     808:	3c040000 	lui	a0,0x0
     80c:	0c000322 	jal	0xc88
     810:	248412d8 	addiu	a0,a0,4824
     814:	3c040000 	lui	a0,0x0
     818:	0c000322 	jal	0xc88
     81c:	248412f8 	addiu	a0,a0,4856
     820:	0c000341 	jal	0xd04
     824:	02002021 	move	a0,s0
     828:	0c000322 	jal	0xc88
     82c:	26241104 	addiu	a0,s1,4356
     830:	8fbf0024 	lw	ra,36(sp)
     834:	24020001 	li	v0,1
     838:	8fb40020 	lw	s4,32(sp)
     83c:	8fb3001c 	lw	s3,28(sp)
     840:	8fb20018 	lw	s2,24(sp)
     844:	8fb10014 	lw	s1,20(sp)
     848:	8fb00010 	lw	s0,16(sp)
     84c:	03e00008 	jr	ra
     850:	27bd0028 	addiu	sp,sp,40
     854:	080001cb 	j	0x72c
     858:	3c110000 	lui	s1,0x0
     85c:	10c00016 	beqz	a2,0x8b8
     860:	30a500ff 	andi	a1,a1,0xff
     864:	00001821 	move	v1,zero
     868:	00001021 	move	v0,zero
     86c:	00831821 	addu	v1,a0,v1
     870:	24420001 	addiu	v0,v0,1
     874:	a0650000 	sb	a1,0(v1)
     878:	1446fffc 	bne	v0,a2,0x86c
     87c:	00401821 	move	v1,v0
     880:	90870000 	lbu	a3,0(a0)
     884:	00000000 	nop
     888:	14e5000f 	bne	a3,a1,0x8c8
     88c:	00000000 	nop
     890:	0800022a 	j	0x8a8
     894:	00001021 	move	v0,zero
     898:	90a30000 	lbu	v1,0(a1)
     89c:	00000000 	nop
     8a0:	14670007 	bne	v1,a3,0x8c0
     8a4:	00000000 	nop
     8a8:	24420001 	addiu	v0,v0,1
     8ac:	0046182b 	sltu	v1,v0,a2
     8b0:	1460fff9 	bnez	v1,0x898
     8b4:	00822821 	addu	a1,a0,v0
     8b8:	03e00008 	jr	ra
     8bc:	00001021 	move	v0,zero
     8c0:	03e00008 	jr	ra
     8c4:	24020001 	li	v0,1
     8c8:	03e00008 	jr	ra
     8cc:	24020001 	li	v0,1
     8d0:	27bdffe0 	addiu	sp,sp,-32
     8d4:	afb00018 	sw	s0,24(sp)
     8d8:	00808021 	move	s0,a0
     8dc:	3c040000 	lui	a0,0x0
     8e0:	2484130c 	addiu	a0,a0,4876
     8e4:	afa60014 	sw	a2,20(sp)
     8e8:	afbf001c 	sw	ra,28(sp)
     8ec:	0c000322 	jal	0xc88
     8f0:	afa50010 	sw	a1,16(sp)
     8f4:	0c000341 	jal	0xd04
     8f8:	02002021 	move	a0,s0
     8fc:	3c040000 	lui	a0,0x0
     900:	0c000322 	jal	0xc88
     904:	2484132c 	addiu	a0,a0,4908
     908:	8fa50010 	lw	a1,16(sp)
     90c:	00000000 	nop
     910:	24a4ffff 	addiu	a0,a1,-1
     914:	0c000341 	jal	0xd04
     918:	02042021 	addu	a0,s0,a0
     91c:	8fa60014 	lw	a2,20(sp)
     920:	00000000 	nop
     924:	10c00006 	beqz	a2,0x940
     928:	3c040000 	lui	a0,0x0
     92c:	8fbf001c 	lw	ra,28(sp)
     930:	8fb00018 	lw	s0,24(sp)
     934:	2484133c 	addiu	a0,a0,4924
     938:	08000322 	j	0xc88
     93c:	27bd0020 	addiu	sp,sp,32
     940:	3c040000 	lui	a0,0x0
     944:	8fbf001c 	lw	ra,28(sp)
     948:	8fb00018 	lw	s0,24(sp)
     94c:	24841334 	addiu	a0,a0,4916
     950:	08000322 	j	0xc88
     954:	27bd0020 	addiu	sp,sp,32
     958:	10a00017 	beqz	a1,0x9b8
     95c:	00001821 	move	v1,zero
     960:	00001021 	move	v0,zero
     964:	00831821 	addu	v1,a0,v1
     968:	a0620000 	sb	v0,0(v1)
     96c:	24420001 	addiu	v0,v0,1
     970:	1445fffc 	bne	v0,a1,0x964
     974:	00401821 	move	v1,v0
     978:	90820000 	lbu	v0,0(a0)
     97c:	00000000 	nop
     980:	10400009 	beqz	v0,0x9a8
     984:	24420001 	addiu	v0,v0,1
     988:	2442ffff 	addiu	v0,v0,-1
     98c:	03e00008 	jr	ra
     990:	24020001 	li	v0,1
     994:	90e30000 	lbu	v1,0(a3)
     998:	00000000 	nop
     99c:	14660008 	bne	v1,a2,0x9c0
     9a0:	00000000 	nop
     9a4:	24420001 	addiu	v0,v0,1
     9a8:	0045182b 	sltu	v1,v0,a1
     9ac:	00823821 	addu	a3,a0,v0
     9b0:	1460fff8 	bnez	v1,0x994
     9b4:	304600ff 	andi	a2,v0,0xff
     9b8:	03e00008 	jr	ra
     9bc:	00001021 	move	v0,zero
     9c0:	03e00008 	jr	ra
     9c4:	24020001 	li	v0,1
     9c8:	3c040000 	lui	a0,0x0
     9cc:	27bdffe8 	addiu	sp,sp,-24
     9d0:	afbf0014 	sw	ra,20(sp)
     9d4:	0c000322 	jal	0xc88
     9d8:	24841348 	addiu	a0,a0,4936
     9dc:	3c021000 	lui	v0,0x1000
     9e0:	00006821 	move	t5,zero
     9e4:	24031000 	li	v1,4096
     9e8:	2408ffff 	li	t0,-1
     9ec:	240b00ff 	li	t3,255
     9f0:	2407fff0 	li	a3,-16
     9f4:	240a00f0 	li	t2,240
     9f8:	2406000f 	li	a2,15
     9fc:	2409000f 	li	t1,15
     a00:	344cf000 	ori	t4,v0,0xf000
     a04:	00002821 	move	a1,zero
     a08:	00002021 	move	a0,zero
     a0c:	00452821 	addu	a1,v0,a1
     a10:	24840001 	addiu	a0,a0,1
     a14:	a0a00000 	sb	zero,0(a1)
     a18:	1483fffc 	bne	a0,v1,0xa0c
     a1c:	00802821 	move	a1,a0
     a20:	90440000 	lbu	a0,0(v0)
     a24:	00000000 	nop
     a28:	1480000a 	bnez	a0,0xa54
     a2c:	24040001 	li	a0,1
     a30:	08000290 	j	0xa40
     a34:	24050001 	li	a1,1
     a38:	1083006f 	beq	a0,v1,0xbf8
     a3c:	00802821 	move	a1,a0
     a40:	00452821 	addu	a1,v0,a1
     a44:	90a50000 	lbu	a1,0(a1)
     a48:	00000000 	nop
     a4c:	10a0fffa 	beqz	a1,0xa38
     a50:	24840001 	addiu	a0,a0,1
     a54:	24040001 	li	a0,1
     a58:	008d7021 	addu	t6,a0,t5
     a5c:	00002821 	move	a1,zero
     a60:	00002021 	move	a0,zero
     a64:	00452821 	addu	a1,v0,a1
     a68:	24840001 	addiu	a0,a0,1
     a6c:	a0a80000 	sb	t0,0(a1)
     a70:	1483fffc 	bne	a0,v1,0xa64
     a74:	00802821 	move	a1,a0
     a78:	90440000 	lbu	a0,0(v0)
     a7c:	00000000 	nop
     a80:	148b000a 	bne	a0,t3,0xaac
     a84:	24040001 	li	a0,1
     a88:	080002a6 	j	0xa98
     a8c:	24050001 	li	a1,1
     a90:	1083005b 	beq	a0,v1,0xc00
     a94:	00802821 	move	a1,a0
     a98:	00452821 	addu	a1,v0,a1
     a9c:	90a50000 	lbu	a1,0(a1)
     aa0:	00000000 	nop
     aa4:	10abfffa 	beq	a1,t3,0xa90
     aa8:	24840001 	addiu	a0,a0,1
     aac:	24040001 	li	a0,1
     ab0:	01c47021 	addu	t6,t6,a0
     ab4:	00002821 	move	a1,zero
     ab8:	00002021 	move	a0,zero
     abc:	00452821 	addu	a1,v0,a1
     ac0:	24840001 	addiu	a0,a0,1
     ac4:	a0a70000 	sb	a3,0(a1)
     ac8:	1483fffc 	bne	a0,v1,0xabc
     acc:	00802821 	move	a1,a0
     ad0:	90440000 	lbu	a0,0(v0)
     ad4:	00000000 	nop
     ad8:	148a000a 	bne	a0,t2,0xb04
     adc:	24040001 	li	a0,1
     ae0:	080002bc 	j	0xaf0
     ae4:	24050001 	li	a1,1
     ae8:	10830047 	beq	a0,v1,0xc08
     aec:	00802821 	move	a1,a0
     af0:	00452821 	addu	a1,v0,a1
     af4:	90a50000 	lbu	a1,0(a1)
     af8:	00000000 	nop
     afc:	10aafffa 	beq	a1,t2,0xae8
     b00:	24840001 	addiu	a0,a0,1
     b04:	24040001 	li	a0,1
     b08:	01c47021 	addu	t6,t6,a0
     b0c:	00002821 	move	a1,zero
     b10:	00002021 	move	a0,zero
     b14:	00452821 	addu	a1,v0,a1
     b18:	24840001 	addiu	a0,a0,1
     b1c:	a0a60000 	sb	a2,0(a1)
     b20:	1483fffc 	bne	a0,v1,0xb14
     b24:	00802821 	move	a1,a0
     b28:	90440000 	lbu	a0,0(v0)
     b2c:	00000000 	nop
     b30:	1489000a 	bne	a0,t1,0xb5c
     b34:	24040001 	li	a0,1
     b38:	080002d2 	j	0xb48
     b3c:	24050001 	li	a1,1
     b40:	10830033 	beq	a0,v1,0xc10
     b44:	00802821 	move	a1,a0
     b48:	00452821 	addu	a1,v0,a1
     b4c:	90a50000 	lbu	a1,0(a1)
     b50:	00000000 	nop
     b54:	10a9fffa 	beq	a1,t1,0xb40
     b58:	24840001 	addiu	a0,a0,1
     b5c:	24040001 	li	a0,1
     b60:	01c47021 	addu	t6,t6,a0
     b64:	00002821 	move	a1,zero
     b68:	00002021 	move	a0,zero
     b6c:	00452821 	addu	a1,v0,a1
     b70:	a0a40000 	sb	a0,0(a1)
     b74:	24840001 	addiu	a0,a0,1
     b78:	1483fffc 	bne	a0,v1,0xb6c
     b7c:	00802821 	move	a1,a0
     b80:	90440000 	lbu	a0,0(v0)
     b84:	00000000 	nop
     b88:	1480000a 	bnez	a0,0xbb4
     b8c:	24050001 	li	a1,1
     b90:	080002e8 	j	0xba0
     b94:	24040001 	li	a0,1
     b98:	1083000b 	beq	a0,v1,0xbc8
     b9c:	00802821 	move	a1,a0
     ba0:	00452821 	addu	a1,v0,a1
     ba4:	90ad0000 	lbu	t5,0(a1)
     ba8:	308500ff 	andi	a1,a0,0xff
     bac:	11a5fffa 	beq	t5,a1,0xb98
     bb0:	24840001 	addiu	a0,a0,1
     bb4:	24040001 	li	a0,1
     bb8:	104c0006 	beq	v0,t4,0xbd4
     bbc:	01c46821 	addu	t5,t6,a0
     bc0:	08000281 	j	0xa04
     bc4:	24421000 	addiu	v0,v0,4096
     bc8:	00002021 	move	a0,zero
     bcc:	144cfffc 	bne	v0,t4,0xbc0
     bd0:	01c46821 	addu	t5,t6,a0
     bd4:	11a00010 	beqz	t5,0xc18
     bd8:	00000000 	nop
     bdc:	3c040000 	lui	a0,0x0
     be0:	0c000322 	jal	0xc88
     be4:	24841388 	addiu	a0,a0,5000
     be8:	8fbf0014 	lw	ra,20(sp)
     bec:	00001021 	move	v0,zero
     bf0:	03e00008 	jr	ra
     bf4:	27bd0018 	addiu	sp,sp,24
     bf8:	08000296 	j	0xa58
     bfc:	00002021 	move	a0,zero
     c00:	080002ac 	j	0xab0
     c04:	00002021 	move	a0,zero
     c08:	080002c2 	j	0xb08
     c0c:	00002021 	move	a0,zero
     c10:	080002d8 	j	0xb60
     c14:	00002021 	move	a0,zero
     c18:	3c040000 	lui	a0,0x0
     c1c:	0c000322 	jal	0xc88
     c20:	2484136c 	addiu	a0,a0,4972
     c24:	080002fa 	j	0xbe8
     c28:	00000000 	nop
     c2c:	3c040000 	lui	a0,0x0
     c30:	27bdffe8 	addiu	sp,sp,-24
     c34:	afbf0014 	sw	ra,20(sp)
     c38:	0c000322 	jal	0xc88
     c3c:	248413ac 	addiu	a0,a0,5036
     c40:	3c021000 	lui	v0,0x1000
     c44:	0040f809 	jalr	v0
     c48:	00000000 	nop
     c4c:	3c040000 	lui	a0,0x0
     c50:	0c000322 	jal	0xc88
     c54:	248413f0 	addiu	a0,a0,5104
     c58:	8fbf0014 	lw	ra,20(sp)
     c5c:	0800002b 	j	0xac
     c60:	27bd0018 	addiu	sp,sp,24
     c64:	3c022000 	lui	v0,0x2000
     c68:	8c430020 	lw	v1,32(v0)
     c6c:	00000000 	nop
     c70:	30630002 	andi	v1,v1,0x2
     c74:	1060fffb 	beqz	v1,0xc64
     c78:	00000000 	nop
     c7c:	ac440000 	sw	a0,0(v0)
     c80:	03e00008 	jr	ra
     c84:	00001021 	move	v0,zero
     c88:	80850000 	lb	a1,0(a0)
     c8c:	00000000 	nop
     c90:	10a00010 	beqz	a1,0xcd4
     c94:	2406000a 	li	a2,10
     c98:	2407000d 	li	a3,13
     c9c:	10a60010 	beq	a1,a2,0xce0
     ca0:	3c022000 	lui	v0,0x2000
     ca4:	24840001 	addiu	a0,a0,1
     ca8:	3c022000 	lui	v0,0x2000
     cac:	8c430020 	lw	v1,32(v0)
     cb0:	00000000 	nop
     cb4:	30630002 	andi	v1,v1,0x2
     cb8:	1060fffb 	beqz	v1,0xca8
     cbc:	00000000 	nop
     cc0:	ac450000 	sw	a1,0(v0)
     cc4:	80850000 	lb	a1,0(a0)
     cc8:	00000000 	nop
     ccc:	14a0fff3 	bnez	a1,0xc9c
     cd0:	00000000 	nop
     cd4:	03e00008 	jr	ra
     cd8:	00001021 	move	v0,zero
     cdc:	3c022000 	lui	v0,0x2000
     ce0:	8c430020 	lw	v1,32(v0)
     ce4:	00000000 	nop
     ce8:	30630002 	andi	v1,v1,0x2
     cec:	1060fffb 	beqz	v1,0xcdc
     cf0:	00000000 	nop
     cf4:	ac470000 	sw	a3,0(v0)
     cf8:	80850000 	lb	a1,0(a0)
     cfc:	0800032a 	j	0xca8
     d00:	24840001 	addiu	a0,a0,1
     d04:	2405001c 	li	a1,28
     d08:	2406fffc 	li	a2,-4
     d0c:	00a41006 	srlv	v0,a0,a1
     d10:	3042000f 	andi	v0,v0,0xf
     d14:	2c43000a 	sltiu	v1,v0,10
     d18:	1060000e 	beqz	v1,0xd54
     d1c:	24470057 	addiu	a3,v0,87
     d20:	24470030 	addiu	a3,v0,48
     d24:	3c022000 	lui	v0,0x2000
     d28:	8c430020 	lw	v1,32(v0)
     d2c:	00000000 	nop
     d30:	30630002 	andi	v1,v1,0x2
     d34:	1060fffb 	beqz	v1,0xd24
     d38:	00000000 	nop
     d3c:	24a5fffc 	addiu	a1,a1,-4
     d40:	ac470000 	sw	a3,0(v0)
     d44:	14a6fff2 	bne	a1,a2,0xd10
     d48:	00a41006 	srlv	v0,a0,a1
     d4c:	03e00008 	jr	ra
     d50:	00000000 	nop
     d54:	3c022000 	lui	v0,0x2000
     d58:	8c430020 	lw	v1,32(v0)
     d5c:	00000000 	nop
     d60:	30630002 	andi	v1,v1,0x2
     d64:	1060fffb 	beqz	v1,0xd54
     d68:	00000000 	nop
     d6c:	24a5fffc 	addiu	a1,a1,-4
     d70:	ac470000 	sw	a3,0(v0)
     d74:	14a6ffe6 	bne	a1,a2,0xd10
     d78:	00a41006 	srlv	v0,a0,a1
     d7c:	08000353 	j	0xd4c
     d80:	00000000 	nop
     d84:	3c022000 	lui	v0,0x2000
     d88:	8c430020 	lw	v1,32(v0)
     d8c:	00000000 	nop
     d90:	30630002 	andi	v1,v1,0x2
     d94:	1060fffc 	beqz	v1,0xd88
     d98:	24030049 	li	v1,73
     d9c:	ac430000 	sw	v1,0(v0)
     da0:	03e00008 	jr	ra
     da4:	00000000 	nop
     da8:	3c022000 	lui	v0,0x2000
     dac:	8c420020 	lw	v0,32(v0)
     db0:	03e00008 	jr	ra
     db4:	30420001 	andi	v0,v0,0x1
     db8:	3c022000 	lui	v0,0x2000
     dbc:	8c430020 	lw	v1,32(v0)
     dc0:	00000000 	nop
     dc4:	30630001 	andi	v1,v1,0x1
     dc8:	1060fffb 	beqz	v1,0xdb8
     dcc:	00000000 	nop
     dd0:	8c420000 	lw	v0,0(v0)
     dd4:	03e00008 	jr	ra
     dd8:	00000000 	nop
     ddc:	3c030000 	lui	v1,0x0
     de0:	3085000f 	andi	a1,a0,0xf
     de4:	24621440 	addiu	v0,v1,5184
     de8:	28a6000a 	slti	a2,a1,10
     dec:	10c00035 	beqz	a2,0xec4
     df0:	a0400008 	sb	zero,8(v0)
     df4:	00042102 	srl	a0,a0,0x4
     df8:	24070030 	li	a3,48
     dfc:	3086000f 	andi	a2,a0,0xf
     e00:	00e52821 	addu	a1,a3,a1
     e04:	28c7000a 	slti	a3,a2,10
     e08:	10e00035 	beqz	a3,0xee0
     e0c:	a0450007 	sb	a1,7(v0)
     e10:	00042102 	srl	a0,a0,0x4
     e14:	24070030 	li	a3,48
     e18:	3085000f 	andi	a1,a0,0xf
     e1c:	00e63021 	addu	a2,a3,a2
     e20:	28a7000a 	slti	a3,a1,10
     e24:	10e00035 	beqz	a3,0xefc
     e28:	a0460006 	sb	a2,6(v0)
     e2c:	00042102 	srl	a0,a0,0x4
     e30:	24070030 	li	a3,48
     e34:	3086000f 	andi	a2,a0,0xf
     e38:	00e52821 	addu	a1,a3,a1
     e3c:	28c7000a 	slti	a3,a2,10
     e40:	10e00035 	beqz	a3,0xf18
     e44:	a0450005 	sb	a1,5(v0)
     e48:	00042102 	srl	a0,a0,0x4
     e4c:	24070030 	li	a3,48
     e50:	3085000f 	andi	a1,a0,0xf
     e54:	00e63021 	addu	a2,a3,a2
     e58:	28a7000a 	slti	a3,a1,10
     e5c:	10e00035 	beqz	a3,0xf34
     e60:	a0460004 	sb	a2,4(v0)
     e64:	00042102 	srl	a0,a0,0x4
     e68:	24070030 	li	a3,48
     e6c:	3086000f 	andi	a2,a0,0xf
     e70:	00e52821 	addu	a1,a3,a1
     e74:	28c7000a 	slti	a3,a2,10
     e78:	10e00035 	beqz	a3,0xf50
     e7c:	a0450003 	sb	a1,3(v0)
     e80:	00042102 	srl	a0,a0,0x4
     e84:	24070030 	li	a3,48
     e88:	3085000f 	andi	a1,a0,0xf
     e8c:	00e63021 	addu	a2,a3,a2
     e90:	28a7000a 	slti	a3,a1,10
     e94:	10e00035 	beqz	a3,0xf6c
     e98:	a0460002 	sb	a2,2(v0)
     e9c:	24060030 	li	a2,48
     ea0:	00042102 	srl	a0,a0,0x4
     ea4:	00c52821 	addu	a1,a2,a1
     ea8:	2886000a 	slti	a2,a0,10
     eac:	10c00035 	beqz	a2,0xf84
     eb0:	a0450001 	sb	a1,1(v0)
     eb4:	24050030 	li	a1,48
     eb8:	00a42021 	addu	a0,a1,a0
     ebc:	03e00008 	jr	ra
     ec0:	a0641440 	sb	a0,5184(v1)
     ec4:	00042102 	srl	a0,a0,0x4
     ec8:	24070037 	li	a3,55
     ecc:	3086000f 	andi	a2,a0,0xf
     ed0:	00e52821 	addu	a1,a3,a1
     ed4:	28c7000a 	slti	a3,a2,10
     ed8:	14e0ffcd 	bnez	a3,0xe10
     edc:	a0450007 	sb	a1,7(v0)
     ee0:	00042102 	srl	a0,a0,0x4
     ee4:	24070037 	li	a3,55
     ee8:	3085000f 	andi	a1,a0,0xf
     eec:	00e63021 	addu	a2,a3,a2
     ef0:	28a7000a 	slti	a3,a1,10
     ef4:	14e0ffcd 	bnez	a3,0xe2c
     ef8:	a0460006 	sb	a2,6(v0)
     efc:	00042102 	srl	a0,a0,0x4
     f00:	24070037 	li	a3,55
     f04:	3086000f 	andi	a2,a0,0xf
     f08:	00e52821 	addu	a1,a3,a1
     f0c:	28c7000a 	slti	a3,a2,10
     f10:	14e0ffcd 	bnez	a3,0xe48
     f14:	a0450005 	sb	a1,5(v0)
     f18:	00042102 	srl	a0,a0,0x4
     f1c:	24070037 	li	a3,55
     f20:	3085000f 	andi	a1,a0,0xf
     f24:	00e63021 	addu	a2,a3,a2
     f28:	28a7000a 	slti	a3,a1,10
     f2c:	14e0ffcd 	bnez	a3,0xe64
     f30:	a0460004 	sb	a2,4(v0)
     f34:	00042102 	srl	a0,a0,0x4
     f38:	24070037 	li	a3,55
     f3c:	3086000f 	andi	a2,a0,0xf
     f40:	00e52821 	addu	a1,a3,a1
     f44:	28c7000a 	slti	a3,a2,10
     f48:	14e0ffcd 	bnez	a3,0xe80
     f4c:	a0450003 	sb	a1,3(v0)
     f50:	00042102 	srl	a0,a0,0x4
     f54:	24070037 	li	a3,55
     f58:	3085000f 	andi	a1,a0,0xf
     f5c:	00e63021 	addu	a2,a3,a2
     f60:	28a7000a 	slti	a3,a1,10
     f64:	14e0ffcd 	bnez	a3,0xe9c
     f68:	a0460002 	sb	a2,2(v0)
     f6c:	24060037 	li	a2,55
     f70:	00042102 	srl	a0,a0,0x4
     f74:	00c52821 	addu	a1,a2,a1
     f78:	2886000a 	slti	a2,a0,10
     f7c:	14c0ffcd 	bnez	a2,0xeb4
     f80:	a0450001 	sb	a1,1(v0)
     f84:	24050037 	li	a1,55
     f88:	00a42021 	addu	a0,a1,a0
     f8c:	03e00008 	jr	ra
     f90:	a0641440 	sb	a0,5184(v1)
     f94:	00001021 	move	v0,zero
     f98:	00004021 	move	t0,zero
     f9c:	3c052000 	lui	a1,0x2000
     fa0:	2409000a 	li	t1,10
     fa4:	240a000d 	li	t2,13
     fa8:	240b0008 	li	t3,8
     fac:	240c0020 	li	t4,32
     fb0:	8ca30020 	lw	v1,32(a1)
     fb4:	00000000 	nop
     fb8:	30630001 	andi	v1,v1,0x1
     fbc:	1060fffc 	beqz	v1,0xfb0
     fc0:	00000000 	nop
     fc4:	8ca60000 	lw	a2,0(a1)
     fc8:	00000000 	nop
     fcc:	10c90019 	beq	a2,t1,0x1034
     fd0:	3c032000 	lui	v1,0x2000
     fd4:	10ca0017 	beq	a2,t2,0x1034
     fd8:	24c7ffd0 	addiu	a3,a2,-48
     fdc:	2ce3000a 	sltiu	v1,a3,10
     fe0:	14600007 	bnez	v1,0x1000
     fe4:	3c032000 	lui	v1,0x2000
     fe8:	24c3ffbf 	addiu	v1,a2,-65
     fec:	2c63001a 	sltiu	v1,v1,26
     ff0:	1060001f 	beqz	v1,0x1070
     ff4:	24c3ff9f 	addiu	v1,a2,-97
     ff8:	24c7ffc9 	addiu	a3,a2,-55
     ffc:	3c032000 	lui	v1,0x2000
    1000:	8c640020 	lw	a0,32(v1)
    1004:	00000000 	nop
    1008:	30840002 	andi	a0,a0,0x2
    100c:	1080fffb 	beqz	a0,0xffc
    1010:	00000000 	nop
    1014:	00021100 	sll	v0,v0,0x4
    1018:	ac660000 	sw	a2,0(v1)
    101c:	00e21021 	addu	v0,a3,v0
    1020:	25080001 	addiu	t0,t0,1
    1024:	29030010 	slti	v1,t0,16
    1028:	1460ffe1 	bnez	v1,0xfb0
    102c:	00000000 	nop
    1030:	3c032000 	lui	v1,0x2000
    1034:	8c640020 	lw	a0,32(v1)
    1038:	00000000 	nop
    103c:	30840002 	andi	a0,a0,0x2
    1040:	1080fffb 	beqz	a0,0x1030
    1044:	2404000d 	li	a0,13
    1048:	ac640000 	sw	a0,0(v1)
    104c:	3c032000 	lui	v1,0x2000
    1050:	8c640020 	lw	a0,32(v1)
    1054:	00000000 	nop
    1058:	30840002 	andi	a0,a0,0x2
    105c:	1080fffc 	beqz	a0,0x1050
    1060:	2404000a 	li	a0,10
    1064:	ac640000 	sw	a0,0(v1)
    1068:	03e00008 	jr	ra
    106c:	00000000 	nop
    1070:	2c63001a 	sltiu	v1,v1,26
    1074:	1460ffe1 	bnez	v1,0xffc
    1078:	24c7ffa9 	addiu	a3,a2,-87
    107c:	14cbffdf 	bne	a2,t3,0xffc
    1080:	00c03821 	move	a3,a2
    1084:	11000016 	beqz	t0,0x10e0
    1088:	3c032000 	lui	v1,0x2000
    108c:	2508ffff 	addiu	t0,t0,-1
    1090:	8c640020 	lw	a0,32(v1)
    1094:	00000000 	nop
    1098:	30840002 	andi	a0,a0,0x2
    109c:	1080fffc 	beqz	a0,0x1090
    10a0:	00000000 	nop
    10a4:	ac6b0000 	sw	t3,0(v1)
    10a8:	3c032000 	lui	v1,0x2000
    10ac:	8c640020 	lw	a0,32(v1)
    10b0:	00000000 	nop
    10b4:	30840002 	andi	a0,a0,0x2
    10b8:	1080fffc 	beqz	a0,0x10ac
    10bc:	00000000 	nop
    10c0:	ac6c0000 	sw	t4,0(v1)
    10c4:	3c032000 	lui	v1,0x2000
    10c8:	8c640020 	lw	a0,32(v1)
    10cc:	00000000 	nop
    10d0:	30840002 	andi	a0,a0,0x2
    10d4:	1080fffc 	beqz	a0,0x10c8
    10d8:	00000000 	nop
    10dc:	ac6b0000 	sw	t3,0(v1)
    10e0:	08000409 	j	0x1024
    10e4:	00021102 	srl	v0,v0,0x4
