
test.axf:     file format elf32-bigmips


Disassembly of section .text:

00000000 <.text>:
       0:	3c1c0001 	lui	gp,0x1
       4:	279c56f0 	addiu	gp,gp,22256
       8:	3c050001 	lui	a1,0x1
       c:	24a5d784 	addiu	a1,a1,-10364
      10:	3c040002 	lui	a0,0x2
      14:	2484e1d0 	addiu	a0,a0,-7728
      18:	3c1d0002 	lui	sp,0x2
      1c:	27bde1b8 	addiu	sp,sp,-7752
      20:	aca00000 	sw	zero,0(a1)
      24:	00a4182a 	slt	v1,a1,a0
      28:	1460fffd 	bnez	v1,0x20
      2c:	24a50004 	addiu	a1,a1,4
      30:	0c000844 	jal	0x2110
      34:	00000000 	nop
      38:	0800000e 	j	0x38
      3c:	23bdff98 	addi	sp,sp,-104
      40:	afa10010 	sw	at,16(sp)
      44:	afa20014 	sw	v0,20(sp)
      48:	afa30018 	sw	v1,24(sp)
      4c:	afa4001c 	sw	a0,28(sp)
      50:	afa50020 	sw	a1,32(sp)
      54:	afa60024 	sw	a2,36(sp)
      58:	afa70028 	sw	a3,40(sp)
      5c:	afa8002c 	sw	t0,44(sp)
      60:	afa90030 	sw	t1,48(sp)
      64:	afaa0034 	sw	t2,52(sp)
      68:	afab0038 	sw	t3,56(sp)
      6c:	afac003c 	sw	t4,60(sp)
      70:	afad0040 	sw	t5,64(sp)
      74:	afae0044 	sw	t6,68(sp)
      78:	afaf0048 	sw	t7,72(sp)
      7c:	afb8004c 	sw	t8,76(sp)
      80:	afb90050 	sw	t9,80(sp)
      84:	afbf0054 	sw	ra,84(sp)
      88:	401a7000 	mfc0	k0,c0_epc
      8c:	235afffc 	addi	k0,k0,-4
      90:	afba0058 	sw	k0,88(sp)
      94:	0000d810 	mfhi	k1
      98:	afbb005c 	sw	k1,92(sp)
      9c:	0000d812 	mflo	k1
      a0:	afbb0060 	sw	k1,96(sp)
      a4:	3c062000 	lui	a2,0x2000
      a8:	8cc40020 	lw	a0,32(a2)
      ac:	8cc60010 	lw	a2,16(a2)
      b0:	00862024 	and	a0,a0,a2
      b4:	0c000790 	jal	0x1e40
      b8:	23a50000 	addi	a1,sp,0
      bc:	8fa10010 	lw	at,16(sp)
      c0:	8fa20014 	lw	v0,20(sp)
      c4:	8fa30018 	lw	v1,24(sp)
      c8:	8fa4001c 	lw	a0,28(sp)
      cc:	8fa50020 	lw	a1,32(sp)
      d0:	8fa60024 	lw	a2,36(sp)
      d4:	8fa70028 	lw	a3,40(sp)
      d8:	8fa8002c 	lw	t0,44(sp)
      dc:	8fa90030 	lw	t1,48(sp)
      e0:	8faa0034 	lw	t2,52(sp)
      e4:	8fab0038 	lw	t3,56(sp)
      e8:	8fac003c 	lw	t4,60(sp)
      ec:	8fad0040 	lw	t5,64(sp)
      f0:	8fae0044 	lw	t6,68(sp)
      f4:	8faf0048 	lw	t7,72(sp)
      f8:	8fb8004c 	lw	t8,76(sp)
      fc:	8fb90050 	lw	t9,80(sp)
     100:	8fbf0054 	lw	ra,84(sp)
     104:	8fba0058 	lw	k0,88(sp)
     108:	8fbb005c 	lw	k1,92(sp)
     10c:	03600011 	mthi	k1
     110:	8fbb0060 	lw	k1,96(sp)
     114:	03600013 	mtlo	k1
     118:	23bd0068 	addi	sp,sp,104
     11c:	341b0001 	li	k1,0x1
     120:	03400008 	jr	k0
     124:	409b6000 	mtc0	k1,c0_sr
     128:	40026000 	mfc0	v0,c0_sr
     12c:	03e00008 	jr	ra
     130:	40846000 	mtc0	a0,c0_sr
	...
     13c:	3c050000 	lui	a1,0x0
     140:	24a50168 	addiu	a1,a1,360
     144:	8ca60000 	lw	a2,0(a1)
     148:	ac06003c 	sw	a2,60(zero)
     14c:	8ca60004 	lw	a2,4(a1)
     150:	ac060040 	sw	a2,64(zero)
     154:	8ca60008 	lw	a2,8(a1)
     158:	ac060044 	sw	a2,68(zero)
     15c:	8ca6000c 	lw	a2,12(a1)
     160:	03e00008 	jr	ra
     164:	ac060048 	sw	a2,72(zero)
     168:	3c1a1000 	lui	k0,0x1000
     16c:	375a003c 	ori	k0,k0,0x3c
     170:	03400008 	jr	k0
     174:	00000000 	nop
     178:	ac900000 	sw	s0,0(a0)
     17c:	ac910004 	sw	s1,4(a0)
     180:	ac920008 	sw	s2,8(a0)
     184:	ac93000c 	sw	s3,12(a0)
     188:	ac940010 	sw	s4,16(a0)
     18c:	ac950014 	sw	s5,20(a0)
     190:	ac960018 	sw	s6,24(a0)
     194:	ac97001c 	sw	s7,28(a0)
     198:	ac9e0020 	sw	s8,32(a0)
     19c:	ac9c0024 	sw	gp,36(a0)
     1a0:	ac9d0028 	sw	sp,40(a0)
     1a4:	ac9f002c 	sw	ra,44(a0)
     1a8:	03e00008 	jr	ra
     1ac:	34020000 	li	v0,0x0
     1b0:	8c900000 	lw	s0,0(a0)
     1b4:	8c910004 	lw	s1,4(a0)
     1b8:	8c920008 	lw	s2,8(a0)
     1bc:	8c93000c 	lw	s3,12(a0)
     1c0:	8c940010 	lw	s4,16(a0)
     1c4:	8c950014 	lw	s5,20(a0)
     1c8:	8c960018 	lw	s6,24(a0)
     1cc:	8c97001c 	lw	s7,28(a0)
     1d0:	8c9e0020 	lw	s8,32(a0)
     1d4:	8c9c0024 	lw	gp,36(a0)
     1d8:	8c9d0028 	lw	sp,40(a0)
     1dc:	8c9f002c 	lw	ra,44(a0)
     1e0:	03e00008 	jr	ra
     1e4:	34a20000 	ori	v0,a1,0x0
     1e8:	00850019 	multu	a0,a1
     1ec:	00001012 	mflo	v0
     1f0:	00002010 	mfhi	a0
     1f4:	03e00008 	jr	ra
     1f8:	acc40000 	sw	a0,0(a2)
     1fc:	0000000c 	syscall
     200:	03e00008 	jr	ra
     204:	00000000 	nop
     208:	8f8280b4 	lw	v0,-32588(gp)
     20c:	00000000 	nop
     210:	24420001 	addiu	v0,v0,1
     214:	af8280b4 	sw	v0,-32588(gp)
     218:	08000082 	j	0x208
     21c:	00000000 	nop
     220:	8c820000 	lw	v0,0(a0)
     224:	27bdffe8 	addiu	sp,sp,-24
     228:	afb00010 	sw	s0,16(sp)
     22c:	afbf0014 	sw	ra,20(sp)
     230:	10400022 	beqz	v0,0x2bc
     234:	00a08021 	move	s0,a1
     238:	8ca50068 	lw	a1,104(a1)
     23c:	8c430068 	lw	v1,104(v0)
     240:	00000000 	nop
     244:	0065182b 	sltu	v1,v1,a1
     248:	10600009 	beqz	v1,0x270
     24c:	00000000 	nop
     250:	080000b0 	j	0x2c0
     254:	ae020090 	sw	v0,144(s0)
     258:	8c640068 	lw	a0,104(v1)
     25c:	00000000 	nop
     260:	0085202b 	sltu	a0,a0,a1
     264:	14800013 	bnez	a0,0x2b4
     268:	00000000 	nop
     26c:	00601021 	move	v0,v1
     270:	8c430090 	lw	v1,144(v0)
     274:	00000000 	nop
     278:	1460fff7 	bnez	v1,0x258
     27c:	00000000 	nop
     280:	ae030090 	sw	v1,144(s0)
     284:	ae020094 	sw	v0,148(s0)
     288:	ac500090 	sw	s0,144(v0)
     28c:	8f8280a0 	lw	v0,-32608(gp)
     290:	00000000 	nop
     294:	10400015 	beqz	v0,0x2ec
     298:	3c040001 	lui	a0,0x1
     29c:	8fbf0014 	lw	ra,20(sp)
     2a0:	24020001 	li	v0,1
     2a4:	ae020004 	sw	v0,4(s0)
     2a8:	8fb00010 	lw	s0,16(sp)
     2ac:	03e00008 	jr	ra
     2b0:	27bd0018 	addiu	sp,sp,24
     2b4:	080000a0 	j	0x280
     2b8:	ac700094 	sw	s0,148(v1)
     2bc:	ae020090 	sw	v0,144(s0)
     2c0:	ae000094 	sw	zero,148(s0)
     2c4:	8c820000 	lw	v0,0(a0)
     2c8:	00000000 	nop
     2cc:	10400002 	beqz	v0,0x2d8
     2d0:	00000000 	nop
     2d4:	ac500094 	sw	s0,148(v0)
     2d8:	ac900000 	sw	s0,0(a0)
     2dc:	8f8280a0 	lw	v0,-32608(gp)
     2e0:	00000000 	nop
     2e4:	1440ffed 	bnez	v0,0x29c
     2e8:	3c040001 	lui	a0,0x1
     2ec:	3c050001 	lui	a1,0x1
     2f0:	2484c884 	addiu	a0,a0,-14204
     2f4:	24a5c898 	addiu	a1,a1,-14184
     2f8:	0c000dc6 	jal	0x3718
     2fc:	24060138 	li	a2,312
     300:	8fbf0014 	lw	ra,20(sp)
     304:	24020001 	li	v0,1
     308:	ae020004 	sw	v0,4(s0)
     30c:	8fb00010 	lw	s0,16(sp)
     310:	03e00008 	jr	ra
     314:	27bd0018 	addiu	sp,sp,24
     318:	3c034321 	lui	v1,0x4321
     31c:	8ca200a0 	lw	v0,160(a1)
     320:	27bdffe0 	addiu	sp,sp,-32
     324:	3463abcd 	ori	v1,v1,0xabcd
     328:	afb10018 	sw	s1,24(sp)
     32c:	afb00014 	sw	s0,20(sp)
     330:	afbf001c 	sw	ra,28(sp)
     334:	00a08021 	move	s0,a1
     338:	10430007 	beq	v0,v1,0x358
     33c:	00808821 	move	s1,a0
     340:	3c040001 	lui	a0,0x1
     344:	3c050001 	lui	a1,0x1
     348:	2484c884 	addiu	a0,a0,-14204
     34c:	24a5c898 	addiu	a1,a1,-14184
     350:	0c000dc6 	jal	0x3718
     354:	24060141 	li	a2,321
     358:	8e020094 	lw	v0,148(s0)
     35c:	00000000 	nop
     360:	10400012 	beqz	v0,0x3ac
     364:	00000000 	nop
     368:	8e030090 	lw	v1,144(s0)
     36c:	00000000 	nop
     370:	ac430090 	sw	v1,144(v0)
     374:	8e020090 	lw	v0,144(s0)
     378:	00000000 	nop
     37c:	10400004 	beqz	v0,0x390
     380:	00000000 	nop
     384:	8e030094 	lw	v1,148(s0)
     388:	00000000 	nop
     38c:	ac430094 	sw	v1,148(v0)
     390:	8fbf001c 	lw	ra,28(sp)
     394:	ae000090 	sw	zero,144(s0)
     398:	ae000094 	sw	zero,148(s0)
     39c:	8fb10018 	lw	s1,24(sp)
     3a0:	8fb00014 	lw	s0,20(sp)
     3a4:	03e00008 	jr	ra
     3a8:	27bd0020 	addiu	sp,sp,32
     3ac:	8e020090 	lw	v0,144(s0)
     3b0:	080000dd 	j	0x374
     3b4:	ae220000 	sw	v0,0(s1)
     3b8:	27bdffe8 	addiu	sp,sp,-24
     3bc:	afbf0014 	sw	ra,20(sp)
     3c0:	0c00005e 	jal	0x178
     3c4:	00000000 	nop
     3c8:	8fbf0014 	lw	ra,20(sp)
     3cc:	00000000 	nop
     3d0:	03e00008 	jr	ra
     3d4:	27bd0018 	addiu	sp,sp,24
     3d8:	8f828094 	lw	v0,-32620(gp)
     3dc:	27bdffe8 	addiu	sp,sp,-24
     3e0:	afbf0014 	sw	ra,20(sp)
     3e4:	10400040 	beqz	v0,0x4e8
     3e8:	afb00010 	sw	s0,16(sp)
     3ec:	8f828098 	lw	v0,-32616(gp)
     3f0:	00000000 	nop
     3f4:	1440003c 	bnez	v0,0x4e8
     3f8:	00000000 	nop
     3fc:	8f8280a0 	lw	v0,-32608(gp)
     400:	00000000 	nop
     404:	1040003c 	beqz	v0,0x4f8
     408:	af80809c 	sw	zero,-32612(gp)
     40c:	8c43000c 	lw	v1,12(v0)
     410:	2405ffff 	li	a1,-1
     414:	1065000b 	beq	v1,a1,0x444
     418:	00000000 	nop
     41c:	10600009 	beqz	v1,0x444
     420:	00000000 	nop
     424:	8c420090 	lw	v0,144(v0)
     428:	00000000 	nop
     42c:	10400032 	beqz	v0,0x4f8
     430:	00000000 	nop
     434:	8c43000c 	lw	v1,12(v0)
     438:	00000000 	nop
     43c:	1465fff7 	bne	v1,a1,0x41c
     440:	00000000 	nop
     444:	8f9080a4 	lw	s0,-32604(gp)
     448:	00000000 	nop
     44c:	1200002e 	beqz	s0,0x508
     450:	00000000 	nop
     454:	8e030004 	lw	v1,4(s0)
     458:	00000000 	nop
     45c:	1060000b 	beqz	v1,0x48c
     460:	00000000 	nop
     464:	8e060068 	lw	a2,104(s0)
     468:	8c450068 	lw	a1,104(v0)
     46c:	00000000 	nop
     470:	00c5382b 	sltu	a3,a2,a1
     474:	14e00005 	bnez	a3,0x48c
     478:	00000000 	nop
     47c:	1080001e 	beqz	a0,0x4f8
     480:	00000000 	nop
     484:	14c5001c 	bne	a2,a1,0x4f8
     488:	00000000 	nop
     48c:	af8280a4 	sw	v0,-32604(gp)
     490:	8e0400a0 	lw	a0,160(s0)
     494:	3c024321 	lui	v0,0x4321
     498:	3442abcd 	ori	v0,v0,0xabcd
     49c:	10820007 	beq	a0,v0,0x4bc
     4a0:	3c040001 	lui	a0,0x1
     4a4:	3c050001 	lui	a1,0x1
     4a8:	2484c884 	addiu	a0,a0,-14204
     4ac:	24a5c898 	addiu	a1,a1,-14184
     4b0:	0c000dc6 	jal	0x3718
     4b4:	240601a4 	li	a2,420
     4b8:	8e030004 	lw	v1,4(s0)
     4bc:	24020002 	li	v0,2
     4c0:	10620026 	beq	v1,v0,0x55c
     4c4:	00000000 	nop
     4c8:	0c00005e 	jal	0x178
     4cc:	26040010 	addiu	a0,s0,16
     4d0:	1040000e 	beqz	v0,0x50c
     4d4:	00000000 	nop
     4d8:	8fbf0014 	lw	ra,20(sp)
     4dc:	8fb00010 	lw	s0,16(sp)
     4e0:	03e00008 	jr	ra
     4e4:	27bd0018 	addiu	sp,sp,24
     4e8:	8f82809c 	lw	v0,-32612(gp)
     4ec:	24840002 	addiu	a0,a0,2
     4f0:	00442025 	or	a0,v0,a0
     4f4:	af84809c 	sw	a0,-32612(gp)
     4f8:	8fbf0014 	lw	ra,20(sp)
     4fc:	8fb00010 	lw	s0,16(sp)
     500:	03e00008 	jr	ra
     504:	27bd0018 	addiu	sp,sp,24
     508:	af8280a4 	sw	v0,-32604(gp)
     50c:	8f9080a4 	lw	s0,-32604(gp)
     510:	24020001 	li	v0,1
     514:	8e030004 	lw	v1,4(s0)
     518:	00000000 	nop
     51c:	10620006 	beq	v1,v0,0x538
     520:	3c050001 	lui	a1,0x1
     524:	3c040001 	lui	a0,0x1
     528:	2484c884 	addiu	a0,a0,-14204
     52c:	24a5c898 	addiu	a1,a1,-14184
     530:	0c000dc6 	jal	0x3718
     534:	240601ae 	li	a2,430
     538:	278480a0 	addiu	a0,gp,-32608
     53c:	0c0000c6 	jal	0x318
     540:	02002821 	move	a1,s0
     544:	24020002 	li	v0,2
     548:	ae020004 	sw	v0,4(s0)
     54c:	ae000008 	sw	zero,8(s0)
     550:	26040010 	addiu	a0,s0,16
     554:	0c00006c 	jal	0x1b0
     558:	24050001 	li	a1,1
     55c:	278480a0 	addiu	a0,gp,-32608
     560:	0c000088 	jal	0x220
     564:	02002821 	move	a1,s0
     568:	08000132 	j	0x4c8
     56c:	00000000 	nop
     570:	03e00008 	jr	ra
     574:	ac85001c 	sw	a1,28(a0)
     578:	2c820008 	sltiu	v0,a0,8
     57c:	10400005 	beqz	v0,0x594
     580:	3c020002 	lui	v0,0x2
     584:	00042080 	sll	a0,a0,0x2
     588:	2442d880 	addiu	v0,v0,-10112
     58c:	00822021 	addu	a0,a0,v0
     590:	ac850000 	sw	a1,0(a0)
     594:	03e00008 	jr	ra
     598:	00000000 	nop
     59c:	8f8280a4 	lw	v0,-32604(gp)
     5a0:	03e00008 	jr	ra
     5a4:	00000000 	nop
     5a8:	8f8280d0 	lw	v0,-32560(gp)
     5ac:	03e00008 	jr	ra
     5b0:	00000000 	nop
     5b4:	2ca20004 	sltiu	v0,a1,4
     5b8:	10400004 	beqz	v0,0x5cc
     5bc:	24a5001c 	addiu	a1,a1,28
     5c0:	00052880 	sll	a1,a1,0x2
     5c4:	00852021 	addu	a0,a0,a1
     5c8:	ac860000 	sw	a2,0(a0)
     5cc:	03e00008 	jr	ra
     5d0:	00000000 	nop
     5d4:	2ca20004 	sltiu	v0,a1,4
     5d8:	10400006 	beqz	v0,0x5f4
     5dc:	24a5001c 	addiu	a1,a1,28
     5e0:	00052880 	sll	a1,a1,0x2
     5e4:	00852021 	addu	a0,a0,a1
     5e8:	8c820000 	lw	v0,0(a0)
     5ec:	03e00008 	jr	ra
     5f0:	00000000 	nop
     5f4:	03e00008 	jr	ra
     5f8:	00001021 	move	v0,zero
     5fc:	8c820068 	lw	v0,104(a0)
     600:	03e00008 	jr	ra
     604:	00000000 	nop
     608:	27bdffe0 	addiu	sp,sp,-32
     60c:	afb00018 	sw	s0,24(sp)
     610:	00808021 	move	s0,a0
     614:	afa50010 	sw	a1,16(sp)
     618:	afbf001c 	sw	ra,28(sp)
     61c:	0c00004a 	jal	0x128
     620:	00002021 	move	a0,zero
     624:	8fa50010 	lw	a1,16(sp)
     628:	8e040004 	lw	a0,4(s0)
     62c:	24030001 	li	v1,1
     630:	10830006 	beq	a0,v1,0x64c
     634:	ae050068 	sw	a1,104(s0)
     638:	8fbf001c 	lw	ra,28(sp)
     63c:	8fb00018 	lw	s0,24(sp)
     640:	00402021 	move	a0,v0
     644:	0800004a 	j	0x128
     648:	27bd0020 	addiu	sp,sp,32
     64c:	02002821 	move	a1,s0
     650:	278480a0 	addiu	a0,gp,-32608
     654:	0c0000c6 	jal	0x318
     658:	afa20010 	sw	v0,16(sp)
     65c:	02002821 	move	a1,s0
     660:	0c000088 	jal	0x220
     664:	278480a0 	addiu	a0,gp,-32608
     668:	0c0000f6 	jal	0x3d8
     66c:	00002021 	move	a0,zero
     670:	8fa20010 	lw	v0,16(sp)
     674:	8fbf001c 	lw	ra,28(sp)
     678:	8fb00018 	lw	s0,24(sp)
     67c:	00402021 	move	a0,v0
     680:	0800004a 	j	0x128
     684:	27bd0020 	addiu	sp,sp,32
     688:	ac850088 	sw	a1,136(a0)
     68c:	03e00008 	jr	ra
     690:	ac86008c 	sw	a2,140(a0)
     694:	27bdffe0 	addiu	sp,sp,-32
     698:	8f8280d0 	lw	v0,-32560(gp)
     69c:	afb00014 	sw	s0,20(sp)
     6a0:	8f9080c8 	lw	s0,-32568(gp)
     6a4:	24420001 	addiu	v0,v0,1
     6a8:	afbf001c 	sw	ra,28(sp)
     6ac:	afb10018 	sw	s1,24(sp)
     6b0:	1200002e 	beqz	s0,0x76c
     6b4:	af8280d0 	sw	v0,-32560(gp)
     6b8:	8e03006c 	lw	v1,108(s0)
     6bc:	00000000 	nop
     6c0:	00431023 	subu	v0,v0,v1
     6c4:	04400029 	bltz	v0,0x76c
     6c8:	2411ffff 	li	s1,-1
     6cc:	080001d4 	j	0x750
     6d0:	00000000 	nop
     6d4:	8e030098 	lw	v1,152(s0)
     6d8:	00000000 	nop
     6dc:	ac430098 	sw	v1,152(v0)
     6e0:	8e030098 	lw	v1,152(s0)
     6e4:	00000000 	nop
     6e8:	10600002 	beqz	v1,0x6f4
     6ec:	02002821 	move	a1,s0
     6f0:	ac62009c 	sw	v0,156(v1)
     6f4:	8e040080 	lw	a0,128(s0)
     6f8:	ae000098 	sw	zero,152(s0)
     6fc:	8c820008 	lw	v0,8(a0)
     700:	ae00009c 	sw	zero,156(s0)
     704:	24420001 	addiu	v0,v0,1
     708:	ac820008 	sw	v0,8(a0)
     70c:	24840004 	addiu	a0,a0,4
     710:	ae000080 	sw	zero,128(s0)
     714:	0c0000c6 	jal	0x318
     718:	ae110084 	sw	s1,132(s0)
     71c:	02002821 	move	a1,s0
     720:	0c000088 	jal	0x220
     724:	278480a0 	addiu	a0,gp,-32608
     728:	8f9080c8 	lw	s0,-32568(gp)
     72c:	00000000 	nop
     730:	1200000e 	beqz	s0,0x76c
     734:	00000000 	nop
     738:	8e02006c 	lw	v0,108(s0)
     73c:	8f8380d0 	lw	v1,-32560(gp)
     740:	00000000 	nop
     744:	00621023 	subu	v0,v1,v0
     748:	04400008 	bltz	v0,0x76c
     74c:	00000000 	nop
     750:	8e02009c 	lw	v0,156(s0)
     754:	00000000 	nop
     758:	1440ffde 	bnez	v0,0x6d4
     75c:	00000000 	nop
     760:	8e030098 	lw	v1,152(s0)
     764:	080001ba 	j	0x6e8
     768:	af8380c8 	sw	v1,-32568(gp)
     76c:	8fbf001c 	lw	ra,28(sp)
     770:	8fb10018 	lw	s1,24(sp)
     774:	8fb00014 	lw	s0,20(sp)
     778:	24040001 	li	a0,1
     77c:	080000f6 	j	0x3d8
     780:	27bd0020 	addiu	sp,sp,32
     784:	3c022000 	lui	v0,0x2000
     788:	8c430020 	lw	v1,32(v0)
     78c:	8c450010 	lw	a1,16(v0)
     790:	3063000c 	andi	v1,v1,0xc
     794:	34a5000c 	ori	a1,a1,0xc
     798:	00031827 	nor	v1,zero,v1
     79c:	00651824 	and	v1,v1,a1
     7a0:	ac430010 	sw	v1,16(v0)
     7a4:	080001a5 	j	0x694
     7a8:	00000000 	nop
     7ac:	27bdffd8 	addiu	sp,sp,-40
     7b0:	afb10018 	sw	s1,24(sp)
     7b4:	afb00014 	sw	s0,20(sp)
     7b8:	afbf0024 	sw	ra,36(sp)
     7bc:	afb30020 	sw	s3,32(sp)
     7c0:	afb2001c 	sw	s2,28(sp)
     7c4:	00808021 	move	s0,a0
     7c8:	10800052 	beqz	a0,0x914
     7cc:	00a08821 	move	s1,a1
     7d0:	8f828098 	lw	v0,-32616(gp)
     7d4:	00000000 	nop
     7d8:	14400045 	bnez	v0,0x8f0
     7dc:	3c040001 	lui	a0,0x1
     7e0:	0c00004a 	jal	0x128
     7e4:	00002021 	move	a0,zero
     7e8:	8e030008 	lw	v1,8(s0)
     7ec:	00409821 	move	s3,v0
     7f0:	2462ffff 	addiu	v0,v1,-1
     7f4:	0440000c 	bltz	v0,0x828
     7f8:	ae020008 	sw	v0,8(s0)
     7fc:	00008021 	move	s0,zero
     800:	0c00004a 	jal	0x128
     804:	02602021 	move	a0,s3
     808:	8fbf0024 	lw	ra,36(sp)
     80c:	02001021 	move	v0,s0
     810:	8fb30020 	lw	s3,32(sp)
     814:	8fb2001c 	lw	s2,28(sp)
     818:	8fb10018 	lw	s1,24(sp)
     81c:	8fb00014 	lw	s0,20(sp)
     820:	03e00008 	jr	ra
     824:	27bd0028 	addiu	sp,sp,40
     828:	12200058 	beqz	s1,0x98c
     82c:	00000000 	nop
     830:	8f9280a4 	lw	s2,-32604(gp)
     834:	00000000 	nop
     838:	12400045 	beqz	s2,0x950
     83c:	3c040001 	lui	a0,0x1
     840:	8f8280d0 	lw	v0,-32560(gp)
     844:	ae500080 	sw	s0,128(s2)
     848:	02221021 	addu	v0,s1,v0
     84c:	ae42006c 	sw	v0,108(s2)
     850:	26040004 	addiu	a0,s0,4
     854:	0c000088 	jal	0x220
     858:	02402821 	move	a1,s2
     85c:	2402ffff 	li	v0,-1
     860:	1222001a 	beq	s1,v0,0x8cc
     864:	ae400004 	sw	zero,4(s2)
     868:	8f8380c8 	lw	v1,-32568(gp)
     86c:	00000000 	nop
     870:	1060003e 	beqz	v1,0x96c
     874:	00000000 	nop
     878:	8e45006c 	lw	a1,108(s2)
     87c:	8c62006c 	lw	v0,108(v1)
     880:	00000000 	nop
     884:	00a21023 	subu	v0,a1,v0
     888:	1c400009 	bgtz	v0,0x8b0
     88c:	00000000 	nop
     890:	0800025f 	j	0x97c
     894:	ae40009c 	sw	zero,156(s2)
     898:	8c44006c 	lw	a0,108(v0)
     89c:	00000000 	nop
     8a0:	00a42023 	subu	a0,a1,a0
     8a4:	18800019 	blez	a0,0x90c
     8a8:	00000000 	nop
     8ac:	00401821 	move	v1,v0
     8b0:	8c620098 	lw	v0,152(v1)
     8b4:	00000000 	nop
     8b8:	1440fff7 	bnez	v0,0x898
     8bc:	00000000 	nop
     8c0:	ae420098 	sw	v0,152(s2)
     8c4:	ae43009c 	sw	v1,156(s2)
     8c8:	ac720098 	sw	s2,152(v1)
     8cc:	8f8280a0 	lw	v0,-32608(gp)
     8d0:	00000000 	nop
     8d4:	10400017 	beqz	v0,0x934
     8d8:	3c040001 	lui	a0,0x1
     8dc:	0c0000f6 	jal	0x3d8
     8e0:	00002021 	move	a0,zero
     8e4:	8e500084 	lw	s0,132(s2)
     8e8:	08000200 	j	0x800
     8ec:	00000000 	nop
     8f0:	3c050001 	lui	a1,0x1
     8f4:	2484c884 	addiu	a0,a0,-14204
     8f8:	24a5c898 	addiu	a1,a1,-14184
     8fc:	0c000dc6 	jal	0x3718
     900:	240602c6 	li	a2,710
     904:	080001f8 	j	0x7e0
     908:	00000000 	nop
     90c:	08000230 	j	0x8c0
     910:	ac52009c 	sw	s2,156(v0)
     914:	3c040001 	lui	a0,0x1
     918:	3c050001 	lui	a1,0x1
     91c:	2484c884 	addiu	a0,a0,-14204
     920:	24a5c898 	addiu	a1,a1,-14184
     924:	0c000dc6 	jal	0x3718
     928:	240602c5 	li	a2,709
     92c:	080001f4 	j	0x7d0
     930:	00000000 	nop
     934:	3c050001 	lui	a1,0x1
     938:	2484c884 	addiu	a0,a0,-14204
     93c:	24a5c898 	addiu	a1,a1,-14184
     940:	0c000dc6 	jal	0x3718
     944:	240602df 	li	a2,735
     948:	08000237 	j	0x8dc
     94c:	00000000 	nop
     950:	3c050001 	lui	a1,0x1
     954:	2484c884 	addiu	a0,a0,-14204
     958:	24a5c898 	addiu	a1,a1,-14184
     95c:	0c000dc6 	jal	0x3718
     960:	240602d5 	li	a2,725
     964:	08000210 	j	0x840
     968:	00000000 	nop
     96c:	ae400098 	sw	zero,152(s2)
     970:	ae40009c 	sw	zero,156(s2)
     974:	08000233 	j	0x8cc
     978:	af9280c8 	sw	s2,-32568(gp)
     97c:	ae430098 	sw	v1,152(s2)
     980:	ac72009c 	sw	s2,156(v1)
     984:	08000233 	j	0x8cc
     988:	af9280c8 	sw	s2,-32568(gp)
     98c:	ae030008 	sw	v1,8(s0)
     990:	0c00004a 	jal	0x128
     994:	02602021 	move	a0,s3
     998:	08000202 	j	0x808
     99c:	2410ffff 	li	s0,-1
     9a0:	00802821 	move	a1,a0
     9a4:	8f8480a8 	lw	a0,-32600(gp)
     9a8:	080001eb 	j	0x7ac
     9ac:	00000000 	nop
     9b0:	8f8280a4 	lw	v0,-32604(gp)
     9b4:	00000000 	nop
     9b8:	10820003 	beq	a0,v0,0x9c8
     9bc:	ac85000c 	sw	a1,12(a0)
     9c0:	03e00008 	jr	ra
     9c4:	00000000 	nop
     9c8:	10a0fffd 	beqz	a1,0x9c0
     9cc:	00000000 	nop
     9d0:	08000268 	j	0x9a0
     9d4:	24040001 	li	a0,1
     9d8:	27bdffd8 	addiu	sp,sp,-40
     9dc:	afb0001c 	sw	s0,28(sp)
     9e0:	afbf0024 	sw	ra,36(sp)
     9e4:	afb10020 	sw	s1,32(sp)
     9e8:	10800030 	beqz	a0,0xaac
     9ec:	00808021 	move	s0,a0
     9f0:	0c00004a 	jal	0x128
     9f4:	00002021 	move	a0,zero
     9f8:	8e030008 	lw	v1,8(s0)
     9fc:	00000000 	nop
     a00:	24630001 	addiu	v1,v1,1
     a04:	18600007 	blez	v1,0xa24
     a08:	ae030008 	sw	v1,8(s0)
     a0c:	8fbf0024 	lw	ra,36(sp)
     a10:	8fb10020 	lw	s1,32(sp)
     a14:	8fb0001c 	lw	s0,28(sp)
     a18:	00402021 	move	a0,v0
     a1c:	0800004a 	j	0x128
     a20:	27bd0028 	addiu	sp,sp,40
     a24:	8e110004 	lw	s1,4(s0)
     a28:	00000000 	nop
     a2c:	8e23009c 	lw	v1,156(s1)
     a30:	00000000 	nop
     a34:	10600025 	beqz	v1,0xacc
     a38:	00000000 	nop
     a3c:	8e240098 	lw	a0,152(s1)
     a40:	00000000 	nop
     a44:	ac640098 	sw	a0,152(v1)
     a48:	8e240098 	lw	a0,152(s1)
     a4c:	00000000 	nop
     a50:	10800002 	beqz	a0,0xa5c
     a54:	00000000 	nop
     a58:	ac83009c 	sw	v1,156(a0)
     a5c:	ae200098 	sw	zero,152(s1)
     a60:	ae20009c 	sw	zero,156(s1)
     a64:	26040004 	addiu	a0,s0,4
     a68:	02202821 	move	a1,s1
     a6c:	0c0000c6 	jal	0x318
     a70:	afa20010 	sw	v0,16(sp)
     a74:	02202821 	move	a1,s1
     a78:	0c000088 	jal	0x220
     a7c:	278480a0 	addiu	a0,gp,-32608
     a80:	ae200080 	sw	zero,128(s1)
     a84:	ae200084 	sw	zero,132(s1)
     a88:	0c0000f6 	jal	0x3d8
     a8c:	00002021 	move	a0,zero
     a90:	8fa20010 	lw	v0,16(sp)
     a94:	8fbf0024 	lw	ra,36(sp)
     a98:	8fb10020 	lw	s1,32(sp)
     a9c:	8fb0001c 	lw	s0,28(sp)
     aa0:	00402021 	move	a0,v0
     aa4:	0800004a 	j	0x128
     aa8:	27bd0028 	addiu	sp,sp,40
     aac:	3c040001 	lui	a0,0x1
     ab0:	3c050001 	lui	a1,0x1
     ab4:	2484c884 	addiu	a0,a0,-14204
     ab8:	24a5c898 	addiu	a1,a1,-14184
     abc:	0c000dc6 	jal	0x3718
     ac0:	240602ef 	li	a2,751
     ac4:	0800027c 	j	0x9f0
     ac8:	00000000 	nop
     acc:	8f8480c8 	lw	a0,-32568(gp)
     ad0:	00000000 	nop
     ad4:	1624ffe3 	bne	s1,a0,0xa64
     ad8:	00000000 	nop
     adc:	8e240098 	lw	a0,152(s1)
     ae0:	08000294 	j	0xa50
     ae4:	af8480c8 	sw	a0,-32568(gp)
     ae8:	27bdffd8 	addiu	sp,sp,-40
     aec:	afb00014 	sw	s0,20(sp)
     af0:	24b00007 	addiu	s0,a1,7
     af4:	afb2001c 	sw	s2,28(sp)
     af8:	afb10018 	sw	s1,24(sp)
     afc:	001080c2 	srl	s0,s0,0x3
     b00:	3c120002 	lui	s2,0x2
     b04:	00808821 	move	s1,a0
     b08:	afbf0024 	sw	ra,36(sp)
     b0c:	afb30020 	sw	s3,32(sp)
     b10:	26100001 	addiu	s0,s0,1
     b14:	12200041 	beqz	s1,0xc1c
     b18:	2652d880 	addiu	s2,s2,-10112
     b1c:	2e220008 	sltiu	v0,s1,8
     b20:	10400005 	beqz	v0,0xb38
     b24:	00000000 	nop
     b28:	00118880 	sll	s1,s1,0x2
     b2c:	02328821 	addu	s1,s1,s2
     b30:	8e310000 	lw	s1,0(s1)
     b34:	00000000 	nop
     b38:	8e240008 	lw	a0,8(s1)
     b3c:	0c0001eb 	jal	0x7ac
     b40:	2405ffff 	li	a1,-1
     b44:	8e22000c 	lw	v0,12(s1)
     b48:	00000000 	nop
     b4c:	8c440000 	lw	a0,0(v0)
     b50:	00000000 	nop
     b54:	8c830004 	lw	v1,4(a0)
     b58:	00000000 	nop
     b5c:	0070282a 	slt	a1,v1,s0
     b60:	10a0000f 	beqz	a1,0xba0
     b64:	00809821 	move	s3,a0
     b68:	14440005 	bne	v0,a0,0xb80
     b6c:	00000000 	nop
     b70:	080002fd 	j	0xbf4
     b74:	00000000 	nop
     b78:	1053001e 	beq	v0,s3,0xbf4
     b7c:	02602021 	move	a0,s3
     b80:	8c930000 	lw	s3,0(a0)
     b84:	00000000 	nop
     b88:	8e630004 	lw	v1,4(s3)
     b8c:	00000000 	nop
     b90:	0070282a 	slt	a1,v1,s0
     b94:	14a0fff8 	bnez	a1,0xb78
     b98:	00000000 	nop
     b9c:	00801021 	move	v0,a0
     ba0:	10700025 	beq	v1,s0,0xc38
     ba4:	00701823 	subu	v1,v1,s0
     ba8:	000320c0 	sll	a0,v1,0x3
     bac:	ae630004 	sw	v1,4(s3)
     bb0:	02649821 	addu	s3,s3,a0
     bb4:	ae700004 	sw	s0,4(s3)
     bb8:	8e240008 	lw	a0,8(s1)
     bbc:	ae22000c 	sw	v0,12(s1)
     bc0:	0c000276 	jal	0x9d8
     bc4:	ae710000 	sw	s1,0(s3)
     bc8:	8e230018 	lw	v1,24(s1)
     bcc:	26620008 	addiu	v0,s3,8
     bd0:	24630001 	addiu	v1,v1,1
     bd4:	ae230018 	sw	v1,24(s1)
     bd8:	8fbf0024 	lw	ra,36(sp)
     bdc:	8fb30020 	lw	s3,32(sp)
     be0:	8fb2001c 	lw	s2,28(sp)
     be4:	8fb10018 	lw	s1,24(sp)
     be8:	8fb00014 	lw	s0,20(sp)
     bec:	03e00008 	jr	ra
     bf0:	27bd0028 	addiu	sp,sp,40
     bf4:	8e240008 	lw	a0,8(s1)
     bf8:	0c000276 	jal	0x9d8
     bfc:	00000000 	nop
     c00:	8e22001c 	lw	v0,28(s1)
     c04:	00000000 	nop
     c08:	10400010 	beqz	v0,0xc4c
     c0c:	3c040001 	lui	a0,0x1
     c10:	00408821 	move	s1,v0
     c14:	1620ffc2 	bnez	s1,0xb20
     c18:	2e220008 	sltiu	v0,s1,8
     c1c:	8f8280a4 	lw	v0,-32604(gp)
     c20:	00000000 	nop
     c24:	10400007 	beqz	v0,0xc44
     c28:	00000000 	nop
     c2c:	8c51008c 	lw	s1,140(v0)
     c30:	080002c8 	j	0xb20
     c34:	2e220008 	sltiu	v0,s1,8
     c38:	8e630000 	lw	v1,0(s3)
     c3c:	080002ee 	j	0xbb8
     c40:	ac430000 	sw	v1,0(v0)
     c44:	080002ca 	j	0xb28
     c48:	00008821 	move	s1,zero
     c4c:	8e250018 	lw	a1,24(s1)
     c50:	0c000d18 	jal	0x3460
     c54:	2484c8a0 	addiu	a0,a0,-14176
     c58:	080002f6 	j	0xbd8
     c5c:	00001021 	move	v0,zero
     c60:	8f8380cc 	lw	v1,-32564(gp)
     c64:	27bdffd8 	addiu	sp,sp,-40
     c68:	28620002 	slti	v0,v1,2
     c6c:	afb10020 	sw	s1,32(sp)
     c70:	afb0001c 	sw	s0,28(sp)
     c74:	afbf0024 	sw	ra,36(sp)
     c78:	00808821 	move	s1,a0
     c7c:	1440000e 	bnez	v0,0xcb8
     c80:	00a08021 	move	s0,a1
     c84:	24040001 	li	a0,1
     c88:	0c0002ba 	jal	0xae8
     c8c:	2405000c 	li	a1,12
     c90:	10400012 	beqz	v0,0xcdc
     c94:	3c040001 	lui	a0,0x1
     c98:	ac510000 	sw	s1,0(v0)
     c9c:	ac400004 	sw	zero,4(v0)
     ca0:	ac500008 	sw	s0,8(v0)
     ca4:	8fbf0024 	lw	ra,36(sp)
     ca8:	8fb10020 	lw	s1,32(sp)
     cac:	8fb0001c 	lw	s0,28(sp)
     cb0:	03e00008 	jr	ra
     cb4:	27bd0028 	addiu	sp,sp,40
     cb8:	00031080 	sll	v0,v1,0x2
     cbc:	00032100 	sll	a0,v1,0x4
     cc0:	00822023 	subu	a0,a0,v0
     cc4:	3c020002 	lui	v0,0x2
     cc8:	24630001 	addiu	v1,v1,1
     ccc:	2442d920 	addiu	v0,v0,-9952
     cd0:	00441021 	addu	v0,v0,a0
     cd4:	08000324 	j	0xc90
     cd8:	af8380cc 	sw	v1,-32564(gp)
     cdc:	3c050001 	lui	a1,0x1
     ce0:	2484c884 	addiu	a0,a0,-14204
     ce4:	24a5c898 	addiu	a1,a1,-14184
     ce8:	240602a9 	li	a2,681
     cec:	0c000dc6 	jal	0x3718
     cf0:	afa20010 	sw	v0,16(sp)
     cf4:	8fa20010 	lw	v0,16(sp)
     cf8:	08000329 	j	0xca4
     cfc:	00000000 	nop
     d00:	27bdffe0 	addiu	sp,sp,-32
     d04:	30a20003 	andi	v0,a1,0x3
     d08:	afb20018 	sw	s2,24(sp)
     d0c:	afb10014 	sw	s1,20(sp)
     d10:	afb00010 	sw	s0,16(sp)
     d14:	afbf001c 	sw	ra,28(sp)
     d18:	00a08021 	move	s0,a1
     d1c:	00809021 	move	s2,a0
     d20:	10400007 	beqz	v0,0xd40
     d24:	00c08821 	move	s1,a2
     d28:	3c040001 	lui	a0,0x1
     d2c:	3c050001 	lui	a1,0x1
     d30:	2484c884 	addiu	a0,a0,-14204
     d34:	24a5c898 	addiu	a1,a1,-14184
     d38:	0c000dc6 	jal	0x3718
     d3c:	24060096 	li	a2,150
     d40:	3c021234 	lui	v0,0x1234
     d44:	3442abcd 	ori	v0,v0,0xabcd
     d48:	ae120004 	sw	s2,4(s0)
     d4c:	02402021 	move	a0,s2
     d50:	ae020000 	sw	v0,0(s0)
     d54:	0c000318 	jal	0xc60
     d58:	24050001 	li	a1,1
     d5c:	2631ffe0 	addiu	s1,s1,-32
     d60:	8fbf001c 	lw	ra,28(sp)
     d64:	26030020 	addiu	v1,s0,32
     d68:	26040010 	addiu	a0,s0,16
     d6c:	001188c2 	srl	s1,s1,0x3
     d70:	ae020008 	sw	v0,8(s0)
     d74:	ae03000c 	sw	v1,12(s0)
     d78:	02001021 	move	v0,s0
     d7c:	ac710004 	sw	s1,4(v1)
     d80:	ae040020 	sw	a0,32(s0)
     d84:	ae030010 	sw	v1,16(s0)
     d88:	ae000014 	sw	zero,20(s0)
     d8c:	ae000018 	sw	zero,24(s0)
     d90:	ae00001c 	sw	zero,28(s0)
     d94:	8fb20018 	lw	s2,24(sp)
     d98:	8fb10014 	lw	s1,20(sp)
     d9c:	8fb00010 	lw	s0,16(sp)
     da0:	03e00008 	jr	ra
     da4:	27bd0020 	addiu	sp,sp,32
     da8:	27bdffd8 	addiu	sp,sp,-40
     dac:	afb10018 	sw	s1,24(sp)
     db0:	afbf0024 	sw	ra,36(sp)
     db4:	afb30020 	sw	s3,32(sp)
     db8:	afb2001c 	sw	s2,28(sp)
     dbc:	afb00014 	sw	s0,20(sp)
     dc0:	1080004c 	beqz	a0,0xef4
     dc4:	00808821 	move	s1,a0
     dc8:	8e32fff8 	lw	s2,-8(s1)
     dcc:	3c131234 	lui	s3,0x1234
     dd0:	8e420000 	lw	v0,0(s2)
     dd4:	3673abcd 	ori	s3,s3,0xabcd
     dd8:	10530012 	beq	v0,s3,0xe24
     ddc:	2630fff8 	addiu	s0,s1,-8
     de0:	3c040001 	lui	a0,0x1
     de4:	3c050001 	lui	a1,0x1
     de8:	2484c884 	addiu	a0,a0,-14204
     dec:	24a5c898 	addiu	a1,a1,-14184
     df0:	0c000dc6 	jal	0x3718
     df4:	240600e5 	li	a2,229
     df8:	8e420000 	lw	v0,0(s2)
     dfc:	00000000 	nop
     e00:	10530008 	beq	v0,s3,0xe24
     e04:	00000000 	nop
     e08:	8fbf0024 	lw	ra,36(sp)
     e0c:	8fb30020 	lw	s3,32(sp)
     e10:	8fb2001c 	lw	s2,28(sp)
     e14:	8fb10018 	lw	s1,24(sp)
     e18:	8fb00014 	lw	s0,20(sp)
     e1c:	03e00008 	jr	ra
     e20:	27bd0028 	addiu	sp,sp,40
     e24:	8e420018 	lw	v0,24(s2)
     e28:	8e440008 	lw	a0,8(s2)
     e2c:	2442ffff 	addiu	v0,v0,-1
     e30:	ae420018 	sw	v0,24(s2)
     e34:	0c0001eb 	jal	0x7ac
     e38:	2405ffff 	li	a1,-1
     e3c:	8e42000c 	lw	v0,12(s2)
     e40:	00000000 	nop
     e44:	0050202b 	sltu	a0,v0,s0
     e48:	10800010 	beqz	a0,0xe8c
     e4c:	00000000 	nop
     e50:	8c430000 	lw	v1,0(v0)
     e54:	00000000 	nop
     e58:	0203282b 	sltu	a1,s0,v1
     e5c:	14a0000e 	bnez	a1,0xe98
     e60:	0043282b 	sltu	a1,v0,v1
     e64:	14a00005 	bnez	a1,0xe7c
     e68:	0203302b 	sltu	a2,s0,v1
     e6c:	1480000a 	bnez	a0,0xe98
     e70:	00000000 	nop
     e74:	14c00008 	bnez	a2,0xe98
     e78:	00000000 	nop
     e7c:	00601021 	move	v0,v1
     e80:	0050202b 	sltu	a0,v0,s0
     e84:	1480fff2 	bnez	a0,0xe50
     e88:	00000000 	nop
     e8c:	8c430000 	lw	v1,0(v0)
     e90:	08000399 	j	0xe64
     e94:	0043282b 	sltu	a1,v0,v1
     e98:	8e040004 	lw	a0,4(s0)
     e9c:	00000000 	nop
     ea0:	000428c0 	sll	a1,a0,0x3
     ea4:	02052821 	addu	a1,s0,a1
     ea8:	10a3001a 	beq	a1,v1,0xf14
     eac:	00000000 	nop
     eb0:	ae23fff8 	sw	v1,-8(s1)
     eb4:	8c430004 	lw	v1,4(v0)
     eb8:	00000000 	nop
     ebc:	000320c0 	sll	a0,v1,0x3
     ec0:	00442021 	addu	a0,v0,a0
     ec4:	10900019 	beq	a0,s0,0xf2c
     ec8:	00000000 	nop
     ecc:	ac500000 	sw	s0,0(v0)
     ed0:	8e440008 	lw	a0,8(s2)
     ed4:	ae42000c 	sw	v0,12(s2)
     ed8:	8fbf0024 	lw	ra,36(sp)
     edc:	8fb30020 	lw	s3,32(sp)
     ee0:	8fb2001c 	lw	s2,28(sp)
     ee4:	8fb10018 	lw	s1,24(sp)
     ee8:	8fb00014 	lw	s0,20(sp)
     eec:	08000276 	j	0x9d8
     ef0:	27bd0028 	addiu	sp,sp,40
     ef4:	3c040001 	lui	a0,0x1
     ef8:	3c050001 	lui	a1,0x1
     efc:	2484c884 	addiu	a0,a0,-14204
     f00:	24a5c898 	addiu	a1,a1,-14184
     f04:	0c000dc6 	jal	0x3718
     f08:	240600e2 	li	a2,226
     f0c:	08000372 	j	0xdc8
     f10:	00000000 	nop
     f14:	8c650004 	lw	a1,4(v1)
     f18:	8c630000 	lw	v1,0(v1)
     f1c:	00a42021 	addu	a0,a1,a0
     f20:	ae040004 	sw	a0,4(s0)
     f24:	080003ad 	j	0xeb4
     f28:	ae23fff8 	sw	v1,-8(s1)
     f2c:	8e050004 	lw	a1,4(s0)
     f30:	8e24fff8 	lw	a0,-8(s1)
     f34:	00a31821 	addu	v1,a1,v1
     f38:	ac430004 	sw	v1,4(v0)
     f3c:	080003b4 	j	0xed0
     f40:	ac440000 	sw	a0,0(v0)
     f44:	8c820004 	lw	v0,4(a0)
     f48:	27bdffe8 	addiu	sp,sp,-24
     f4c:	afb00010 	sw	s0,16(sp)
     f50:	afbf0014 	sw	ra,20(sp)
     f54:	10400007 	beqz	v0,0xf74
     f58:	00808021 	move	s0,a0
     f5c:	0c000276 	jal	0x9d8
     f60:	02002021 	move	a0,s0
     f64:	8e020004 	lw	v0,4(s0)
     f68:	00000000 	nop
     f6c:	1440fffb 	bnez	v0,0xf5c
     f70:	00000000 	nop
     f74:	02002021 	move	a0,s0
     f78:	8fbf0014 	lw	ra,20(sp)
     f7c:	8fb00010 	lw	s0,16(sp)
     f80:	0800036a 	j	0xda8
     f84:	27bd0018 	addiu	sp,sp,24
     f88:	8c840008 	lw	a0,8(a0)
     f8c:	080003d1 	j	0xf44
     f90:	00000000 	nop
     f94:	27bdffe0 	addiu	sp,sp,-32
     f98:	afbf001c 	sw	ra,28(sp)
     f9c:	8f8480ac 	lw	a0,-32596(gp)
     fa0:	0c0001eb 	jal	0x7ac
     fa4:	2405ffff 	li	a1,-1
     fa8:	8f8280d4 	lw	v0,-32556(gp)
     fac:	00000000 	nop
     fb0:	10400003 	beqz	v0,0xfc0
     fb4:	00402021 	move	a0,v0
     fb8:	0c00036a 	jal	0xda8
     fbc:	00000000 	nop
     fc0:	8f8480ac 	lw	a0,-32596(gp)
     fc4:	0c000276 	jal	0x9d8
     fc8:	af8080d4 	sw	zero,-32556(gp)
     fcc:	0c00004a 	jal	0x128
     fd0:	00002021 	move	a0,zero
     fd4:	8f8380d4 	lw	v1,-32556(gp)
     fd8:	00000000 	nop
     fdc:	10600005 	beqz	v1,0xff4
     fe0:	00402021 	move	a0,v0
     fe4:	0c00004a 	jal	0x128
     fe8:	00000000 	nop
     fec:	080003e7 	j	0xf9c
     ff0:	00000000 	nop
     ff4:	8f8380a4 	lw	v1,-32604(gp)
     ff8:	00002021 	move	a0,zero
     ffc:	ac600004 	sw	zero,4(v1)
    1000:	af8380d4 	sw	v1,-32556(gp)
    1004:	0c0000f6 	jal	0x3d8
    1008:	afa20010 	sw	v0,16(sp)
    100c:	8fa20010 	lw	v0,16(sp)
    1010:	0c00004a 	jal	0x128
    1014:	00402021 	move	a0,v0
    1018:	080003e7 	j	0xf9c
    101c:	00000000 	nop
    1020:	27bdffe8 	addiu	sp,sp,-24
    1024:	afbf0014 	sw	ra,20(sp)
    1028:	0c00004a 	jal	0x128
    102c:	24040001 	li	a0,1
    1030:	8f8280a4 	lw	v0,-32604(gp)
    1034:	00000000 	nop
    1038:	8c440064 	lw	a0,100(v0)
    103c:	8c420060 	lw	v0,96(v0)
    1040:	00000000 	nop
    1044:	0040f809 	jalr	v0
    1048:	00000000 	nop
    104c:	8fbf0014 	lw	ra,20(sp)
    1050:	080003e5 	j	0xf94
    1054:	27bd0018 	addiu	sp,sp,24
    1058:	27bdffc8 	addiu	sp,sp,-56
    105c:	afb20020 	sw	s2,32(sp)
    1060:	00809021 	move	s2,a0
    1064:	8f8480ac 	lw	a0,-32596(gp)
    1068:	afb1001c 	sw	s1,28(sp)
    106c:	00a08821 	move	s1,a1
    1070:	2405ffff 	li	a1,-1
    1074:	afb60030 	sw	s6,48(sp)
    1078:	afb40028 	sw	s4,40(sp)
    107c:	afb00018 	sw	s0,24(sp)
    1080:	afbf0034 	sw	ra,52(sp)
    1084:	afb5002c 	sw	s5,44(sp)
    1088:	afb30024 	sw	s3,36(sp)
    108c:	00c08021 	move	s0,a2
    1090:	8fb40048 	lw	s4,72(sp)
    1094:	0c0001eb 	jal	0x7ac
    1098:	00e0b021 	move	s6,a3
    109c:	8f8480d4 	lw	a0,-32556(gp)
    10a0:	00000000 	nop
    10a4:	10800003 	beqz	a0,0x10b4
    10a8:	00000000 	nop
    10ac:	0c00036a 	jal	0xda8
    10b0:	00000000 	nop
    10b4:	8f8480ac 	lw	a0,-32596(gp)
    10b8:	0c000276 	jal	0x9d8
    10bc:	af8080d4 	sw	zero,-32556(gp)
    10c0:	12800048 	beqz	s4,0x11e4
    10c4:	2e820400 	sltiu	v0,s4,1024
    10c8:	10400003 	beqz	v0,0x10d8
    10cc:	268500a4 	addiu	a1,s4,164
    10d0:	240504a4 	li	a1,1188
    10d4:	24140400 	li	s4,1024
    10d8:	0c0002ba 	jal	0xae8
    10dc:	00002021 	move	a0,zero
    10e0:	10400046 	beqz	v0,0x11fc
    10e4:	00409821 	move	s3,v0
    10e8:	00402021 	move	a0,v0
    10ec:	00002821 	move	a1,zero
    10f0:	240600a4 	li	a2,164
    10f4:	0c00092b 	jal	0x24ac
    10f8:	245500a4 	addiu	s5,v0,164
    10fc:	02a02021 	move	a0,s5
    1100:	240500cd 	li	a1,205
    1104:	0c00092b 	jal	0x24ac
    1108:	02803021 	move	a2,s4
    110c:	24030001 	li	v1,1
    1110:	8f8280a4 	lw	v0,-32604(gp)
    1114:	ae630004 	sw	v1,4(s3)
    1118:	2403ffff 	li	v1,-1
    111c:	ae720000 	sw	s2,0(s3)
    1120:	ae63000c 	sw	v1,12(s3)
    1124:	ae710060 	sw	s1,96(s3)
    1128:	ae700064 	sw	s0,100(s3)
    112c:	ae760068 	sw	s6,104(s3)
    1130:	ae600080 	sw	zero,128(s3)
    1134:	1040002e 	beqz	v0,0x11f0
    1138:	ae600084 	sw	zero,132(s3)
    113c:	8c430088 	lw	v1,136(v0)
    1140:	8c42008c 	lw	v0,140(v0)
    1144:	ae630088 	sw	v1,136(s3)
    1148:	ae62008c 	sw	v0,140(s3)
    114c:	3c024321 	lui	v0,0x4321
    1150:	26700010 	addiu	s0,s3,16
    1154:	3442abcd 	ori	v0,v0,0xabcd
    1158:	02002021 	move	a0,s0
    115c:	ae6200a0 	sw	v0,160(s3)
    1160:	ae600090 	sw	zero,144(s3)
    1164:	ae600094 	sw	zero,148(s3)
    1168:	ae600098 	sw	zero,152(s3)
    116c:	0c0000ee 	jal	0x3b8
    1170:	ae60009c 	sw	zero,156(s3)
    1174:	2694ffe8 	addiu	s4,s4,-24
    1178:	3c020000 	lui	v0,0x0
    117c:	24421020 	addiu	v0,v0,4128
    1180:	02b4a821 	addu	s5,s5,s4
    1184:	00002021 	move	a0,zero
    1188:	ae150028 	sw	s5,40(s0)
    118c:	0c00004a 	jal	0x128
    1190:	ae02002c 	sw	v0,44(s0)
    1194:	278480a0 	addiu	a0,gp,-32608
    1198:	02602821 	move	a1,s3
    119c:	0c000088 	jal	0x220
    11a0:	afa20010 	sw	v0,16(sp)
    11a4:	0c0000f6 	jal	0x3d8
    11a8:	00002021 	move	a0,zero
    11ac:	8fa20010 	lw	v0,16(sp)
    11b0:	0c00004a 	jal	0x128
    11b4:	00402021 	move	a0,v0
    11b8:	8fbf0034 	lw	ra,52(sp)
    11bc:	02601021 	move	v0,s3
    11c0:	8fb60030 	lw	s6,48(sp)
    11c4:	8fb5002c 	lw	s5,44(sp)
    11c8:	8fb40028 	lw	s4,40(sp)
    11cc:	8fb30024 	lw	s3,36(sp)
    11d0:	8fb20020 	lw	s2,32(sp)
    11d4:	8fb1001c 	lw	s1,28(sp)
    11d8:	8fb00018 	lw	s0,24(sp)
    11dc:	03e00008 	jr	ra
    11e0:	27bd0038 	addiu	sp,sp,56
    11e4:	24140800 	li	s4,2048
    11e8:	08000436 	j	0x10d8
    11ec:	268500a4 	addiu	a1,s4,164
    11f0:	ae600088 	sw	zero,136(s3)
    11f4:	08000453 	j	0x114c
    11f8:	ae60008c 	sw	zero,140(s3)
    11fc:	3c040001 	lui	a0,0x1
    1200:	3c050001 	lui	a1,0x1
    1204:	2484c884 	addiu	a0,a0,-14204
    1208:	24a5c898 	addiu	a1,a1,-14184
    120c:	0c000dc6 	jal	0x3718
    1210:	240601eb 	li	a2,491
    1214:	0800046e 	j	0x11b8
    1218:	00000000 	nop
    121c:	27bdffe0 	addiu	sp,sp,-32
    1220:	afb10018 	sw	s1,24(sp)
    1224:	2405000c 	li	a1,12
    1228:	00808821 	move	s1,a0
    122c:	afb00014 	sw	s0,20(sp)
    1230:	afbf001c 	sw	ra,28(sp)
    1234:	0c0002ba 	jal	0xae8
    1238:	24040001 	li	a0,1
    123c:	14400007 	bnez	v0,0x125c
    1240:	00408021 	move	s0,v0
    1244:	8fbf001c 	lw	ra,28(sp)
    1248:	02001021 	move	v0,s0
    124c:	8fb10018 	lw	s1,24(sp)
    1250:	8fb00014 	lw	s0,20(sp)
    1254:	03e00008 	jr	ra
    1258:	27bd0020 	addiu	sp,sp,32
    125c:	02202021 	move	a0,s1
    1260:	0c000318 	jal	0xc60
    1264:	24050001 	li	a1,1
    1268:	10400009 	beqz	v0,0x1290
    126c:	ae020000 	sw	v0,0(s0)
    1270:	8fbf001c 	lw	ra,28(sp)
    1274:	02001021 	move	v0,s0
    1278:	ae000004 	sw	zero,4(s0)
    127c:	ae000008 	sw	zero,8(s0)
    1280:	8fb10018 	lw	s1,24(sp)
    1284:	8fb00014 	lw	s0,20(sp)
    1288:	03e00008 	jr	ra
    128c:	27bd0020 	addiu	sp,sp,32
    1290:	08000491 	j	0x1244
    1294:	00008021 	move	s0,zero
    1298:	27bdffe8 	addiu	sp,sp,-24
    129c:	afb00010 	sw	s0,16(sp)
    12a0:	00808021 	move	s0,a0
    12a4:	8c840000 	lw	a0,0(a0)
    12a8:	afbf0014 	sw	ra,20(sp)
    12ac:	0c0003d1 	jal	0xf44
    12b0:	00000000 	nop
    12b4:	02002021 	move	a0,s0
    12b8:	8fbf0014 	lw	ra,20(sp)
    12bc:	8fb00010 	lw	s0,16(sp)
    12c0:	0800036a 	j	0xda8
    12c4:	27bd0018 	addiu	sp,sp,24
    12c8:	27bdffe0 	addiu	sp,sp,-32
    12cc:	afb00014 	sw	s0,20(sp)
    12d0:	afbf001c 	sw	ra,28(sp)
    12d4:	afb10018 	sw	s1,24(sp)
    12d8:	10800019 	beqz	a0,0x1340
    12dc:	00808021 	move	s0,a0
    12e0:	8f9180a4 	lw	s1,-32604(gp)
    12e4:	8e020004 	lw	v0,4(s0)
    12e8:	00000000 	nop
    12ec:	1051000c 	beq	v0,s1,0x1320
    12f0:	00000000 	nop
    12f4:	8e040000 	lw	a0,0(s0)
    12f8:	0c0001eb 	jal	0x7ac
    12fc:	2405ffff 	li	a1,-1
    1300:	8fbf001c 	lw	ra,28(sp)
    1304:	24020001 	li	v0,1
    1308:	ae110004 	sw	s1,4(s0)
    130c:	ae020008 	sw	v0,8(s0)
    1310:	8fb10018 	lw	s1,24(sp)
    1314:	8fb00014 	lw	s0,20(sp)
    1318:	03e00008 	jr	ra
    131c:	27bd0020 	addiu	sp,sp,32
    1320:	8e020008 	lw	v0,8(s0)
    1324:	8fbf001c 	lw	ra,28(sp)
    1328:	24420001 	addiu	v0,v0,1
    132c:	ae020008 	sw	v0,8(s0)
    1330:	8fb10018 	lw	s1,24(sp)
    1334:	8fb00014 	lw	s0,20(sp)
    1338:	03e00008 	jr	ra
    133c:	27bd0020 	addiu	sp,sp,32
    1340:	3c040001 	lui	a0,0x1
    1344:	3c050001 	lui	a1,0x1
    1348:	2484c884 	addiu	a0,a0,-14204
    134c:	24a5c898 	addiu	a1,a1,-14184
    1350:	0c000dc6 	jal	0x3718
    1354:	24060321 	li	a2,801
    1358:	080004b8 	j	0x12e0
    135c:	00000000 	nop
    1360:	27bdffe8 	addiu	sp,sp,-24
    1364:	afb00010 	sw	s0,16(sp)
    1368:	afbf0014 	sw	ra,20(sp)
    136c:	10800024 	beqz	a0,0x1400
    1370:	00808021 	move	s0,a0
    1374:	8e030004 	lw	v1,4(s0)
    1378:	8f8280a4 	lw	v0,-32604(gp)
    137c:	00000000 	nop
    1380:	10620006 	beq	v1,v0,0x139c
    1384:	3c040001 	lui	a0,0x1
    1388:	3c050001 	lui	a1,0x1
    138c:	2484c884 	addiu	a0,a0,-14204
    1390:	24a5c898 	addiu	a1,a1,-14184
    1394:	0c000dc6 	jal	0x3718
    1398:	24060332 	li	a2,818
    139c:	8e020008 	lw	v0,8(s0)
    13a0:	00000000 	nop
    13a4:	1840000e 	blez	v0,0x13e0
    13a8:	3c040001 	lui	a0,0x1
    13ac:	2442ffff 	addiu	v0,v0,-1
    13b0:	18400005 	blez	v0,0x13c8
    13b4:	ae020008 	sw	v0,8(s0)
    13b8:	8fbf0014 	lw	ra,20(sp)
    13bc:	8fb00010 	lw	s0,16(sp)
    13c0:	03e00008 	jr	ra
    13c4:	27bd0018 	addiu	sp,sp,24
    13c8:	8e040000 	lw	a0,0(s0)
    13cc:	ae000004 	sw	zero,4(s0)
    13d0:	8fbf0014 	lw	ra,20(sp)
    13d4:	8fb00010 	lw	s0,16(sp)
    13d8:	08000276 	j	0x9d8
    13dc:	27bd0018 	addiu	sp,sp,24
    13e0:	3c050001 	lui	a1,0x1
    13e4:	2484c884 	addiu	a0,a0,-14204
    13e8:	24a5c898 	addiu	a1,a1,-14184
    13ec:	0c000dc6 	jal	0x3718
    13f0:	24060333 	li	a2,819
    13f4:	8e020008 	lw	v0,8(s0)
    13f8:	080004ec 	j	0x13b0
    13fc:	2442ffff 	addiu	v0,v0,-1
    1400:	3c040001 	lui	a0,0x1
    1404:	3c050001 	lui	a1,0x1
    1408:	2484c884 	addiu	a0,a0,-14204
    140c:	24a5c898 	addiu	a1,a1,-14184
    1410:	0c000dc6 	jal	0x3718
    1414:	24060331 	li	a2,817
    1418:	080004dd 	j	0x1374
    141c:	00000000 	nop
    1420:	27bdffd8 	addiu	sp,sp,-40
    1424:	30c20003 	andi	v0,a2,0x3
    1428:	afb2001c 	sw	s2,28(sp)
    142c:	afb10018 	sw	s1,24(sp)
    1430:	afb00014 	sw	s0,20(sp)
    1434:	afbf0024 	sw	ra,36(sp)
    1438:	afb30020 	sw	s3,32(sp)
    143c:	00c09021 	move	s2,a2
    1440:	00808821 	move	s1,a0
    1444:	14400012 	bnez	v0,0x1490
    1448:	00a08021 	move	s0,a1
    144c:	00129882 	srl	s3,s2,0x2
    1450:	02700018 	mult	s3,s0
    1454:	24040001 	li	a0,1
    1458:	00002812 	mflo	a1
    145c:	24a50007 	addiu	a1,a1,7
    1460:	0c0002ba 	jal	0xae8
    1464:	00052880 	sll	a1,a1,0x2
    1468:	14400018 	bnez	v0,0x14cc
    146c:	00409021 	move	s2,v0
    1470:	8fbf0024 	lw	ra,36(sp)
    1474:	02401021 	move	v0,s2
    1478:	8fb30020 	lw	s3,32(sp)
    147c:	8fb2001c 	lw	s2,28(sp)
    1480:	8fb10018 	lw	s1,24(sp)
    1484:	8fb00014 	lw	s0,20(sp)
    1488:	03e00008 	jr	ra
    148c:	27bd0028 	addiu	sp,sp,40
    1490:	3c040001 	lui	a0,0x1
    1494:	3c050001 	lui	a1,0x1
    1498:	2484c884 	addiu	a0,a0,-14204
    149c:	24a5c898 	addiu	a1,a1,-14184
    14a0:	24060347 	li	a2,839
    14a4:	0c000dc6 	jal	0x3718
    14a8:	00129882 	srl	s3,s2,0x2
    14ac:	02700018 	mult	s3,s0
    14b0:	24040001 	li	a0,1
    14b4:	00002812 	mflo	a1
    14b8:	24a50007 	addiu	a1,a1,7
    14bc:	0c0002ba 	jal	0xae8
    14c0:	00052880 	sll	a1,a1,0x2
    14c4:	1040ffea 	beqz	v0,0x1470
    14c8:	00409021 	move	s2,v0
    14cc:	ac510000 	sw	s1,0(v0)
    14d0:	02202021 	move	a0,s1
    14d4:	0c000318 	jal	0xc60
    14d8:	00002821 	move	a1,zero
    14dc:	1040000e 	beqz	v0,0x1518
    14e0:	ae420004 	sw	v0,4(s2)
    14e4:	8fbf0024 	lw	ra,36(sp)
    14e8:	ae500008 	sw	s0,8(s2)
    14ec:	ae53000c 	sw	s3,12(s2)
    14f0:	02401021 	move	v0,s2
    14f4:	ae400010 	sw	zero,16(s2)
    14f8:	ae400014 	sw	zero,20(s2)
    14fc:	ae400018 	sw	zero,24(s2)
    1500:	8fb30020 	lw	s3,32(sp)
    1504:	8fb2001c 	lw	s2,28(sp)
    1508:	8fb10018 	lw	s1,24(sp)
    150c:	8fb00014 	lw	s0,20(sp)
    1510:	03e00008 	jr	ra
    1514:	27bd0028 	addiu	sp,sp,40
    1518:	0800051c 	j	0x1470
    151c:	00009021 	move	s2,zero
    1520:	27bdffe8 	addiu	sp,sp,-24
    1524:	afb00010 	sw	s0,16(sp)
    1528:	00808021 	move	s0,a0
    152c:	8c840004 	lw	a0,4(a0)
    1530:	afbf0014 	sw	ra,20(sp)
    1534:	0c0003d1 	jal	0xf44
    1538:	00000000 	nop
    153c:	02002021 	move	a0,s0
    1540:	8fbf0014 	lw	ra,20(sp)
    1544:	8fb00010 	lw	s0,16(sp)
    1548:	0800036a 	j	0xda8
    154c:	27bd0018 	addiu	sp,sp,24
    1550:	27bdffe0 	addiu	sp,sp,-32
    1554:	afb10018 	sw	s1,24(sp)
    1558:	afb00014 	sw	s0,20(sp)
    155c:	afbf001c 	sw	ra,28(sp)
    1560:	00808021 	move	s0,a0
    1564:	1080002e 	beqz	a0,0x1620
    1568:	00a08821 	move	s1,a1
    156c:	0c00004a 	jal	0x128
    1570:	00002021 	move	a0,zero
    1574:	8e050010 	lw	a1,16(s0)
    1578:	8e030008 	lw	v1,8(s0)
    157c:	24a40001 	addiu	a0,a1,1
    1580:	0064302a 	slt	a2,v1,a0
    1584:	14c0002e 	bnez	a2,0x1640
    1588:	ae040010 	sw	a0,16(s0)
    158c:	8e050018 	lw	a1,24(s0)
    1590:	8e06000c 	lw	a2,12(s0)
    1594:	00000000 	nop
    1598:	00c50018 	mult	a2,a1
    159c:	00002012 	mflo	a0
    15a0:	24840007 	addiu	a0,a0,7
    15a4:	00042080 	sll	a0,a0,0x2
    15a8:	18c0000c 	blez	a2,0x15dc
    15ac:	02042021 	addu	a0,s0,a0
    15b0:	00001821 	move	v1,zero
    15b4:	8e250000 	lw	a1,0(s1)
    15b8:	24630001 	addiu	v1,v1,1
    15bc:	ac850000 	sw	a1,0(a0)
    15c0:	8e05000c 	lw	a1,12(s0)
    15c4:	26310004 	addiu	s1,s1,4
    15c8:	0065282a 	slt	a1,v1,a1
    15cc:	14a0fff9 	bnez	a1,0x15b4
    15d0:	24840004 	addiu	a0,a0,4
    15d4:	8e050018 	lw	a1,24(s0)
    15d8:	8e030008 	lw	v1,8(s0)
    15dc:	24a50001 	addiu	a1,a1,1
    15e0:	00a3182a 	slt	v1,a1,v1
    15e4:	1060000c 	beqz	v1,0x1618
    15e8:	ae050018 	sw	a1,24(s0)
    15ec:	0c00004a 	jal	0x128
    15f0:	00402021 	move	a0,v0
    15f4:	8e040004 	lw	a0,4(s0)
    15f8:	0c000276 	jal	0x9d8
    15fc:	00000000 	nop
    1600:	00001021 	move	v0,zero
    1604:	8fbf001c 	lw	ra,28(sp)
    1608:	8fb10018 	lw	s1,24(sp)
    160c:	8fb00014 	lw	s0,20(sp)
    1610:	03e00008 	jr	ra
    1614:	27bd0020 	addiu	sp,sp,32
    1618:	0800057b 	j	0x15ec
    161c:	ae000018 	sw	zero,24(s0)
    1620:	3c040001 	lui	a0,0x1
    1624:	3c050001 	lui	a1,0x1
    1628:	2484c884 	addiu	a0,a0,-14204
    162c:	24a5c898 	addiu	a1,a1,-14184
    1630:	0c000dc6 	jal	0x3718
    1634:	24060369 	li	a2,873
    1638:	0800055b 	j	0x156c
    163c:	00000000 	nop
    1640:	ae050010 	sw	a1,16(s0)
    1644:	0c00004a 	jal	0x128
    1648:	00402021 	move	a0,v0
    164c:	08000581 	j	0x1604
    1650:	2402ffff 	li	v0,-1
    1654:	27bdffe0 	addiu	sp,sp,-32
    1658:	afb20018 	sw	s2,24(sp)
    165c:	afb10014 	sw	s1,20(sp)
    1660:	afb00010 	sw	s0,16(sp)
    1664:	afbf001c 	sw	ra,28(sp)
    1668:	00808021 	move	s0,a0
    166c:	00a08821 	move	s1,a1
    1670:	10800033 	beqz	a0,0x1740
    1674:	00c09021 	move	s2,a2
    1678:	8e040004 	lw	a0,4(s0)
    167c:	0c0001eb 	jal	0x7ac
    1680:	02402821 	move	a1,s2
    1684:	10400008 	beqz	v0,0x16a8
    1688:	00409021 	move	s2,v0
    168c:	8fbf001c 	lw	ra,28(sp)
    1690:	02401021 	move	v0,s2
    1694:	8fb20018 	lw	s2,24(sp)
    1698:	8fb10014 	lw	s1,20(sp)
    169c:	8fb00010 	lw	s0,16(sp)
    16a0:	03e00008 	jr	ra
    16a4:	27bd0020 	addiu	sp,sp,32
    16a8:	0c00004a 	jal	0x128
    16ac:	00002021 	move	a0,zero
    16b0:	8e030014 	lw	v1,20(s0)
    16b4:	8e05000c 	lw	a1,12(s0)
    16b8:	8e040010 	lw	a0,16(s0)
    16bc:	00a30018 	mult	a1,v1
    16c0:	2484ffff 	addiu	a0,a0,-1
    16c4:	ae040010 	sw	a0,16(s0)
    16c8:	00003012 	mflo	a2
    16cc:	24c40007 	addiu	a0,a2,7
    16d0:	00042080 	sll	a0,a0,0x2
    16d4:	18a0000b 	blez	a1,0x1704
    16d8:	02042021 	addu	a0,s0,a0
    16dc:	00001821 	move	v1,zero
    16e0:	8c850000 	lw	a1,0(a0)
    16e4:	24630001 	addiu	v1,v1,1
    16e8:	ae250000 	sw	a1,0(s1)
    16ec:	8e05000c 	lw	a1,12(s0)
    16f0:	24840004 	addiu	a0,a0,4
    16f4:	0065282a 	slt	a1,v1,a1
    16f8:	14a0fff9 	bnez	a1,0x16e0
    16fc:	26310004 	addiu	s1,s1,4
    1700:	8e030014 	lw	v1,20(s0)
    1704:	8e040008 	lw	a0,8(s0)
    1708:	24630001 	addiu	v1,v1,1
    170c:	0064202a 	slt	a0,v1,a0
    1710:	14800002 	bnez	a0,0x171c
    1714:	ae030014 	sw	v1,20(s0)
    1718:	ae000014 	sw	zero,20(s0)
    171c:	0c00004a 	jal	0x128
    1720:	00402021 	move	a0,v0
    1724:	8fbf001c 	lw	ra,28(sp)
    1728:	02401021 	move	v0,s2
    172c:	8fb20018 	lw	s2,24(sp)
    1730:	8fb10014 	lw	s1,20(sp)
    1734:	8fb00010 	lw	s0,16(sp)
    1738:	03e00008 	jr	ra
    173c:	27bd0020 	addiu	sp,sp,32
    1740:	3c040001 	lui	a0,0x1
    1744:	3c050001 	lui	a1,0x1
    1748:	2484c884 	addiu	a0,a0,-14204
    174c:	24a5c898 	addiu	a1,a1,-14184
    1750:	0c000dc6 	jal	0x3718
    1754:	24060386 	li	a2,902
    1758:	0800059e 	j	0x1678
    175c:	00000000 	nop
    1760:	27bdffd8 	addiu	sp,sp,-40
    1764:	afb00020 	sw	s0,32(sp)
    1768:	afbf0024 	sw	ra,36(sp)
    176c:	27b00010 	addiu	s0,sp,16
    1770:	8f8480c4 	lw	a0,-32572(gp)
    1774:	02002821 	move	a1,s0
    1778:	0c000595 	jal	0x1654
    177c:	2406ffff 	li	a2,-1
    1780:	8fa40014 	lw	a0,20(sp)
    1784:	8fa50018 	lw	a1,24(sp)
    1788:	8fa6001c 	lw	a2,28(sp)
    178c:	8fa20010 	lw	v0,16(sp)
    1790:	00000000 	nop
    1794:	0040f809 	jalr	v0
    1798:	00000000 	nop
    179c:	080005dc 	j	0x1770
    17a0:	00000000 	nop
    17a4:	27bdffc0 	addiu	sp,sp,-64
    17a8:	afb30034 	sw	s3,52(sp)
    17ac:	00809821 	move	s3,a0
    17b0:	8f8480b0 	lw	a0,-32592(gp)
    17b4:	afb20030 	sw	s2,48(sp)
    17b8:	00a09021 	move	s2,a1
    17bc:	2405ffff 	li	a1,-1
    17c0:	afb1002c 	sw	s1,44(sp)
    17c4:	afb00028 	sw	s0,40(sp)
    17c8:	afbf003c 	sw	ra,60(sp)
    17cc:	afb40038 	sw	s4,56(sp)
    17d0:	00c08821 	move	s1,a2
    17d4:	0c0001eb 	jal	0x7ac
    17d8:	00e08021 	move	s0,a3
    17dc:	8f8280c0 	lw	v0,-32576(gp)
    17e0:	00000000 	nop
    17e4:	10400013 	beqz	v0,0x1834
    17e8:	3c140001 	lui	s4,0x1
    17ec:	8f8480b0 	lw	a0,-32592(gp)
    17f0:	0c000276 	jal	0x9d8
    17f4:	00000000 	nop
    17f8:	8f8480c4 	lw	a0,-32572(gp)
    17fc:	27a50018 	addiu	a1,sp,24
    1800:	afb30018 	sw	s3,24(sp)
    1804:	afb2001c 	sw	s2,28(sp)
    1808:	afb10020 	sw	s1,32(sp)
    180c:	0c000554 	jal	0x1550
    1810:	afb00024 	sw	s0,36(sp)
    1814:	8fbf003c 	lw	ra,60(sp)
    1818:	8fb40038 	lw	s4,56(sp)
    181c:	8fb30034 	lw	s3,52(sp)
    1820:	8fb20030 	lw	s2,48(sp)
    1824:	8fb1002c 	lw	s1,44(sp)
    1828:	8fb00028 	lw	s0,40(sp)
    182c:	03e00008 	jr	ra
    1830:	27bd0040 	addiu	sp,sp,64
    1834:	2684c8a8 	addiu	a0,s4,-14168
    1838:	24050064 	li	a1,100
    183c:	0c000508 	jal	0x1420
    1840:	24060010 	li	a2,16
    1844:	3c050000 	lui	a1,0x0
    1848:	af8280c4 	sw	v0,-32572(gp)
    184c:	2684c8a8 	addiu	a0,s4,-14168
    1850:	24020fa0 	li	v0,4000
    1854:	24a51760 	addiu	a1,a1,5984
    1858:	00003021 	move	a2,zero
    185c:	24070096 	li	a3,150
    1860:	0c000416 	jal	0x1058
    1864:	afa20010 	sw	v0,16(sp)
    1868:	080005fb 	j	0x17ec
    186c:	af8280c0 	sw	v0,-32576(gp)
    1870:	27bdffd0 	addiu	sp,sp,-48
    1874:	afb20024 	sw	s2,36(sp)
    1878:	00809021 	move	s2,a0
    187c:	8f8480b0 	lw	a0,-32592(gp)
    1880:	afb10020 	sw	s1,32(sp)
    1884:	00a08821 	move	s1,a1
    1888:	2405ffff 	li	a1,-1
    188c:	afb0001c 	sw	s0,28(sp)
    1890:	afbf002c 	sw	ra,44(sp)
    1894:	afb30028 	sw	s3,40(sp)
    1898:	0c0001eb 	jal	0x7ac
    189c:	00c08021 	move	s0,a2
    18a0:	8f8280bc 	lw	v0,-32580(gp)
    18a4:	00000000 	nop
    18a8:	10400017 	beqz	v0,0x1908
    18ac:	3c130001 	lui	s3,0x1
    18b0:	8f8480b0 	lw	a0,-32592(gp)
    18b4:	0c000276 	jal	0x9d8
    18b8:	00000000 	nop
    18bc:	24040001 	li	a0,1
    18c0:	0c0002ba 	jal	0xae8
    18c4:	24050024 	li	a1,36
    18c8:	10400008 	beqz	v0,0x18ec
    18cc:	00000000 	nop
    18d0:	ac520000 	sw	s2,0(v0)
    18d4:	ac400018 	sw	zero,24(v0)
    18d8:	ac51001c 	sw	s1,28(v0)
    18dc:	ac400004 	sw	zero,4(v0)
    18e0:	ac400008 	sw	zero,8(v0)
    18e4:	ac500020 	sw	s0,32(v0)
    18e8:	ac400014 	sw	zero,20(v0)
    18ec:	8fbf002c 	lw	ra,44(sp)
    18f0:	8fb30028 	lw	s3,40(sp)
    18f4:	8fb20024 	lw	s2,36(sp)
    18f8:	8fb10020 	lw	s1,32(sp)
    18fc:	8fb0001c 	lw	s0,28(sp)
    1900:	03e00008 	jr	ra
    1904:	27bd0030 	addiu	sp,sp,48
    1908:	2664c8ac 	addiu	a0,s3,-14164
    190c:	0c000318 	jal	0xc60
    1910:	00002821 	move	a1,zero
    1914:	3c050000 	lui	a1,0x0
    1918:	af8280bc 	sw	v0,-32580(gp)
    191c:	2664c8ac 	addiu	a0,s3,-14164
    1920:	24a51bd8 	addiu	a1,a1,7128
    1924:	00003021 	move	a2,zero
    1928:	240700fa 	li	a3,250
    192c:	240207d0 	li	v0,2000
    1930:	0c000416 	jal	0x1058
    1934:	afa20010 	sw	v0,16(sp)
    1938:	0800062c 	j	0x18b0
    193c:	00000000 	nop
    1940:	03e00008 	jr	ra
    1944:	ac850018 	sw	a1,24(a0)
    1948:	27bdffe8 	addiu	sp,sp,-24
    194c:	afb00010 	sw	s0,16(sp)
    1950:	afbf0014 	sw	ra,20(sp)
    1954:	10800027 	beqz	a0,0x19f4
    1958:	00808021 	move	s0,a0
    195c:	8f828098 	lw	v0,-32616(gp)
    1960:	00000000 	nop
    1964:	14400019 	bnez	v0,0x19cc
    1968:	3c040001 	lui	a0,0x1
    196c:	8f8480b0 	lw	a0,-32592(gp)
    1970:	0c0001eb 	jal	0x7ac
    1974:	2405ffff 	li	a1,-1
    1978:	8e020014 	lw	v0,20(s0)
    197c:	00000000 	nop
    1980:	1040000d 	beqz	v0,0x19b8
    1984:	00000000 	nop
    1988:	8e020008 	lw	v0,8(s0)
    198c:	00000000 	nop
    1990:	10400015 	beqz	v0,0x19e8
    1994:	ae000014 	sw	zero,20(s0)
    1998:	8e030004 	lw	v1,4(s0)
    199c:	00000000 	nop
    19a0:	ac430004 	sw	v1,4(v0)
    19a4:	8e030004 	lw	v1,4(s0)
    19a8:	00000000 	nop
    19ac:	10600002 	beqz	v1,0x19b8
    19b0:	00000000 	nop
    19b4:	ac620008 	sw	v0,8(v1)
    19b8:	8f8480b0 	lw	a0,-32592(gp)
    19bc:	8fbf0014 	lw	ra,20(sp)
    19c0:	8fb00010 	lw	s0,16(sp)
    19c4:	08000276 	j	0x9d8
    19c8:	27bd0018 	addiu	sp,sp,24
    19cc:	3c050001 	lui	a1,0x1
    19d0:	2484c884 	addiu	a0,a0,-14204
    19d4:	24a5c898 	addiu	a1,a1,-14184
    19d8:	0c000dc6 	jal	0x3718
    19dc:	2406045d 	li	a2,1117
    19e0:	0800065b 	j	0x196c
    19e4:	00000000 	nop
    19e8:	8e030004 	lw	v1,4(s0)
    19ec:	0800066b 	j	0x19ac
    19f0:	af8380b8 	sw	v1,-32584(gp)
    19f4:	3c040001 	lui	a0,0x1
    19f8:	3c050001 	lui	a1,0x1
    19fc:	2484c884 	addiu	a0,a0,-14204
    1a00:	24a5c898 	addiu	a1,a1,-14184
    1a04:	0c000dc6 	jal	0x3718
    1a08:	2406045c 	li	a2,1116
    1a0c:	08000657 	j	0x195c
    1a10:	00000000 	nop
    1a14:	27bdffd8 	addiu	sp,sp,-40
    1a18:	afb2001c 	sw	s2,28(sp)
    1a1c:	afb10018 	sw	s1,24(sp)
    1a20:	afb00014 	sw	s0,20(sp)
    1a24:	afbf0024 	sw	ra,36(sp)
    1a28:	afb30020 	sw	s3,32(sp)
    1a2c:	00808021 	move	s0,a0
    1a30:	00a09021 	move	s2,a1
    1a34:	1080005c 	beqz	a0,0x1ba8
    1a38:	00c08821 	move	s1,a2
    1a3c:	8f828098 	lw	v0,-32616(gp)
    1a40:	00000000 	nop
    1a44:	14400051 	bnez	v0,0x1b8c
    1a48:	3c040001 	lui	a0,0x1
    1a4c:	8e020014 	lw	v0,20(s0)
    1a50:	8f9380d0 	lw	s3,-32560(gp)
    1a54:	1440003c 	bnez	v0,0x1b48
    1a58:	00000000 	nop
    1a5c:	8f8480b0 	lw	a0,-32592(gp)
    1a60:	0c0001eb 	jal	0x7ac
    1a64:	2405ffff 	li	a1,-1
    1a68:	8e020014 	lw	v0,20(s0)
    1a6c:	00000000 	nop
    1a70:	1440003e 	bnez	v0,0x1b6c
    1a74:	00000000 	nop
    1a78:	8f8280b8 	lw	v0,-32584(gp)
    1a7c:	02539021 	addu	s2,s2,s3
    1a80:	24030001 	li	v1,1
    1a84:	ae12000c 	sw	s2,12(s0)
    1a88:	ae110010 	sw	s1,16(s0)
    1a8c:	1040004e 	beqz	v0,0x1bc8
    1a90:	ae030014 	sw	v1,20(s0)
    1a94:	8c43000c 	lw	v1,12(v0)
    1a98:	00000000 	nop
    1a9c:	02431823 	subu	v1,s2,v1
    1aa0:	1c600009 	bgtz	v1,0x1ac8
    1aa4:	00401821 	move	v1,v0
    1aa8:	080006c3 	j	0x1b0c
    1aac:	00001021 	move	v0,zero
    1ab0:	8c64000c 	lw	a0,12(v1)
    1ab4:	00000000 	nop
    1ab8:	02442023 	subu	a0,s2,a0
    1abc:	18800013 	blez	a0,0x1b0c
    1ac0:	00000000 	nop
    1ac4:	00601021 	move	v0,v1
    1ac8:	8c430004 	lw	v1,4(v0)
    1acc:	00000000 	nop
    1ad0:	1460fff7 	bnez	v1,0x1ab0
    1ad4:	00000000 	nop
    1ad8:	ae000004 	sw	zero,4(s0)
    1adc:	ae020008 	sw	v0,8(s0)
    1ae0:	1040000e 	beqz	v0,0x1b1c
    1ae4:	00000000 	nop
    1ae8:	8f8480b0 	lw	a0,-32592(gp)
    1aec:	ac500004 	sw	s0,4(v0)
    1af0:	8fbf0024 	lw	ra,36(sp)
    1af4:	8fb30020 	lw	s3,32(sp)
    1af8:	8fb2001c 	lw	s2,28(sp)
    1afc:	8fb10018 	lw	s1,24(sp)
    1b00:	8fb00014 	lw	s0,20(sp)
    1b04:	08000276 	j	0x9d8
    1b08:	27bd0028 	addiu	sp,sp,40
    1b0c:	ae020008 	sw	v0,8(s0)
    1b10:	ae030004 	sw	v1,4(s0)
    1b14:	1440fff4 	bnez	v0,0x1ae8
    1b18:	ac700008 	sw	s0,8(v1)
    1b1c:	8f8480b0 	lw	a0,-32592(gp)
    1b20:	0c000276 	jal	0x9d8
    1b24:	af9080b8 	sw	s0,-32584(gp)
    1b28:	8f8480bc 	lw	a0,-32580(gp)
    1b2c:	8fbf0024 	lw	ra,36(sp)
    1b30:	8fb30020 	lw	s3,32(sp)
    1b34:	8fb2001c 	lw	s2,28(sp)
    1b38:	8fb10018 	lw	s1,24(sp)
    1b3c:	8fb00014 	lw	s0,20(sp)
    1b40:	08000276 	j	0x9d8
    1b44:	27bd0028 	addiu	sp,sp,40
    1b48:	0c000652 	jal	0x1948
    1b4c:	02002021 	move	a0,s0
    1b50:	8f8480b0 	lw	a0,-32592(gp)
    1b54:	0c0001eb 	jal	0x7ac
    1b58:	2405ffff 	li	a1,-1
    1b5c:	8e020014 	lw	v0,20(s0)
    1b60:	00000000 	nop
    1b64:	1040ffc4 	beqz	v0,0x1a78
    1b68:	00000000 	nop
    1b6c:	8f8480b0 	lw	a0,-32592(gp)
    1b70:	8fbf0024 	lw	ra,36(sp)
    1b74:	8fb30020 	lw	s3,32(sp)
    1b78:	8fb2001c 	lw	s2,28(sp)
    1b7c:	8fb10018 	lw	s1,24(sp)
    1b80:	8fb00014 	lw	s0,20(sp)
    1b84:	08000276 	j	0x9d8
    1b88:	27bd0028 	addiu	sp,sp,40
    1b8c:	3c050001 	lui	a1,0x1
    1b90:	2484c884 	addiu	a0,a0,-14204
    1b94:	24a5c898 	addiu	a1,a1,-14184
    1b98:	0c000dc6 	jal	0x3718
    1b9c:	24060431 	li	a2,1073
    1ba0:	08000693 	j	0x1a4c
    1ba4:	00000000 	nop
    1ba8:	3c040001 	lui	a0,0x1
    1bac:	3c050001 	lui	a1,0x1
    1bb0:	2484c884 	addiu	a0,a0,-14204
    1bb4:	24a5c898 	addiu	a1,a1,-14184
    1bb8:	0c000dc6 	jal	0x3718
    1bbc:	24060430 	li	a2,1072
    1bc0:	0800068f 	j	0x1a3c
    1bc4:	00000000 	nop
    1bc8:	00001021 	move	v0,zero
    1bcc:	ae000004 	sw	zero,4(s0)
    1bd0:	080006b8 	j	0x1ae0
    1bd4:	ae020008 	sw	v0,8(s0)
    1bd8:	8f8480b0 	lw	a0,-32592(gp)
    1bdc:	27bdffb0 	addiu	sp,sp,-80
    1be0:	afb20044 	sw	s2,68(sp)
    1be4:	afb10040 	sw	s1,64(sp)
    1be8:	afb0003c 	sw	s0,60(sp)
    1bec:	afbf004c 	sw	ra,76(sp)
    1bf0:	afb30048 	sw	s3,72(sp)
    1bf4:	8f9080d0 	lw	s0,-32560(gp)
    1bf8:	0c0001eb 	jal	0x7ac
    1bfc:	2405ffff 	li	a1,-1
    1c00:	8f8280b8 	lw	v0,-32584(gp)
    1c04:	27b20010 	addiu	s2,sp,16
    1c08:	1040003a 	beqz	v0,0x1cf4
    1c0c:	24110005 	li	s1,5
    1c10:	8c45000c 	lw	a1,12(v0)
    1c14:	00000000 	nop
    1c18:	00b02823 	subu	a1,a1,s0
    1c1c:	8f8480b0 	lw	a0,-32592(gp)
    1c20:	0c000276 	jal	0x9d8
    1c24:	afa50030 	sw	a1,48(sp)
    1c28:	8f8480bc 	lw	a0,-32580(gp)
    1c2c:	8fa50030 	lw	a1,48(sp)
    1c30:	0c0001eb 	jal	0x7ac
    1c34:	00000000 	nop
    1c38:	8f9080d0 	lw	s0,-32560(gp)
    1c3c:	8f8480b0 	lw	a0,-32592(gp)
    1c40:	0c0001eb 	jal	0x7ac
    1c44:	2405ffff 	li	a1,-1
    1c48:	8f9380b8 	lw	s3,-32584(gp)
    1c4c:	00000000 	nop
    1c50:	1260001e 	beqz	s3,0x1ccc
    1c54:	00000000 	nop
    1c58:	8e62000c 	lw	v0,12(s3)
    1c5c:	00000000 	nop
    1c60:	02021023 	subu	v0,s0,v0
    1c64:	04400019 	bltz	v0,0x1ccc
    1c68:	00000000 	nop
    1c6c:	8f8480b0 	lw	a0,-32592(gp)
    1c70:	0c000276 	jal	0x9d8
    1c74:	00000000 	nop
    1c78:	8e620010 	lw	v0,16(s3)
    1c7c:	02602021 	move	a0,s3
    1c80:	00402821 	move	a1,v0
    1c84:	1040001d 	beqz	v0,0x1cfc
    1c88:	00403021 	move	a2,v0
    1c8c:	0c000685 	jal	0x1a14
    1c90:	00000000 	nop
    1c94:	8e620018 	lw	v0,24(s3)
    1c98:	00000000 	nop
    1c9c:	1040001d 	beqz	v0,0x1d14
    1ca0:	02602021 	move	a0,s3
    1ca4:	8e650020 	lw	a1,32(s3)
    1ca8:	0040f809 	jalr	v0
    1cac:	00000000 	nop
    1cb0:	8f8480b0 	lw	a0,-32592(gp)
    1cb4:	0c0001eb 	jal	0x7ac
    1cb8:	2405ffff 	li	a1,-1
    1cbc:	8f9380b8 	lw	s3,-32584(gp)
    1cc0:	00000000 	nop
    1cc4:	1660ffe4 	bnez	s3,0x1c58
    1cc8:	00000000 	nop
    1ccc:	8f8480b0 	lw	a0,-32592(gp)
    1cd0:	0c000276 	jal	0x9d8
    1cd4:	00000000 	nop
    1cd8:	8f8480b0 	lw	a0,-32592(gp)
    1cdc:	0c0001eb 	jal	0x7ac
    1ce0:	2405ffff 	li	a1,-1
    1ce4:	8f8280b8 	lw	v0,-32584(gp)
    1ce8:	00000000 	nop
    1cec:	1440ffc8 	bnez	v0,0x1c10
    1cf0:	00000000 	nop
    1cf4:	08000707 	j	0x1c1c
    1cf8:	2405ffff 	li	a1,-1
    1cfc:	0c000652 	jal	0x1948
    1d00:	02602021 	move	a0,s3
    1d04:	8e620018 	lw	v0,24(s3)
    1d08:	00000000 	nop
    1d0c:	1440ffe5 	bnez	v0,0x1ca4
    1d10:	02602021 	move	a0,s3
    1d14:	8e64001c 	lw	a0,28(s3)
    1d18:	8e620020 	lw	v0,32(s3)
    1d1c:	02402821 	move	a1,s2
    1d20:	afb10010 	sw	s1,16(sp)
    1d24:	afb30014 	sw	s3,20(sp)
    1d28:	0c000554 	jal	0x1550
    1d2c:	afa20018 	sw	v0,24(sp)
    1d30:	0800070f 	j	0x1c3c
    1d34:	00000000 	nop
    1d38:	27bdffe8 	addiu	sp,sp,-24
    1d3c:	afb00010 	sw	s0,16(sp)
    1d40:	afbf0014 	sw	ra,20(sp)
    1d44:	0c000652 	jal	0x1948
    1d48:	00808021 	move	s0,a0
    1d4c:	02002021 	move	a0,s0
    1d50:	8fbf0014 	lw	ra,20(sp)
    1d54:	8fb00010 	lw	s0,16(sp)
    1d58:	0800036a 	j	0xda8
    1d5c:	27bd0018 	addiu	sp,sp,24
    1d60:	3c030002 	lui	v1,0x2
    1d64:	2463d8a0 	addiu	v1,v1,-10080
    1d68:	00001021 	move	v0,zero
    1d6c:	24080001 	li	t0,1
    1d70:	24070020 	li	a3,32
    1d74:	00483004 	sllv	a2,t0,v0
    1d78:	00c43024 	and	a2,a2,a0
    1d7c:	10c00002 	beqz	a2,0x1d88
    1d80:	24420001 	addiu	v0,v0,1
    1d84:	ac650000 	sw	a1,0(v1)
    1d88:	1447fffa 	bne	v0,a3,0x1d74
    1d8c:	24630004 	addiu	v1,v1,4
    1d90:	03e00008 	jr	ra
    1d94:	00000000 	nop
    1d98:	3c022000 	lui	v0,0x2000
    1d9c:	8c420020 	lw	v0,32(v0)
    1da0:	03e00008 	jr	ra
    1da4:	00000000 	nop
    1da8:	27bdffe8 	addiu	sp,sp,-24
    1dac:	afb00010 	sw	s0,16(sp)
    1db0:	00808021 	move	s0,a0
    1db4:	afbf0014 	sw	ra,20(sp)
    1db8:	0c00004a 	jal	0x128
    1dbc:	00002021 	move	a0,zero
    1dc0:	3c032000 	lui	v1,0x2000
    1dc4:	8c650010 	lw	a1,16(v1)
    1dc8:	00402021 	move	a0,v0
    1dcc:	02058025 	or	s0,s0,a1
    1dd0:	ac700010 	sw	s0,16(v1)
    1dd4:	0c00004a 	jal	0x128
    1dd8:	00000000 	nop
    1ddc:	8fbf0014 	lw	ra,20(sp)
    1de0:	02001021 	move	v0,s0
    1de4:	8fb00010 	lw	s0,16(sp)
    1de8:	03e00008 	jr	ra
    1dec:	27bd0018 	addiu	sp,sp,24
    1df0:	27bdffe0 	addiu	sp,sp,-32
    1df4:	afb10018 	sw	s1,24(sp)
    1df8:	00808821 	move	s1,a0
    1dfc:	00002021 	move	a0,zero
    1e00:	afbf001c 	sw	ra,28(sp)
    1e04:	0c00004a 	jal	0x128
    1e08:	afb00014 	sw	s0,20(sp)
    1e0c:	3c032000 	lui	v1,0x2000
    1e10:	8c640010 	lw	a0,16(v1)
    1e14:	00118027 	nor	s0,zero,s1
    1e18:	02048024 	and	s0,s0,a0
    1e1c:	ac700010 	sw	s0,16(v1)
    1e20:	0c00004a 	jal	0x128
    1e24:	00402021 	move	a0,v0
    1e28:	8fbf001c 	lw	ra,28(sp)
    1e2c:	02001021 	move	v0,s0
    1e30:	8fb10018 	lw	s1,24(sp)
    1e34:	8fb00014 	lw	s0,20(sp)
    1e38:	03e00008 	jr	ra
    1e3c:	27bd0020 	addiu	sp,sp,32
    1e40:	27bdffd8 	addiu	sp,sp,-40
    1e44:	afb3001c 	sw	s3,28(sp)
    1e48:	afb00010 	sw	s0,16(sp)
    1e4c:	afbf0024 	sw	ra,36(sp)
    1e50:	afb40020 	sw	s4,32(sp)
    1e54:	afb20018 	sw	s2,24(sp)
    1e58:	afb10014 	sw	s1,20(sp)
    1e5c:	00808021 	move	s0,a0
    1e60:	10800026 	beqz	a0,0x1efc
    1e64:	00a09821 	move	s3,a1
    1e68:	3c110002 	lui	s1,0x2
    1e6c:	2631d8a0 	addiu	s1,s1,-10080
    1e70:	24020001 	li	v0,1
    1e74:	af828098 	sw	v0,-32616(gp)
    1e78:	00009021 	move	s2,zero
    1e7c:	080007a7 	j	0x1e9c
    1e80:	24140001 	li	s4,1
    1e84:	0040f809 	jalr	v0
    1e88:	00000000 	nop
    1e8c:	00108042 	srl	s0,s0,0x1
    1e90:	1200000e 	beqz	s0,0x1ecc
    1e94:	26310004 	addiu	s1,s1,4
    1e98:	26520001 	addiu	s2,s2,1
    1e9c:	32020001 	andi	v0,s0,0x1
    1ea0:	1040fffa 	beqz	v0,0x1e8c
    1ea4:	02602021 	move	a0,s3
    1ea8:	8e220000 	lw	v0,0(s1)
    1eac:	00000000 	nop
    1eb0:	1440fff4 	bnez	v0,0x1e84
    1eb4:	00000000 	nop
    1eb8:	02542004 	sllv	a0,s4,s2
    1ebc:	0c00077c 	jal	0x1df0
    1ec0:	00108042 	srl	s0,s0,0x1
    1ec4:	1600fff4 	bnez	s0,0x1e98
    1ec8:	26310004 	addiu	s1,s1,4
    1ecc:	8f84809c 	lw	a0,-32612(gp)
    1ed0:	00000000 	nop
    1ed4:	14800013 	bnez	a0,0x1f24
    1ed8:	af808098 	sw	zero,-32616(gp)
    1edc:	8fbf0024 	lw	ra,36(sp)
    1ee0:	8fb40020 	lw	s4,32(sp)
    1ee4:	8fb3001c 	lw	s3,28(sp)
    1ee8:	8fb20018 	lw	s2,24(sp)
    1eec:	8fb10014 	lw	s1,20(sp)
    1ef0:	8fb00010 	lw	s0,16(sp)
    1ef4:	03e00008 	jr	ra
    1ef8:	27bd0028 	addiu	sp,sp,40
    1efc:	3c110002 	lui	s1,0x2
    1f00:	2631d8a0 	addiu	s1,s1,-10080
    1f04:	8e22007c 	lw	v0,124(s1)
    1f08:	00000000 	nop
    1f0c:	1040ffd8 	beqz	v0,0x1e70
    1f10:	00000000 	nop
    1f14:	0040f809 	jalr	v0
    1f18:	00a02021 	move	a0,a1
    1f1c:	0800079d 	j	0x1e74
    1f20:	24020001 	li	v0,1
    1f24:	8fbf0024 	lw	ra,36(sp)
    1f28:	8fb40020 	lw	s4,32(sp)
    1f2c:	8fb3001c 	lw	s3,28(sp)
    1f30:	8fb20018 	lw	s2,24(sp)
    1f34:	8fb10014 	lw	s1,20(sp)
    1f38:	8fb00010 	lw	s0,16(sp)
    1f3c:	30840001 	andi	a0,a0,0x1
    1f40:	080000f6 	j	0x3d8
    1f44:	27bd0028 	addiu	sp,sp,40
    1f48:	27bdffe8 	addiu	sp,sp,-24
    1f4c:	afb00010 	sw	s0,16(sp)
    1f50:	afbf0014 	sw	ra,20(sp)
    1f54:	3c102000 	lui	s0,0x2000
    1f58:	00002021 	move	a0,zero
    1f5c:	8e020014 	lw	v0,20(s0)
    1f60:	0c00076a 	jal	0x1da8
    1f64:	00000000 	nop
    1f68:	3044000f 	andi	a0,v0,0xf
    1f6c:	1080fffa 	beqz	a0,0x1f58
    1f70:	00000000 	nop
    1f74:	0c000790 	jal	0x1e40
    1f78:	00002821 	move	a1,zero
    1f7c:	080007d7 	j	0x1f5c
    1f80:	00002021 	move	a0,zero
    1f84:	3c031000 	lui	v1,0x1000
    1f88:	3c020000 	lui	v0,0x0
    1f8c:	24630001 	addiu	v1,v1,1
    1f90:	24421f84 	addiu	v0,v0,8068
    1f94:	27bdffd8 	addiu	sp,sp,-40
    1f98:	0043102a 	slt	v0,v0,v1
    1f9c:	afb10020 	sw	s1,32(sp)
    1fa0:	afb0001c 	sw	s0,28(sp)
    1fa4:	afbf0024 	sw	ra,36(sp)
    1fa8:	00808021 	move	s0,a0
    1fac:	14400003 	bnez	v0,0x1fbc
    1fb0:	00a08821 	move	s1,a1
    1fb4:	0c00004f 	jal	0x13c
    1fb8:	00000000 	nop
    1fbc:	0c00077c 	jal	0x1df0
    1fc0:	2404ffff 	li	a0,-1
    1fc4:	3c040001 	lui	a0,0x1
    1fc8:	02203021 	move	a2,s1
    1fcc:	2484c8b4 	addiu	a0,a0,-14156
    1fd0:	0c000340 	jal	0xd00
    1fd4:	02002821 	move	a1,s0
    1fd8:	3c030002 	lui	v1,0x2
    1fdc:	2466d880 	addiu	a2,v1,-10112
    1fe0:	3c040001 	lui	a0,0x1
    1fe4:	acc20004 	sw	v0,4(a2)
    1fe8:	2484c8bc 	addiu	a0,a0,-14148
    1fec:	00002821 	move	a1,zero
    1ff0:	0c000318 	jal	0xc60
    1ff4:	ac62d880 	sw	v0,-10112(v1)
    1ff8:	3c040001 	lui	a0,0x1
    1ffc:	2484c8c4 	addiu	a0,a0,-14140
    2000:	24050001 	li	a1,1
    2004:	0c000318 	jal	0xc60
    2008:	af8280a8 	sw	v0,-32600(gp)
    200c:	3c040001 	lui	a0,0x1
    2010:	2484c8cc 	addiu	a0,a0,-14132
    2014:	24050001 	li	a1,1
    2018:	0c000318 	jal	0xc60
    201c:	af8280ac 	sw	v0,-32596(gp)
    2020:	3c040001 	lui	a0,0x1
    2024:	3c050000 	lui	a1,0x0
    2028:	af8280b0 	sw	v0,-32592(gp)
    202c:	2484c8d4 	addiu	a0,a0,-14124
    2030:	24020100 	li	v0,256
    2034:	24a50208 	addiu	a1,a1,520
    2038:	00003021 	move	a2,zero
    203c:	00003821 	move	a3,zero
    2040:	0c000416 	jal	0x1058
    2044:	afa20010 	sw	v0,16(sp)
    2048:	3c022000 	lui	v0,0x2000
    204c:	8c420020 	lw	v0,32(v0)
    2050:	00000000 	nop
    2054:	3042000c 	andi	v0,v0,0xc
    2058:	1040001a 	beqz	v0,0x20c4
    205c:	00000000 	nop
    2060:	00001021 	move	v0,zero
    2064:	24050001 	li	a1,1
    2068:	24420001 	addiu	v0,v0,1
    206c:	3c030002 	lui	v1,0x2
    2070:	3c070000 	lui	a3,0x0
    2074:	00452004 	sllv	a0,a1,v0
    2078:	24060020 	li	a2,32
    207c:	2463d8a4 	addiu	v1,v1,-10076
    2080:	24e70784 	addiu	a3,a3,1924
    2084:	10460009 	beq	v0,a2,0x20ac
    2088:	3084000c 	andi	a0,a0,0xc
    208c:	10800002 	beqz	a0,0x2098
    2090:	00000000 	nop
    2094:	ac670000 	sw	a3,0(v1)
    2098:	24420001 	addiu	v0,v0,1
    209c:	00452004 	sllv	a0,a1,v0
    20a0:	24630004 	addiu	v1,v1,4
    20a4:	1446fff9 	bne	v0,a2,0x208c
    20a8:	3084000c 	andi	a0,a0,0xc
    20ac:	8fbf0024 	lw	ra,36(sp)
    20b0:	8fb10020 	lw	s1,32(sp)
    20b4:	8fb0001c 	lw	s0,28(sp)
    20b8:	2404000c 	li	a0,12
    20bc:	0800076a 	j	0x1da8
    20c0:	27bd0028 	addiu	sp,sp,40
    20c4:	3c040001 	lui	a0,0x1
    20c8:	0c000dc6 	jal	0x3718
    20cc:	2484c8dc 	addiu	a0,a0,-14116
    20d0:	3c040001 	lui	a0,0x1
    20d4:	3c050000 	lui	a1,0x0
    20d8:	2484c8e4 	addiu	a0,a0,-14108
    20dc:	24a51f48 	addiu	a1,a1,8008
    20e0:	00003021 	move	a2,zero
    20e4:	24070001 	li	a3,1
    20e8:	0c000416 	jal	0x1058
    20ec:	afa00010 	sw	zero,16(sp)
    20f0:	08000819 	j	0x2064
    20f4:	00001021 	move	v0,zero
    20f8:	24020001 	li	v0,1
    20fc:	24040001 	li	a0,1
    2100:	080000f6 	j	0x3d8
    2104:	af828094 	sw	v0,-32620(gp)
    2108:	03e00008 	jr	ra
    210c:	00000000 	nop
    2110:	3c040001 	lui	a0,0x1
    2114:	27bdffe0 	addiu	sp,sp,-32
    2118:	afbf001c 	sw	ra,28(sp)
    211c:	0c000dc6 	jal	0x3718
    2120:	2484c8ec 	addiu	a0,a0,-14100
    2124:	3c040001 	lui	a0,0x1
    2128:	2484d880 	addiu	a0,a0,-10112
    212c:	0c0007e1 	jal	0x1f84
    2130:	3c050001 	lui	a1,0x1
    2134:	0c000cc3 	jal	0x330c
    2138:	00000000 	nop
    213c:	3c040001 	lui	a0,0x1
    2140:	3c050000 	lui	a1,0x0
    2144:	2484c8fc 	addiu	a0,a0,-14084
    2148:	24a54664 	addiu	a1,a1,18020
    214c:	00003021 	move	a2,zero
    2150:	24070064 	li	a3,100
    2154:	24020fa0 	li	v0,4000
    2158:	0c000416 	jal	0x1058
    215c:	afa20010 	sw	v0,16(sp)
    2160:	0c00083e 	jal	0x20f8
    2164:	00000000 	nop
    2168:	8fbf001c 	lw	ra,28(sp)
    216c:	00001021 	move	v0,zero
    2170:	03e00008 	jr	ra
    2174:	27bd0020 	addiu	sp,sp,32
    2178:	00801021 	move	v0,a0
    217c:	00801821 	move	v1,a0
    2180:	80a40000 	lb	a0,0(a1)
    2184:	24a50001 	addiu	a1,a1,1
    2188:	a0640000 	sb	a0,0(v1)
    218c:	1480fffc 	bnez	a0,0x2180
    2190:	24630001 	addiu	v1,v1,1
    2194:	03e00008 	jr	ra
    2198:	00000000 	nop
    219c:	18c0000d 	blez	a2,0x21d4
    21a0:	00801021 	move	v0,a0
    21a4:	24c6ffff 	addiu	a2,a2,-1
    21a8:	0800086e 	j	0x21b8
    21ac:	00801821 	move	v1,a0
    21b0:	10800006 	beqz	a0,0x21cc
    21b4:	24c6ffff 	addiu	a2,a2,-1
    21b8:	80a40000 	lb	a0,0(a1)
    21bc:	24a50001 	addiu	a1,a1,1
    21c0:	a0640000 	sb	a0,0(v1)
    21c4:	1cc0fffa 	bgtz	a2,0x21b0
    21c8:	24630001 	addiu	v1,v1,1
    21cc:	03e00008 	jr	ra
    21d0:	a0600000 	sb	zero,0(v1)
    21d4:	08000873 	j	0x21cc
    21d8:	00801821 	move	v1,a0
    21dc:	80830000 	lb	v1,0(a0)
    21e0:	00000000 	nop
    21e4:	1060000f 	beqz	v1,0x2224
    21e8:	00801021 	move	v0,a0
    21ec:	00801821 	move	v1,a0
    21f0:	24630001 	addiu	v1,v1,1
    21f4:	80640000 	lb	a0,0(v1)
    21f8:	00000000 	nop
    21fc:	1480fffd 	bnez	a0,0x21f4
    2200:	24630001 	addiu	v1,v1,1
    2204:	2463ffff 	addiu	v1,v1,-1
    2208:	80a40000 	lb	a0,0(a1)
    220c:	24a50001 	addiu	a1,a1,1
    2210:	a0640000 	sb	a0,0(v1)
    2214:	1480fffc 	bnez	a0,0x2208
    2218:	24630001 	addiu	v1,v1,1
    221c:	03e00008 	jr	ra
    2220:	00000000 	nop
    2224:	08000882 	j	0x2208
    2228:	00801821 	move	v1,a0
    222c:	80830000 	lb	v1,0(a0)
    2230:	00000000 	nop
    2234:	10600018 	beqz	v1,0x2298
    2238:	00801021 	move	v0,a0
    223c:	00801821 	move	v1,a0
    2240:	24630001 	addiu	v1,v1,1
    2244:	80640000 	lb	a0,0(v1)
    2248:	00000000 	nop
    224c:	1480fffd 	bnez	a0,0x2244
    2250:	24630001 	addiu	v1,v1,1
    2254:	2463ffff 	addiu	v1,v1,-1
    2258:	24c6ffff 	addiu	a2,a2,-1
    225c:	04c10005 	bgez	a2,0x2274
    2260:	00000000 	nop
    2264:	03e00008 	jr	ra
    2268:	a0600000 	sb	zero,0(v1)
    226c:	10800007 	beqz	a0,0x228c
    2270:	00000000 	nop
    2274:	80a40000 	lb	a0,0(a1)
    2278:	24c6ffff 	addiu	a2,a2,-1
    227c:	a0640000 	sb	a0,0(v1)
    2280:	24a50001 	addiu	a1,a1,1
    2284:	04c1fff9 	bgez	a2,0x226c
    2288:	24630001 	addiu	v1,v1,1
    228c:	a0600000 	sb	zero,0(v1)
    2290:	03e00008 	jr	ra
    2294:	00000000 	nop
    2298:	08000896 	j	0x2258
    229c:	00801821 	move	v1,a0
    22a0:	80a30000 	lb	v1,0(a1)
    22a4:	80820000 	lb	v0,0(a0)
    22a8:	24a50001 	addiu	a1,a1,1
    22ac:	00431023 	subu	v0,v0,v1
    22b0:	14400003 	bnez	v0,0x22c0
    22b4:	24840001 	addiu	a0,a0,1
    22b8:	1460fff9 	bnez	v1,0x22a0
    22bc:	00000000 	nop
    22c0:	03e00008 	jr	ra
    22c4:	00000000 	nop
    22c8:	18c0000c 	blez	a2,0x22fc
    22cc:	00001021 	move	v0,zero
    22d0:	80a30000 	lb	v1,0(a1)
    22d4:	80820000 	lb	v0,0(a0)
    22d8:	00000000 	nop
    22dc:	00431023 	subu	v0,v0,v1
    22e0:	14400006 	bnez	v0,0x22fc
    22e4:	24c6ffff 	addiu	a2,a2,-1
    22e8:	10600004 	beqz	v1,0x22fc
    22ec:	24840001 	addiu	a0,a0,1
    22f0:	1cc0fff7 	bgtz	a2,0x22d0
    22f4:	24a50001 	addiu	a1,a1,1
    22f8:	00001021 	move	v0,zero
    22fc:	03e00008 	jr	ra
    2300:	00000000 	nop
    2304:	80a30000 	lb	v1,0(a1)
    2308:	80820000 	lb	v0,0(a0)
    230c:	00000000 	nop
    2310:	1462000e 	bne	v1,v0,0x234c
    2314:	00604021 	move	t0,v1
    2318:	10600017 	beqz	v1,0x2378
    231c:	00003021 	move	a2,zero
    2320:	080008cc 	j	0x2330
    2324:	24c60001 	addiu	a2,a2,1
    2328:	10e00013 	beqz	a3,0x2378
    232c:	24c60001 	addiu	a2,a2,1
    2330:	00863821 	addu	a3,a0,a2
    2334:	00a64021 	addu	t0,a1,a2
    2338:	80e70000 	lb	a3,0(a3)
    233c:	81080000 	lb	t0,0(t0)
    2340:	00000000 	nop
    2344:	10e8fff8 	beq	a3,t0,0x2328
    2348:	00000000 	nop
    234c:	1100000a 	beqz	t0,0x2378
    2350:	00000000 	nop
    2354:	10400007 	beqz	v0,0x2374
    2358:	24840001 	addiu	a0,a0,1
    235c:	80820000 	lb	v0,0(a0)
    2360:	00000000 	nop
    2364:	1062ffec 	beq	v1,v0,0x2318
    2368:	00604021 	move	t0,v1
    236c:	080008d3 	j	0x234c
    2370:	00000000 	nop
    2374:	00002021 	move	a0,zero
    2378:	03e00008 	jr	ra
    237c:	00801021 	move	v0,a0
    2380:	00801821 	move	v1,a0
    2384:	80650000 	lb	a1,0(v1)
    2388:	00000000 	nop
    238c:	14a0fffd 	bnez	a1,0x2384
    2390:	24630001 	addiu	v1,v1,1
    2394:	00041027 	nor	v0,zero,a0
    2398:	03e00008 	jr	ra
    239c:	00621021 	addu	v0,v1,v0
    23a0:	00a61825 	or	v1,a1,a2
    23a4:	00831825 	or	v1,a0,v1
    23a8:	30630003 	andi	v1,v1,0x3
    23ac:	1060000b 	beqz	v1,0x23dc
    23b0:	00801021 	move	v0,a0
    23b4:	18c00007 	blez	a2,0x23d4
    23b8:	00001821 	move	v1,zero
    23bc:	00a33821 	addu	a3,a1,v1
    23c0:	90e80000 	lbu	t0,0(a3)
    23c4:	00433821 	addu	a3,v0,v1
    23c8:	24630001 	addiu	v1,v1,1
    23cc:	1466fffb 	bne	v1,a2,0x23bc
    23d0:	a0e80000 	sb	t0,0(a3)
    23d4:	03e00008 	jr	ra
    23d8:	00000000 	nop
    23dc:	00063082 	srl	a2,a2,0x2
    23e0:	18c0fffc 	blez	a2,0x23d4
    23e4:	00803821 	move	a3,a0
    23e8:	00001821 	move	v1,zero
    23ec:	8ca80000 	lw	t0,0(a1)
    23f0:	24630001 	addiu	v1,v1,1
    23f4:	ace80000 	sw	t0,0(a3)
    23f8:	24a50004 	addiu	a1,a1,4
    23fc:	1466fffb 	bne	v1,a2,0x23ec
    2400:	24e70004 	addiu	a3,a3,4
    2404:	03e00008 	jr	ra
    2408:	00000000 	nop
    240c:	0085182b 	sltu	v1,a0,a1
    2410:	1060000b 	beqz	v1,0x2440
    2414:	00801021 	move	v0,a0
    2418:	18c00007 	blez	a2,0x2438
    241c:	00001821 	move	v1,zero
    2420:	00a32021 	addu	a0,a1,v1
    2424:	90870000 	lbu	a3,0(a0)
    2428:	00432021 	addu	a0,v0,v1
    242c:	24630001 	addiu	v1,v1,1
    2430:	1466fffb 	bne	v1,a2,0x2420
    2434:	a0870000 	sb	a3,0(a0)
    2438:	03e00008 	jr	ra
    243c:	00000000 	nop
    2440:	18c0fffd 	blez	a2,0x2438
    2444:	00864021 	addu	t0,a0,a2
    2448:	00a62821 	addu	a1,a1,a2
    244c:	00001821 	move	v1,zero
    2450:	00063023 	negu	a2,a2
    2454:	00a32021 	addu	a0,a1,v1
    2458:	9087ffff 	lbu	a3,-1(a0)
    245c:	01032021 	addu	a0,t0,v1
    2460:	2463ffff 	addiu	v1,v1,-1
    2464:	1466fffb 	bne	v1,a2,0x2454
    2468:	a087ffff 	sb	a3,-1(a0)
    246c:	03e00008 	jr	ra
    2470:	00000000 	nop
    2474:	00001821 	move	v1,zero
    2478:	00831021 	addu	v0,a0,v1
    247c:	18c00009 	blez	a2,0x24a4
    2480:	00a33821 	addu	a3,a1,v1
    2484:	90480000 	lbu	t0,0(v0)
    2488:	90e20000 	lbu	v0,0(a3)
    248c:	24630001 	addiu	v1,v1,1
    2490:	01021023 	subu	v0,t0,v0
    2494:	1040fff8 	beqz	v0,0x2478
    2498:	24c6ffff 	addiu	a2,a2,-1
    249c:	03e00008 	jr	ra
    24a0:	00000000 	nop
    24a4:	03e00008 	jr	ra
    24a8:	00001021 	move	v0,zero
    24ac:	18c00008 	blez	a2,0x24d0
    24b0:	00801021 	move	v0,a0
    24b4:	00801821 	move	v1,a0
    24b8:	30a500ff 	andi	a1,a1,0xff
    24bc:	00863021 	addu	a2,a0,a2
    24c0:	a0650000 	sb	a1,0(v1)
    24c4:	24630001 	addiu	v1,v1,1
    24c8:	1466fffd 	bne	v1,a2,0x24c0
    24cc:	00000000 	nop
    24d0:	03e00008 	jr	ra
    24d4:	00000000 	nop
    24d8:	04800003 	bltz	a0,0x24e8
    24dc:	00801021 	move	v0,a0
    24e0:	03e00008 	jr	ra
    24e4:	00000000 	nop
    24e8:	03e00008 	jr	ra
    24ec:	00041023 	negu	v0,a0
    24f0:	8f828004 	lw	v0,-32764(gp)
    24f4:	00000000 	nop
    24f8:	00022080 	sll	a0,v0,0x2
    24fc:	00021900 	sll	v1,v0,0x4
    2500:	00831821 	addu	v1,a0,v1
    2504:	00032180 	sll	a0,v1,0x6
    2508:	00831823 	subu	v1,a0,v1
    250c:	00621821 	addu	v1,v1,v0
    2510:	00032140 	sll	a0,v1,0x5
    2514:	00641821 	addu	v1,v1,a0
    2518:	000318c0 	sll	v1,v1,0x3
    251c:	00621021 	addu	v0,v1,v0
    2520:	00021880 	sll	v1,v0,0x2
    2524:	00431021 	addu	v0,v0,v1
    2528:	3c033c6e 	lui	v1,0x3c6e
    252c:	3463f35f 	ori	v1,v1,0xf35f
    2530:	00431021 	addu	v0,v0,v1
    2534:	03e00008 	jr	ra
    2538:	af828004 	sw	v0,-32764(gp)
    253c:	03e00008 	jr	ra
    2540:	af848004 	sw	a0,-32764(gp)
    2544:	80830000 	lb	v1,0(a0)
    2548:	2402002d 	li	v0,45
    254c:	10620027 	beq	v1,v0,0x25ec
    2550:	24020030 	li	v0,48
    2554:	1062002a 	beq	v1,v0,0x2600
    2558:	00005021 	move	t2,zero
    255c:	00001021 	move	v0,zero
    2560:	00004021 	move	t0,zero
    2564:	08000964 	j	0x2590
    2568:	24090009 	li	t1,9
    256c:	2467ffc9 	addiu	a3,v1,-55
    2570:	00460018 	mult	v0,a2
    2574:	25080001 	addiu	t0,t0,1
    2578:	00001012 	mflo	v0
    257c:	11090013 	beq	t0,t1,0x25cc
    2580:	00e21021 	addu	v0,a3,v0
    2584:	24840001 	addiu	a0,a0,1
    2588:	80830000 	lb	v1,0(a0)
    258c:	00000000 	nop
    2590:	2467ffd0 	addiu	a3,v1,-48
    2594:	246cffbf 	addiu	t4,v1,-65
    2598:	2ceb000a 	sltiu	t3,a3,10
    259c:	1560fff4 	bnez	t3,0x2570
    25a0:	2d8c001a 	sltiu	t4,t4,26
    25a4:	2467ff9f 	addiu	a3,v1,-97
    25a8:	1580fff0 	bnez	t4,0x256c
    25ac:	2ce7001a 	sltiu	a3,a3,26
    25b0:	10e00006 	beqz	a3,0x25cc
    25b4:	00460018 	mult	v0,a2
    25b8:	2467ffa9 	addiu	a3,v1,-87
    25bc:	25080001 	addiu	t0,t0,1
    25c0:	00001012 	mflo	v0
    25c4:	1509ffef 	bne	t0,t1,0x2584
    25c8:	00e21021 	addu	v0,a3,v0
    25cc:	10a00002 	beqz	a1,0x25d8
    25d0:	00000000 	nop
    25d4:	aca40000 	sw	a0,0(a1)
    25d8:	11400002 	beqz	t2,0x25e4
    25dc:	00000000 	nop
    25e0:	00021023 	negu	v0,v0
    25e4:	03e00008 	jr	ra
    25e8:	00000000 	nop
    25ec:	24840001 	addiu	a0,a0,1
    25f0:	80830000 	lb	v1,0(a0)
    25f4:	00000000 	nop
    25f8:	1462ffd8 	bne	v1,v0,0x255c
    25fc:	240a0001 	li	t2,1
    2600:	80870001 	lb	a3,1(a0)
    2604:	24020078 	li	v0,120
    2608:	14e2ffd4 	bne	a3,v0,0x255c
    260c:	00000000 	nop
    2610:	24840002 	addiu	a0,a0,2
    2614:	80830000 	lb	v1,0(a0)
    2618:	08000957 	j	0x255c
    261c:	24060010 	li	a2,16
    2620:	00002821 	move	a1,zero
    2624:	08000951 	j	0x2544
    2628:	2406000a 	li	a2,10
    262c:	2403000a 	li	v1,10
    2630:	27bdffe8 	addiu	sp,sp,-24
    2634:	10c30035 	beq	a2,v1,0x270c
    2638:	00a01021 	move	v0,a1
    263c:	00005021 	move	t2,zero
    2640:	a3a00010 	sb	zero,16(sp)
    2644:	2403000f 	li	v1,15
    2648:	240b000f 	li	t3,15
    264c:	240c000a 	li	t4,10
    2650:	2408ffff 	li	t0,-1
    2654:	14800005 	bnez	a0,0x266c
    2658:	00000000 	nop
    265c:	106b0003 	beq	v1,t3,0x266c
    2660:	00000000 	nop
    2664:	10cc0025 	beq	a2,t4,0x26fc
    2668:	00000000 	nop
    266c:	14c00002 	bnez	a2,0x2678
    2670:	0086001b 	divu	zero,a0,a2
    2674:	0007000d 	break	0x7
    2678:	00003810 	mfhi	a3
    267c:	28e5000a 	slti	a1,a3,10
    2680:	10a0001a 	beqz	a1,0x26ec
    2684:	00000000 	nop
    2688:	24e70030 	addiu	a3,a3,48
    268c:	00073e00 	sll	a3,a3,0x18
    2690:	00073e03 	sra	a3,a3,0x18
    2694:	14c00002 	bnez	a2,0x26a0
    2698:	0086001b 	divu	zero,a0,a2
    269c:	0007000d 	break	0x7
    26a0:	03a32821 	addu	a1,sp,v1
    26a4:	00002012 	mflo	a0
    26a8:	14800003 	bnez	a0,0x26b8
    26ac:	a0a70000 	sb	a3,0(a1)
    26b0:	11400005 	beqz	t2,0x26c8
    26b4:	00000000 	nop
    26b8:	2463ffff 	addiu	v1,v1,-1
    26bc:	1468ffe5 	bne	v1,t0,0x2654
    26c0:	00000000 	nop
    26c4:	03a32821 	addu	a1,sp,v1
    26c8:	00a02021 	move	a0,a1
    26cc:	00401821 	move	v1,v0
    26d0:	80850000 	lb	a1,0(a0)
    26d4:	24840001 	addiu	a0,a0,1
    26d8:	a0650000 	sb	a1,0(v1)
    26dc:	14a0fffc 	bnez	a1,0x26d0
    26e0:	24630001 	addiu	v1,v1,1
    26e4:	03e00008 	jr	ra
    26e8:	27bd0018 	addiu	sp,sp,24
    26ec:	24e70057 	addiu	a3,a3,87
    26f0:	00073e00 	sll	a3,a3,0x18
    26f4:	080009a5 	j	0x2694
    26f8:	00073e03 	sra	a3,a3,0x18
    26fc:	1140ffdb 	beqz	t2,0x266c
    2700:	2407002d 	li	a3,45
    2704:	080009a5 	j	0x2694
    2708:	00005021 	move	t2,zero
    270c:	0481ffcb 	bgez	a0,0x263c
    2710:	240a0001 	li	t2,1
    2714:	08000990 	j	0x2640
    2718:	00042023 	negu	a0,a0
    271c:	27bdff88 	addiu	sp,sp,-120
    2720:	8fa30088 	lw	v1,136(sp)
    2724:	afb00050 	sw	s0,80(sp)
    2728:	afbf0074 	sw	ra,116(sp)
    272c:	afbe0070 	sw	s8,112(sp)
    2730:	afb7006c 	sw	s7,108(sp)
    2734:	afb60068 	sw	s6,104(sp)
    2738:	afb50064 	sw	s5,100(sp)
    273c:	afb40060 	sw	s4,96(sp)
    2740:	afb3005c 	sw	s3,92(sp)
    2744:	afb20058 	sw	s2,88(sp)
    2748:	afb10054 	sw	s1,84(sp)
    274c:	80a20000 	lb	v0,0(a1)
    2750:	afa3002c 	sw	v1,44(sp)
    2754:	8fa3008c 	lw	v1,140(sp)
    2758:	00808021 	move	s0,a0
    275c:	afa30030 	sw	v1,48(sp)
    2760:	8fa30090 	lw	v1,144(sp)
    2764:	afa60024 	sw	a2,36(sp)
    2768:	afa30034 	sw	v1,52(sp)
    276c:	8fa30094 	lw	v1,148(sp)
    2770:	afa70028 	sw	a3,40(sp)
    2774:	afa30038 	sw	v1,56(sp)
    2778:	8fa30098 	lw	v1,152(sp)
    277c:	00000000 	nop
    2780:	afa3003c 	sw	v1,60(sp)
    2784:	8fa3009c 	lw	v1,156(sp)
    2788:	104000e4 	beqz	v0,0x2b1c
    278c:	afa30040 	sw	v1,64(sp)
    2790:	27b60010 	addiu	s6,sp,16
    2794:	00162027 	nor	a0,zero,s6
    2798:	24140025 	li	s4,37
    279c:	24b10001 	addiu	s1,a1,1
    27a0:	0000b821 	move	s7,zero
    27a4:	2413000a 	li	s3,10
    27a8:	241e000d 	li	s8,13
    27ac:	2403002e 	li	v1,46
    27b0:	afa40048 	sw	a0,72(sp)
    27b4:	1054000d 	beq	v0,s4,0x27ec
    27b8:	24150030 	li	s5,48
    27bc:	10530052 	beq	v0,s3,0x2908
    27c0:	00000000 	nop
    27c4:	a2020000 	sb	v0,0(s0)
    27c8:	105e0047 	beq	v0,s8,0x28e8
    27cc:	26100001 	addiu	s0,s0,1
    27d0:	a2000000 	sb	zero,0(s0)
    27d4:	82220000 	lb	v0,0(s1)
    27d8:	00000000 	nop
    27dc:	10400035 	beqz	v0,0x28b4
    27e0:	00000000 	nop
    27e4:	1454fff5 	bne	v0,s4,0x27bc
    27e8:	26310001 	addiu	s1,s1,1
    27ec:	82220000 	lb	v0,0(s1)
    27f0:	00000000 	nop
    27f4:	2444ffd0 	addiu	a0,v0,-48
    27f8:	308400ff 	andi	a0,a0,0xff
    27fc:	2c84000a 	sltiu	a0,a0,10
    2800:	108000c4 	beqz	a0,0x2b14
    2804:	26310001 	addiu	s1,s1,1
    2808:	00009021 	move	s2,zero
    280c:	00122040 	sll	a0,s2,0x1
    2810:	001290c0 	sll	s2,s2,0x3
    2814:	00929021 	addu	s2,a0,s2
    2818:	02429021 	addu	s2,s2,v0
    281c:	82220000 	lb	v0,0(s1)
    2820:	2652ffd0 	addiu	s2,s2,-48
    2824:	2444ffd0 	addiu	a0,v0,-48
    2828:	308400ff 	andi	a0,a0,0xff
    282c:	2c84000a 	sltiu	a0,a0,10
    2830:	1480fff6 	bnez	a0,0x280c
    2834:	26310001 	addiu	s1,s1,1
    2838:	1043005f 	beq	v0,v1,0x29b8
    283c:	24040030 	li	a0,48
    2840:	24040020 	li	a0,32
    2844:	1040001b 	beqz	v0,0x28b4
    2848:	24050064 	li	a1,100
    284c:	1045005d 	beq	v0,a1,0x29c4
    2850:	00000000 	nop
    2854:	24040078 	li	a0,120
    2858:	10440030 	beq	v0,a0,0x291c
    285c:	24050066 	li	a1,102
    2860:	1045002e 	beq	v0,a1,0x291c
    2864:	24040063 	li	a0,99
    2868:	104400a1 	beq	v0,a0,0x2af0
    286c:	24050073 	li	a1,115
    2870:	1045007c 	beq	v0,a1,0x2a64
    2874:	00000000 	nop
    2878:	82040000 	lb	a0,0(s0)
    287c:	08000a23 	j	0x288c
    2880:	02001021 	move	v0,s0
    2884:	80440000 	lb	a0,0(v0)
    2888:	00000000 	nop
    288c:	1480fffd 	bnez	a0,0x2884
    2890:	24420001 	addiu	v0,v0,1
    2894:	00102027 	nor	a0,zero,s0
    2898:	00441021 	addu	v0,v0,a0
    289c:	02028021 	addu	s0,s0,v0
    28a0:	a2000000 	sb	zero,0(s0)
    28a4:	82220000 	lb	v0,0(s1)
    28a8:	00000000 	nop
    28ac:	1440ffcd 	bnez	v0,0x27e4
    28b0:	00000000 	nop
    28b4:	8fbf0074 	lw	ra,116(sp)
    28b8:	02e01021 	move	v0,s7
    28bc:	8fbe0070 	lw	s8,112(sp)
    28c0:	8fb7006c 	lw	s7,108(sp)
    28c4:	8fb60068 	lw	s6,104(sp)
    28c8:	8fb50064 	lw	s5,100(sp)
    28cc:	8fb40060 	lw	s4,96(sp)
    28d0:	8fb3005c 	lw	s3,92(sp)
    28d4:	8fb20058 	lw	s2,88(sp)
    28d8:	8fb10054 	lw	s1,84(sp)
    28dc:	8fb00050 	lw	s0,80(sp)
    28e0:	03e00008 	jr	ra
    28e4:	27bd0078 	addiu	sp,sp,120
    28e8:	82220000 	lb	v0,0(s1)
    28ec:	00000000 	nop
    28f0:	1453ffb7 	bne	v0,s3,0x27d0
    28f4:	00000000 	nop
    28f8:	a2130000 	sb	s3,0(s0)
    28fc:	26310001 	addiu	s1,s1,1
    2900:	080009f4 	j	0x27d0
    2904:	26100001 	addiu	s0,s0,1
    2908:	2402000d 	li	v0,13
    290c:	a2020000 	sb	v0,0(s0)
    2910:	a2130001 	sb	s3,1(s0)
    2914:	080009f4 	j	0x27d0
    2918:	26100002 	addiu	s0,s0,2
    291c:	1a400006 	blez	s2,0x2938
    2920:	02002021 	move	a0,s0
    2924:	02401021 	move	v0,s2
    2928:	2442ffff 	addiu	v0,v0,-1
    292c:	a0950000 	sb	s5,0(a0)
    2930:	1c40fffd 	bgtz	v0,0x2928
    2934:	24840001 	addiu	a0,a0,1
    2938:	00171080 	sll	v0,s7,0x2
    293c:	02c21021 	addu	v0,s6,v0
    2940:	8c440014 	lw	a0,20(v0)
    2944:	02c02821 	move	a1,s6
    2948:	24060010 	li	a2,16
    294c:	0c00098b 	jal	0x262c
    2950:	afa3004c 	sw	v1,76(sp)
    2954:	8fa3004c 	lw	v1,76(sp)
    2958:	26f70001 	addiu	s7,s7,1
    295c:	02c01021 	move	v0,s6
    2960:	80440000 	lb	a0,0(v0)
    2964:	00000000 	nop
    2968:	1480fffd 	bnez	a0,0x2960
    296c:	24420001 	addiu	v0,v0,1
    2970:	8fa70048 	lw	a3,72(sp)
    2974:	00000000 	nop
    2978:	00471021 	addu	v0,v0,a3
    297c:	0052282a 	slt	a1,v0,s2
    2980:	10a00002 	beqz	a1,0x298c
    2984:	00402021 	move	a0,v0
    2988:	02402021 	move	a0,s2
    298c:	00821023 	subu	v0,a0,v0
    2990:	02021021 	addu	v0,s0,v0
    2994:	02c02021 	move	a0,s6
    2998:	80850000 	lb	a1,0(a0)
    299c:	24840001 	addiu	a0,a0,1
    29a0:	a0450000 	sb	a1,0(v0)
    29a4:	14a0fffc 	bnez	a1,0x2998
    29a8:	24420001 	addiu	v0,v0,1
    29ac:	82040000 	lb	a0,0(s0)
    29b0:	08000a23 	j	0x288c
    29b4:	02001021 	move	v0,s0
    29b8:	82220000 	lb	v0,0(s1)
    29bc:	08000a11 	j	0x2844
    29c0:	26310001 	addiu	s1,s1,1
    29c4:	1a400007 	blez	s2,0x29e4
    29c8:	02002821 	move	a1,s0
    29cc:	308400ff 	andi	a0,a0,0xff
    29d0:	02401021 	move	v0,s2
    29d4:	2442ffff 	addiu	v0,v0,-1
    29d8:	a0a40000 	sb	a0,0(a1)
    29dc:	1c40fffd 	bgtz	v0,0x29d4
    29e0:	24a50001 	addiu	a1,a1,1
    29e4:	00171080 	sll	v0,s7,0x2
    29e8:	02c21021 	addu	v0,s6,v0
    29ec:	8c440014 	lw	a0,20(v0)
    29f0:	02c02821 	move	a1,s6
    29f4:	2406000a 	li	a2,10
    29f8:	0c00098b 	jal	0x262c
    29fc:	afa3004c 	sw	v1,76(sp)
    2a00:	8fa3004c 	lw	v1,76(sp)
    2a04:	26f70001 	addiu	s7,s7,1
    2a08:	02c01021 	move	v0,s6
    2a0c:	80440000 	lb	a0,0(v0)
    2a10:	00000000 	nop
    2a14:	1480fffd 	bnez	a0,0x2a0c
    2a18:	24420001 	addiu	v0,v0,1
    2a1c:	8fa70048 	lw	a3,72(sp)
    2a20:	00000000 	nop
    2a24:	00471021 	addu	v0,v0,a3
    2a28:	0052282a 	slt	a1,v0,s2
    2a2c:	10a00002 	beqz	a1,0x2a38
    2a30:	00402021 	move	a0,v0
    2a34:	02402021 	move	a0,s2
    2a38:	00821023 	subu	v0,a0,v0
    2a3c:	02021021 	addu	v0,s0,v0
    2a40:	02c02021 	move	a0,s6
    2a44:	80850000 	lb	a1,0(a0)
    2a48:	24840001 	addiu	a0,a0,1
    2a4c:	a0450000 	sb	a1,0(v0)
    2a50:	14a0fffc 	bnez	a1,0x2a44
    2a54:	24420001 	addiu	v0,v0,1
    2a58:	82040000 	lb	a0,0(s0)
    2a5c:	08000a23 	j	0x288c
    2a60:	02001021 	move	v0,s0
    2a64:	00171080 	sll	v0,s7,0x2
    2a68:	02c21021 	addu	v0,s6,v0
    2a6c:	8c460014 	lw	a2,20(v0)
    2a70:	00000000 	nop
    2a74:	00c02021 	move	a0,a2
    2a78:	00c01021 	move	v0,a2
    2a7c:	80450000 	lb	a1,0(v0)
    2a80:	00000000 	nop
    2a84:	14a0fffd 	bnez	a1,0x2a7c
    2a88:	24420001 	addiu	v0,v0,1
    2a8c:	00063027 	nor	a2,zero,a2
    2a90:	00461021 	addu	v0,v0,a2
    2a94:	0052282a 	slt	a1,v0,s2
    2a98:	10a0000b 	beqz	a1,0x2ac8
    2a9c:	00000000 	nop
    2aa0:	02421023 	subu	v0,s2,v0
    2aa4:	18400007 	blez	v0,0x2ac4
    2aa8:	00402821 	move	a1,v0
    2aac:	02003021 	move	a2,s0
    2ab0:	24070020 	li	a3,32
    2ab4:	24a5ffff 	addiu	a1,a1,-1
    2ab8:	a0c70000 	sb	a3,0(a2)
    2abc:	1ca0fffd 	bgtz	a1,0x2ab4
    2ac0:	24c60001 	addiu	a2,a2,1
    2ac4:	02028021 	addu	s0,s0,v0
    2ac8:	26f70001 	addiu	s7,s7,1
    2acc:	02001021 	move	v0,s0
    2ad0:	80850000 	lb	a1,0(a0)
    2ad4:	24840001 	addiu	a0,a0,1
    2ad8:	a0450000 	sb	a1,0(v0)
    2adc:	14a0fffc 	bnez	a1,0x2ad0
    2ae0:	24420001 	addiu	v0,v0,1
    2ae4:	82040000 	lb	a0,0(s0)
    2ae8:	08000a23 	j	0x288c
    2aec:	02001021 	move	v0,s0
    2af0:	00171080 	sll	v0,s7,0x2
    2af4:	02c21021 	addu	v0,s6,v0
    2af8:	8c420014 	lw	v0,20(v0)
    2afc:	26f70001 	addiu	s7,s7,1
    2b00:	a2020000 	sb	v0,0(s0)
    2b04:	26100001 	addiu	s0,s0,1
    2b08:	a2000000 	sb	zero,0(s0)
    2b0c:	08000a1f 	j	0x287c
    2b10:	00002021 	move	a0,zero
    2b14:	08000a0e 	j	0x2838
    2b18:	00009021 	move	s2,zero
    2b1c:	08000a2d 	j	0x28b4
    2b20:	0000b821 	move	s7,zero
    2b24:	27bdff98 	addiu	sp,sp,-104
    2b28:	8fa20078 	lw	v0,120(sp)
    2b2c:	afbe0060 	sw	s8,96(sp)
    2b30:	afa20018 	sw	v0,24(sp)
    2b34:	8fa2007c 	lw	v0,124(sp)
    2b38:	afb7005c 	sw	s7,92(sp)
    2b3c:	afa2001c 	sw	v0,28(sp)
    2b40:	8fa20080 	lw	v0,128(sp)
    2b44:	afb60058 	sw	s6,88(sp)
    2b48:	afa20020 	sw	v0,32(sp)
    2b4c:	8fa20084 	lw	v0,132(sp)
    2b50:	afb50054 	sw	s5,84(sp)
    2b54:	afa20024 	sw	v0,36(sp)
    2b58:	8fa20088 	lw	v0,136(sp)
    2b5c:	afb40050 	sw	s4,80(sp)
    2b60:	afa20028 	sw	v0,40(sp)
    2b64:	8fa2008c 	lw	v0,140(sp)
    2b68:	afb3004c 	sw	s3,76(sp)
    2b6c:	afb20048 	sw	s2,72(sp)
    2b70:	afb10044 	sw	s1,68(sp)
    2b74:	afb00040 	sw	s0,64(sp)
    2b78:	afa70014 	sw	a3,20(sp)
    2b7c:	afbf0064 	sw	ra,100(sp)
    2b80:	afa40068 	sw	a0,104(sp)
    2b84:	afa60010 	sw	a2,16(sp)
    2b88:	afa2002c 	sw	v0,44(sp)
    2b8c:	80820000 	lb	v0,0(a0)
    2b90:	00a09821 	move	s3,a1
    2b94:	0000b021 	move	s6,zero
    2b98:	24150025 	li	s5,37
    2b9c:	24100020 	li	s0,32
    2ba0:	24110009 	li	s1,9
    2ba4:	2412000a 	li	s2,10
    2ba8:	2414000d 	li	s4,13
    2bac:	24170064 	li	s7,100
    2bb0:	241e0078 	li	s8,120
    2bb4:	24030063 	li	v1,99
    2bb8:	24080073 	li	t0,115
    2bbc:	27a70010 	addiu	a3,sp,16
    2bc0:	1040000f 	beqz	v0,0x2c00
    2bc4:	00000000 	nop
    2bc8:	82650000 	lb	a1,0(s3)
    2bcc:	00000000 	nop
    2bd0:	10a0000b 	beqz	a1,0x2c00
    2bd4:	00000000 	nop
    2bd8:	10b50016 	beq	a1,s5,0x2c34
    2bdc:	26730001 	addiu	s3,s3,1
    2be0:	10a20021 	beq	a1,v0,0x2c68
    2be4:	00000000 	nop
    2be8:	24840001 	addiu	a0,a0,1
    2bec:	afa40068 	sw	a0,104(sp)
    2bf0:	80820000 	lb	v0,0(a0)
    2bf4:	00000000 	nop
    2bf8:	1440fff9 	bnez	v0,0x2be0
    2bfc:	00000000 	nop
    2c00:	8fbf0064 	lw	ra,100(sp)
    2c04:	02c01021 	move	v0,s6
    2c08:	8fbe0060 	lw	s8,96(sp)
    2c0c:	8fb7005c 	lw	s7,92(sp)
    2c10:	8fb60058 	lw	s6,88(sp)
    2c14:	8fb50054 	lw	s5,84(sp)
    2c18:	8fb40050 	lw	s4,80(sp)
    2c1c:	8fb3004c 	lw	s3,76(sp)
    2c20:	8fb20048 	lw	s2,72(sp)
    2c24:	8fb10044 	lw	s1,68(sp)
    2c28:	8fb00040 	lw	s0,64(sp)
    2c2c:	03e00008 	jr	ra
    2c30:	27bd0068 	addiu	sp,sp,104
    2c34:	10500007 	beq	v0,s0,0x2c54
    2c38:	00000000 	nop
    2c3c:	10510005 	beq	v0,s1,0x2c54
    2c40:	00000000 	nop
    2c44:	10520003 	beq	v0,s2,0x2c54
    2c48:	00000000 	nop
    2c4c:	1454000b 	bne	v0,s4,0x2c7c
    2c50:	00000000 	nop
    2c54:	24840001 	addiu	a0,a0,1
    2c58:	afa40068 	sw	a0,104(sp)
    2c5c:	80820000 	lb	v0,0(a0)
    2c60:	08000b0d 	j	0x2c34
    2c64:	00000000 	nop
    2c68:	24840001 	addiu	a0,a0,1
    2c6c:	afa40068 	sw	a0,104(sp)
    2c70:	80820000 	lb	v0,0(a0)
    2c74:	08000af0 	j	0x2bc0
    2c78:	00000000 	nop
    2c7c:	82650000 	lb	a1,0(s3)
    2c80:	00000000 	nop
    2c84:	10a0ffde 	beqz	a1,0x2c00
    2c88:	26730001 	addiu	s3,s3,1
    2c8c:	10b70027 	beq	a1,s7,0x2d2c
    2c90:	2406000a 	li	a2,10
    2c94:	10be0037 	beq	a1,s8,0x2d74
    2c98:	00000000 	nop
    2c9c:	10a3001a 	beq	a1,v1,0x2d08
    2ca0:	00000000 	nop
    2ca4:	14a8ffc6 	bne	a1,t0,0x2bc0
    2ca8:	00162880 	sll	a1,s6,0x2
    2cac:	00e52821 	addu	a1,a3,a1
    2cb0:	8ca50000 	lw	a1,0(a1)
    2cb4:	08000b35 	j	0x2cd4
    2cb8:	26d60001 	addiu	s6,s6,1
    2cbc:	1051000c 	beq	v0,s1,0x2cf0
    2cc0:	00000000 	nop
    2cc4:	1052000a 	beq	v0,s2,0x2cf0
    2cc8:	00000000 	nop
    2ccc:	10540008 	beq	v0,s4,0x2cf0
    2cd0:	00000000 	nop
    2cd4:	24840001 	addiu	a0,a0,1
    2cd8:	a0a20000 	sb	v0,0(a1)
    2cdc:	afa40068 	sw	a0,104(sp)
    2ce0:	80820000 	lb	v0,0(a0)
    2ce4:	00000000 	nop
    2ce8:	1450fff4 	bne	v0,s0,0x2cbc
    2cec:	24a50001 	addiu	a1,a1,1
    2cf0:	a0a00000 	sb	zero,0(a1)
    2cf4:	8fa40068 	lw	a0,104(sp)
    2cf8:	00000000 	nop
    2cfc:	80820000 	lb	v0,0(a0)
    2d00:	08000af0 	j	0x2bc0
    2d04:	00000000 	nop
    2d08:	00162880 	sll	a1,s6,0x2
    2d0c:	00e52821 	addu	a1,a3,a1
    2d10:	8ca50000 	lw	a1,0(a1)
    2d14:	24840001 	addiu	a0,a0,1
    2d18:	a0a20000 	sb	v0,0(a1)
    2d1c:	afa40068 	sw	a0,104(sp)
    2d20:	80820000 	lb	v0,0(a0)
    2d24:	08000af0 	j	0x2bc0
    2d28:	26d60001 	addiu	s6,s6,1
    2d2c:	00161080 	sll	v0,s6,0x2
    2d30:	00e21021 	addu	v0,a3,v0
    2d34:	8c490000 	lw	t1,0(v0)
    2d38:	27a50068 	addiu	a1,sp,104
    2d3c:	afa30034 	sw	v1,52(sp)
    2d40:	afa7003c 	sw	a3,60(sp)
    2d44:	afa80038 	sw	t0,56(sp)
    2d48:	0c000951 	jal	0x2544
    2d4c:	afa90030 	sw	t1,48(sp)
    2d50:	8fa90030 	lw	t1,48(sp)
    2d54:	8fa40068 	lw	a0,104(sp)
    2d58:	ad220000 	sw	v0,0(t1)
    2d5c:	80820000 	lb	v0,0(a0)
    2d60:	8fa30034 	lw	v1,52(sp)
    2d64:	8fa7003c 	lw	a3,60(sp)
    2d68:	8fa80038 	lw	t0,56(sp)
    2d6c:	08000af0 	j	0x2bc0
    2d70:	26d60001 	addiu	s6,s6,1
    2d74:	00161080 	sll	v0,s6,0x2
    2d78:	00e21021 	addu	v0,a3,v0
    2d7c:	8c490000 	lw	t1,0(v0)
    2d80:	27a50068 	addiu	a1,sp,104
    2d84:	08000b4f 	j	0x2d3c
    2d88:	24060010 	li	a2,16
    2d8c:	27bdffe0 	addiu	sp,sp,-32
    2d90:	afb10018 	sw	s1,24(sp)
    2d94:	24850020 	addiu	a1,a0,32
    2d98:	00808821 	move	s1,a0
    2d9c:	afb00014 	sw	s0,20(sp)
    2da0:	afbf001c 	sw	ra,28(sp)
    2da4:	0c0002ba 	jal	0xae8
    2da8:	00002021 	move	a0,zero
    2dac:	10400013 	beqz	v0,0x2dfc
    2db0:	00408021 	move	s0,v0
    2db4:	24420020 	addiu	v0,v0,32
    2db8:	3c040001 	lui	a0,0x1
    2dbc:	ae000008 	sw	zero,8(s0)
    2dc0:	2484c904 	addiu	a0,a0,-14076
    2dc4:	ae00000c 	sw	zero,12(s0)
    2dc8:	00002821 	move	a1,zero
    2dcc:	ae000010 	sw	zero,16(s0)
    2dd0:	ae020000 	sw	v0,0(s0)
    2dd4:	ae110004 	sw	s1,4(s0)
    2dd8:	ae000014 	sw	zero,20(s0)
    2ddc:	0c000318 	jal	0xc60
    2de0:	00000000 	nop
    2de4:	3c040001 	lui	a0,0x1
    2de8:	ae020018 	sw	v0,24(s0)
    2dec:	2484c910 	addiu	a0,a0,-14064
    2df0:	0c000318 	jal	0xc60
    2df4:	00002821 	move	a1,zero
    2df8:	ae02001c 	sw	v0,28(s0)
    2dfc:	8fbf001c 	lw	ra,28(sp)
    2e00:	02001021 	move	v0,s0
    2e04:	8fb10018 	lw	s1,24(sp)
    2e08:	8fb00014 	lw	s0,20(sp)
    2e0c:	03e00008 	jr	ra
    2e10:	27bd0020 	addiu	sp,sp,32
    2e14:	27bdffe0 	addiu	sp,sp,-32
    2e18:	afb10014 	sw	s1,20(sp)
    2e1c:	8c91000c 	lw	s1,12(a0)
    2e20:	8c820004 	lw	v0,4(a0)
    2e24:	26310001 	addiu	s1,s1,1
    2e28:	0222102a 	slt	v0,s1,v0
    2e2c:	afb20018 	sw	s2,24(sp)
    2e30:	afb00010 	sw	s0,16(sp)
    2e34:	afbf001c 	sw	ra,28(sp)
    2e38:	00808021 	move	s0,a0
    2e3c:	14400002 	bnez	v0,0x2e48
    2e40:	00a09021 	move	s2,a1
    2e44:	00008821 	move	s1,zero
    2e48:	8e020008 	lw	v0,8(s0)
    2e4c:	00000000 	nop
    2e50:	1051001b 	beq	v0,s1,0x2ec0
    2e54:	00000000 	nop
    2e58:	8e02000c 	lw	v0,12(s0)
    2e5c:	8e030000 	lw	v1,0(s0)
    2e60:	00000000 	nop
    2e64:	00621021 	addu	v0,v1,v0
    2e68:	a0520000 	sb	s2,0(v0)
    2e6c:	ae11000c 	sw	s1,12(s0)
    2e70:	8e020010 	lw	v0,16(s0)
    2e74:	00000000 	nop
    2e78:	14400007 	bnez	v0,0x2e98
    2e7c:	00000000 	nop
    2e80:	8fbf001c 	lw	ra,28(sp)
    2e84:	8fb20018 	lw	s2,24(sp)
    2e88:	8fb10014 	lw	s1,20(sp)
    2e8c:	8fb00010 	lw	s0,16(sp)
    2e90:	03e00008 	jr	ra
    2e94:	27bd0020 	addiu	sp,sp,32
    2e98:	8e020010 	lw	v0,16(s0)
    2e9c:	8e040018 	lw	a0,24(s0)
    2ea0:	2442ffff 	addiu	v0,v0,-1
    2ea4:	ae020010 	sw	v0,16(s0)
    2ea8:	8fbf001c 	lw	ra,28(sp)
    2eac:	8fb20018 	lw	s2,24(sp)
    2eb0:	8fb10014 	lw	s1,20(sp)
    2eb4:	8fb00010 	lw	s0,16(sp)
    2eb8:	08000276 	j	0x9d8
    2ebc:	27bd0020 	addiu	sp,sp,32
    2ec0:	10c0ffef 	beqz	a2,0x2e80
    2ec4:	00000000 	nop
    2ec8:	8e020014 	lw	v0,20(s0)
    2ecc:	8e04001c 	lw	a0,28(s0)
    2ed0:	24420001 	addiu	v0,v0,1
    2ed4:	ae020014 	sw	v0,20(s0)
    2ed8:	0c0001eb 	jal	0x7ac
    2edc:	2405ffff 	li	a1,-1
    2ee0:	08000b96 	j	0x2e58
    2ee4:	00000000 	nop
    2ee8:	8c830008 	lw	v1,8(a0)
    2eec:	8c82000c 	lw	v0,12(a0)
    2ef0:	27bdffe0 	addiu	sp,sp,-32
    2ef4:	afb00018 	sw	s0,24(sp)
    2ef8:	afbf001c 	sw	ra,28(sp)
    2efc:	10620020 	beq	v1,v0,0x2f80
    2f00:	00808021 	move	s0,a0
    2f04:	8e020008 	lw	v0,8(s0)
    2f08:	8e040000 	lw	a0,0(s0)
    2f0c:	8e030008 	lw	v1,8(s0)
    2f10:	00821021 	addu	v0,a0,v0
    2f14:	24630001 	addiu	v1,v1,1
    2f18:	90420000 	lbu	v0,0(v0)
    2f1c:	ae030008 	sw	v1,8(s0)
    2f20:	8e040008 	lw	a0,8(s0)
    2f24:	8e030004 	lw	v1,4(s0)
    2f28:	00000000 	nop
    2f2c:	0083182a 	slt	v1,a0,v1
    2f30:	10600010 	beqz	v1,0x2f74
    2f34:	00000000 	nop
    2f38:	8e030014 	lw	v1,20(s0)
    2f3c:	00000000 	nop
    2f40:	10600008 	beqz	v1,0x2f64
    2f44:	00000000 	nop
    2f48:	8e030014 	lw	v1,20(s0)
    2f4c:	8e04001c 	lw	a0,28(s0)
    2f50:	2463ffff 	addiu	v1,v1,-1
    2f54:	ae030014 	sw	v1,20(s0)
    2f58:	0c000276 	jal	0x9d8
    2f5c:	afa20010 	sw	v0,16(sp)
    2f60:	8fa20010 	lw	v0,16(sp)
    2f64:	8fbf001c 	lw	ra,28(sp)
    2f68:	8fb00018 	lw	s0,24(sp)
    2f6c:	03e00008 	jr	ra
    2f70:	27bd0020 	addiu	sp,sp,32
    2f74:	ae000008 	sw	zero,8(s0)
    2f78:	08000bce 	j	0x2f38
    2f7c:	00000000 	nop
    2f80:	14a00005 	bnez	a1,0x2f98
    2f84:	00001021 	move	v0,zero
    2f88:	8fbf001c 	lw	ra,28(sp)
    2f8c:	8fb00018 	lw	s0,24(sp)
    2f90:	03e00008 	jr	ra
    2f94:	27bd0020 	addiu	sp,sp,32
    2f98:	8c820010 	lw	v0,16(a0)
    2f9c:	8c840018 	lw	a0,24(a0)
    2fa0:	24420001 	addiu	v0,v0,1
    2fa4:	ae020010 	sw	v0,16(s0)
    2fa8:	0c0001eb 	jal	0x7ac
    2fac:	2405ffff 	li	a1,-1
    2fb0:	08000bc1 	j	0x2f04
    2fb4:	00000000 	nop
    2fb8:	27bdffb8 	addiu	sp,sp,-72
    2fbc:	afbe0040 	sw	s8,64(sp)
    2fc0:	afb7003c 	sw	s7,60(sp)
    2fc4:	afb60038 	sw	s6,56(sp)
    2fc8:	afb50034 	sw	s5,52(sp)
    2fcc:	afb40030 	sw	s4,48(sp)
    2fd0:	afb3002c 	sw	s3,44(sp)
    2fd4:	afb20028 	sw	s2,40(sp)
    2fd8:	afb10024 	sw	s1,36(sp)
    2fdc:	afb00020 	sw	s0,32(sp)
    2fe0:	afbf0044 	sw	ra,68(sp)
    2fe4:	0c000766 	jal	0x1d98
    2fe8:	00008021 	move	s0,zero
    2fec:	3c122000 	lui	s2,0x2000
    2ff0:	241300ff 	li	s3,255
    2ff4:	24150001 	li	s5,1
    2ff8:	24160002 	li	s6,2
    2ffc:	24140003 	li	s4,3
    3000:	27be0010 	addiu	s8,sp,16
    3004:	24170004 	li	s7,4
    3008:	24110010 	li	s1,16
    300c:	30430001 	andi	v1,v0,0x1
    3010:	10600029 	beqz	v1,0x30b8
    3014:	30420002 	andi	v0,v0,0x2
    3018:	8f8280ec 	lw	v0,-32532(gp)
    301c:	8e450000 	lw	a1,0(s2)
    3020:	1040001c 	beqz	v0,0x3094
    3024:	00000000 	nop
    3028:	10b30082 	beq	a1,s3,0x3234
    302c:	00000000 	nop
    3030:	8f8380fc 	lw	v1,-32516(gp)
    3034:	00000000 	nop
    3038:	10600016 	beqz	v1,0x3094
    303c:	00000000 	nop
    3040:	10750082 	beq	v1,s5,0x324c
    3044:	00000000 	nop
    3048:	1476005e 	bne	v1,s6,0x31c4
    304c:	00000000 	nop
    3050:	8f838100 	lw	v1,-32512(gp)
    3054:	af9480fc 	sw	s4,-32516(gp)
    3058:	00a32825 	or	a1,a1,v1
    305c:	8f8380f0 	lw	v1,-32528(gp)
    3060:	00000000 	nop
    3064:	0065182b 	sltu	v1,v1,a1
    3068:	14600070 	bnez	v1,0x322c
    306c:	af858100 	sw	a1,-32512(gp)
    3070:	8f838104 	lw	v1,-32508(gp)
    3074:	00000000 	nop
    3078:	1460000a 	bnez	v1,0x30a4
    307c:	26100001 	addiu	s0,s0,1
    3080:	2610ffff 	addiu	s0,s0,-1
    3084:	0040f809 	jalr	v0
    3088:	26100001 	addiu	s0,s0,1
    308c:	08000c29 	j	0x30a4
    3090:	af828104 	sw	v0,-32508(gp)
    3094:	8f8480d8 	lw	a0,-32552(gp)
    3098:	0c000b85 	jal	0x2e14
    309c:	00003021 	move	a2,zero
    30a0:	26100001 	addiu	s0,s0,1
    30a4:	0c000766 	jal	0x1d98
    30a8:	00000000 	nop
    30ac:	1611ffd8 	bne	s0,s1,0x3010
    30b0:	30430001 	andi	v1,v0,0x1
    30b4:	30420002 	andi	v0,v0,0x2
    30b8:	10400015 	beqz	v0,0x3110
    30bc:	3c102000 	lui	s0,0x2000
    30c0:	24110001 	li	s1,1
    30c4:	24120002 	li	s2,2
    30c8:	24130003 	li	s3,3
    30cc:	27b60010 	addiu	s6,sp,16
    30d0:	24150004 	li	s5,4
    30d4:	8f8280e8 	lw	v0,-32536(gp)
    30d8:	00000000 	nop
    30dc:	10400018 	beqz	v0,0x3140
    30e0:	00000000 	nop
    30e4:	8f8380e0 	lw	v1,-32544(gp)
    30e8:	00000000 	nop
    30ec:	14600020 	bnez	v1,0x3170
    30f0:	241400ff 	li	s4,255
    30f4:	af9180e0 	sw	s1,-32544(gp)
    30f8:	ae140000 	sw	s4,0(s0)
    30fc:	0c000766 	jal	0x1d98
    3100:	00000000 	nop
    3104:	30420002 	andi	v0,v0,0x2
    3108:	1440fff2 	bnez	v0,0x30d4
    310c:	00000000 	nop
    3110:	8fbf0044 	lw	ra,68(sp)
    3114:	8fbe0040 	lw	s8,64(sp)
    3118:	8fb7003c 	lw	s7,60(sp)
    311c:	8fb60038 	lw	s6,56(sp)
    3120:	8fb50034 	lw	s5,52(sp)
    3124:	8fb40030 	lw	s4,48(sp)
    3128:	8fb3002c 	lw	s3,44(sp)
    312c:	8fb20028 	lw	s2,40(sp)
    3130:	8fb10024 	lw	s1,36(sp)
    3134:	8fb00020 	lw	s0,32(sp)
    3138:	03e00008 	jr	ra
    313c:	27bd0048 	addiu	sp,sp,72
    3140:	8f8480f8 	lw	a0,-32520(gp)
    3144:	00000000 	nop
    3148:	8c830008 	lw	v1,8(a0)
    314c:	8c82000c 	lw	v0,12(a0)
    3150:	00000000 	nop
    3154:	10620059 	beq	v1,v0,0x32bc
    3158:	00000000 	nop
    315c:	0c000bba 	jal	0x2ee8
    3160:	00002821 	move	a1,zero
    3164:	ae020000 	sw	v0,0(s0)
    3168:	08000c3f 	j	0x30fc
    316c:	00000000 	nop
    3170:	1071003a 	beq	v1,s1,0x325c
    3174:	00000000 	nop
    3178:	10720049 	beq	v1,s2,0x32a0
    317c:	00000000 	nop
    3180:	1073003a 	beq	v1,s3,0x326c
    3184:	2466fffd 	addiu	a2,v1,-3
    3188:	8f8480e4 	lw	a0,-32540(gp)
    318c:	00432821 	addu	a1,v0,v1
    3190:	00c4202b 	sltu	a0,a2,a0
    3194:	24630001 	addiu	v1,v1,1
    3198:	90b4fffc 	lbu	s4,-4(a1)
    319c:	1480ffd6 	bnez	a0,0x30f8
    31a0:	af8380e0 	sw	v1,-32544(gp)
    31a4:	8f8480f4 	lw	a0,-32524(gp)
    31a8:	02c02821 	move	a1,s6
    31ac:	afb10010 	sw	s1,16(sp)
    31b0:	afa20014 	sw	v0,20(sp)
    31b4:	0c000554 	jal	0x1550
    31b8:	af8080e8 	sw	zero,-32536(gp)
    31bc:	08000c3e 	j	0x30f8
    31c0:	00000000 	nop
    31c4:	10740039 	beq	v1,s4,0x32ac
    31c8:	2c620004 	sltiu	v0,v1,4
    31cc:	1440ffb4 	bnez	v0,0x30a0
    31d0:	00000000 	nop
    31d4:	8f828104 	lw	v0,-32508(gp)
    31d8:	00000000 	nop
    31dc:	10400002 	beqz	v0,0x31e8
    31e0:	00432021 	addu	a0,v0,v1
    31e4:	a085fffc 	sb	a1,-4(a0)
    31e8:	8f87810c 	lw	a3,-32500(gp)
    31ec:	8f848100 	lw	a0,-32512(gp)
    31f0:	2466fffd 	addiu	a2,v1,-3
    31f4:	00a72821 	addu	a1,a1,a3
    31f8:	24630001 	addiu	v1,v1,1
    31fc:	00c4302b 	sltu	a2,a2,a0
    3200:	af85810c 	sw	a1,-32500(gp)
    3204:	14c0ffa6 	bnez	a2,0x30a0
    3208:	af8380fc 	sw	v1,-32516(gp)
    320c:	8f838108 	lw	v1,-32504(gp)
    3210:	30a500ff 	andi	a1,a1,0xff
    3214:	10a3002d 	beq	a1,v1,0x32cc
    3218:	00000000 	nop
    321c:	8f82817c 	lw	v0,-32388(gp)
    3220:	00000000 	nop
    3224:	24420001 	addiu	v0,v0,1
    3228:	af82817c 	sw	v0,-32388(gp)
    322c:	08000c28 	j	0x30a0
    3230:	af8080fc 	sw	zero,-32516(gp)
    3234:	8f8380fc 	lw	v1,-32516(gp)
    3238:	00000000 	nop
    323c:	1460ff80 	bnez	v1,0x3040
    3240:	00000000 	nop
    3244:	08000c28 	j	0x30a0
    3248:	af9580fc 	sw	s5,-32516(gp)
    324c:	00052a00 	sll	a1,a1,0x8
    3250:	af9680fc 	sw	s6,-32516(gp)
    3254:	08000c28 	j	0x30a0
    3258:	af858100 	sw	a1,-32512(gp)
    325c:	8f9480e4 	lw	s4,-32540(gp)
    3260:	af9280e0 	sw	s2,-32544(gp)
    3264:	08000c3e 	j	0x30f8
    3268:	0014a202 	srl	s4,s4,0x8
    326c:	8f8580e4 	lw	a1,-32540(gp)
    3270:	00000000 	nop
    3274:	18a00022 	blez	a1,0x3300
    3278:	00001821 	move	v1,zero
    327c:	0000a021 	move	s4,zero
    3280:	00432021 	addu	a0,v0,v1
    3284:	90840000 	lbu	a0,0(a0)
    3288:	24630001 	addiu	v1,v1,1
    328c:	1465fffc 	bne	v1,a1,0x3280
    3290:	0284a021 	addu	s4,s4,a0
    3294:	329400ff 	andi	s4,s4,0xff
    3298:	08000c3e 	j	0x30f8
    329c:	af9580e0 	sw	s5,-32544(gp)
    32a0:	939480e7 	lbu	s4,-32537(gp)
    32a4:	08000c3e 	j	0x30f8
    32a8:	af9380e0 	sw	s3,-32544(gp)
    32ac:	af9780fc 	sw	s7,-32516(gp)
    32b0:	af858108 	sw	a1,-32504(gp)
    32b4:	08000c28 	j	0x30a0
    32b8:	af80810c 	sw	zero,-32500(gp)
    32bc:	0c00077c 	jal	0x1df0
    32c0:	24040002 	li	a0,2
    32c4:	08000c44 	j	0x3110
    32c8:	00000000 	nop
    32cc:	8f838178 	lw	v1,-32392(gp)
    32d0:	afa00010 	sw	zero,16(sp)
    32d4:	24630001 	addiu	v1,v1,1
    32d8:	af838178 	sw	v1,-32392(gp)
    32dc:	afa20014 	sw	v0,20(sp)
    32e0:	10400004 	beqz	v0,0x32f4
    32e4:	afa40018 	sw	a0,24(sp)
    32e8:	8f8480f4 	lw	a0,-32524(gp)
    32ec:	0c000554 	jal	0x1550
    32f0:	03c02821 	move	a1,s8
    32f4:	af808104 	sw	zero,-32508(gp)
    32f8:	08000c28 	j	0x30a0
    32fc:	af8080fc 	sw	zero,-32516(gp)
    3300:	0000a021 	move	s4,zero
    3304:	08000c3e 	j	0x30f8
    3308:	af9580e0 	sw	s5,-32544(gp)
    330c:	3c040001 	lui	a0,0x1
    3310:	27bdffe8 	addiu	sp,sp,-24
    3314:	24050001 	li	a1,1
    3318:	afbf0014 	sw	ra,20(sp)
    331c:	0c000318 	jal	0xc60
    3320:	2484c91c 	addiu	a0,a0,-14052
    3324:	24040080 	li	a0,128
    3328:	0c000b63 	jal	0x2d8c
    332c:	af8280dc 	sw	v0,-32548(gp)
    3330:	24040080 	li	a0,128
    3334:	0c000b63 	jal	0x2d8c
    3338:	af8280f8 	sw	v0,-32520(gp)
    333c:	3c050000 	lui	a1,0x0
    3340:	24040003 	li	a0,3
    3344:	24a52fb8 	addiu	a1,a1,12216
    3348:	0c000758 	jal	0x1d60
    334c:	af8280d8 	sw	v0,-32552(gp)
    3350:	8fbf0014 	lw	ra,20(sp)
    3354:	24040001 	li	a0,1
    3358:	0800076a 	j	0x1da8
    335c:	27bd0018 	addiu	sp,sp,24
    3360:	00802821 	move	a1,a0
    3364:	8f8480f8 	lw	a0,-32520(gp)
    3368:	27bdffe8 	addiu	sp,sp,-24
    336c:	afbf0014 	sw	ra,20(sp)
    3370:	0c000b85 	jal	0x2e14
    3374:	24060001 	li	a2,1
    3378:	8fbf0014 	lw	ra,20(sp)
    337c:	24040002 	li	a0,2
    3380:	0800076a 	j	0x1da8
    3384:	27bd0018 	addiu	sp,sp,24
    3388:	8f8480d8 	lw	a0,-32552(gp)
    338c:	27bdffe8 	addiu	sp,sp,-24
    3390:	afbf0014 	sw	ra,20(sp)
    3394:	0c000bba 	jal	0x2ee8
    3398:	24050001 	li	a1,1
    339c:	8fbf0014 	lw	ra,20(sp)
    33a0:	304200ff 	andi	v0,v0,0xff
    33a4:	03e00008 	jr	ra
    33a8:	27bd0018 	addiu	sp,sp,24
    33ac:	27bdffe0 	addiu	sp,sp,-32
    33b0:	afb00014 	sw	s0,20(sp)
    33b4:	00808021 	move	s0,a0
    33b8:	8f8480dc 	lw	a0,-32548(gp)
    33bc:	afb10018 	sw	s1,24(sp)
    33c0:	00a08821 	move	s1,a1
    33c4:	afbf001c 	sw	ra,28(sp)
    33c8:	0c0001eb 	jal	0x7ac
    33cc:	2405ffff 	li	a1,-1
    33d0:	12200007 	beqz	s1,0x33f0
    33d4:	00000000 	nop
    33d8:	92040000 	lbu	a0,0(s0)
    33dc:	2631ffff 	addiu	s1,s1,-1
    33e0:	0c000cd8 	jal	0x3360
    33e4:	26100001 	addiu	s0,s0,1
    33e8:	1620fffb 	bnez	s1,0x33d8
    33ec:	00000000 	nop
    33f0:	8f8480dc 	lw	a0,-32548(gp)
    33f4:	8fbf001c 	lw	ra,28(sp)
    33f8:	8fb10018 	lw	s1,24(sp)
    33fc:	8fb00014 	lw	s0,20(sp)
    3400:	08000276 	j	0x9d8
    3404:	27bd0020 	addiu	sp,sp,32
    3408:	27bdffe0 	addiu	sp,sp,-32
    340c:	afb00014 	sw	s0,20(sp)
    3410:	00808021 	move	s0,a0
    3414:	8f8480dc 	lw	a0,-32548(gp)
    3418:	afb10018 	sw	s1,24(sp)
    341c:	00a08821 	move	s1,a1
    3420:	afbf001c 	sw	ra,28(sp)
    3424:	0c0001eb 	jal	0x7ac
    3428:	2405ffff 	li	a1,-1
    342c:	12200006 	beqz	s1,0x3448
    3430:	00000000 	nop
    3434:	0c000ce2 	jal	0x3388
    3438:	2631ffff 	addiu	s1,s1,-1
    343c:	a2020000 	sb	v0,0(s0)
    3440:	1620fffc 	bnez	s1,0x3434
    3444:	26100001 	addiu	s0,s0,1
    3448:	8f8480dc 	lw	a0,-32548(gp)
    344c:	8fbf001c 	lw	ra,28(sp)
    3450:	8fb10018 	lw	s1,24(sp)
    3454:	8fb00014 	lw	s0,20(sp)
    3458:	08000276 	j	0x9d8
    345c:	27bd0020 	addiu	sp,sp,32
    3460:	27bdffa8 	addiu	sp,sp,-88
    3464:	afbe0050 	sw	s8,80(sp)
    3468:	0080f021 	move	s8,a0
    346c:	8f8480dc 	lw	a0,-32548(gp)
    3470:	afb7004c 	sw	s7,76(sp)
    3474:	00c0b821 	move	s7,a2
    3478:	00a03021 	move	a2,a1
    347c:	2405ffff 	li	a1,-1
    3480:	afbf0054 	sw	ra,84(sp)
    3484:	afb60048 	sw	s6,72(sp)
    3488:	afb50044 	sw	s5,68(sp)
    348c:	00e0b021 	move	s6,a3
    3490:	afb40040 	sw	s4,64(sp)
    3494:	afb3003c 	sw	s3,60(sp)
    3498:	afb20038 	sw	s2,56(sp)
    349c:	afb10034 	sw	s1,52(sp)
    34a0:	afb00030 	sw	s0,48(sp)
    34a4:	8fb50068 	lw	s5,104(sp)
    34a8:	3c100002 	lui	s0,0x2
    34ac:	8fb4006c 	lw	s4,108(sp)
    34b0:	8fb30070 	lw	s3,112(sp)
    34b4:	8fb20074 	lw	s2,116(sp)
    34b8:	8fb10078 	lw	s1,120(sp)
    34bc:	0c0001eb 	jal	0x7ac
    34c0:	afa60028 	sw	a2,40(sp)
    34c4:	8fa60028 	lw	a2,40(sp)
    34c8:	2604d938 	addiu	a0,s0,-9928
    34cc:	03c02821 	move	a1,s8
    34d0:	02e03821 	move	a3,s7
    34d4:	afb60010 	sw	s6,16(sp)
    34d8:	afb50014 	sw	s5,20(sp)
    34dc:	afb40018 	sw	s4,24(sp)
    34e0:	afb3001c 	sw	s3,28(sp)
    34e4:	afb20020 	sw	s2,32(sp)
    34e8:	0c0009c7 	jal	0x271c
    34ec:	afb10024 	sw	s1,36(sp)
    34f0:	9202d938 	lbu	v0,-9928(s0)
    34f4:	00000000 	nop
    34f8:	10400010 	beqz	v0,0x353c
    34fc:	2610d938 	addiu	s0,s0,-9928
    3500:	2412000a 	li	s2,10
    3504:	241100ff 	li	s1,255
    3508:	24130040 	li	s3,64
    350c:	1052001b 	beq	v0,s2,0x357c
    3510:	00000000 	nop
    3514:	92040000 	lbu	a0,0(s0)
    3518:	00000000 	nop
    351c:	10910014 	beq	a0,s1,0x3570
    3520:	00000000 	nop
    3524:	0c000cd8 	jal	0x3360
    3528:	26100001 	addiu	s0,s0,1
    352c:	92020000 	lbu	v0,0(s0)
    3530:	00000000 	nop
    3534:	1440fff5 	bnez	v0,0x350c
    3538:	00000000 	nop
    353c:	8f8480dc 	lw	a0,-32548(gp)
    3540:	8fbf0054 	lw	ra,84(sp)
    3544:	8fbe0050 	lw	s8,80(sp)
    3548:	8fb7004c 	lw	s7,76(sp)
    354c:	8fb60048 	lw	s6,72(sp)
    3550:	8fb50044 	lw	s5,68(sp)
    3554:	8fb40040 	lw	s4,64(sp)
    3558:	8fb3003c 	lw	s3,60(sp)
    355c:	8fb20038 	lw	s2,56(sp)
    3560:	8fb10034 	lw	s1,52(sp)
    3564:	8fb00030 	lw	s0,48(sp)
    3568:	08000276 	j	0x9d8
    356c:	27bd0058 	addiu	sp,sp,88
    3570:	a2130000 	sb	s3,0(s0)
    3574:	08000d49 	j	0x3524
    3578:	24040040 	li	a0,64
    357c:	0c000cd8 	jal	0x3360
    3580:	2404000d 	li	a0,13
    3584:	08000d45 	j	0x3514
    3588:	00000000 	nop
    358c:	8f8280dc 	lw	v0,-32548(gp)
    3590:	27bdffa8 	addiu	sp,sp,-88
    3594:	afbe0050 	sw	s8,80(sp)
    3598:	afb7004c 	sw	s7,76(sp)
    359c:	afb60048 	sw	s6,72(sp)
    35a0:	afb50044 	sw	s5,68(sp)
    35a4:	afb40040 	sw	s4,64(sp)
    35a8:	afb3003c 	sw	s3,60(sp)
    35ac:	afb20038 	sw	s2,56(sp)
    35b0:	afb10034 	sw	s1,52(sp)
    35b4:	afbf0054 	sw	ra,84(sp)
    35b8:	afb00030 	sw	s0,48(sp)
    35bc:	00801821 	move	v1,a0
    35c0:	00a0f021 	move	s8,a1
    35c4:	00c0b821 	move	s7,a2
    35c8:	8fb50068 	lw	s5,104(sp)
    35cc:	8fb4006c 	lw	s4,108(sp)
    35d0:	8fb30070 	lw	s3,112(sp)
    35d4:	8fb20074 	lw	s2,116(sp)
    35d8:	8fb10078 	lw	s1,120(sp)
    35dc:	10400006 	beqz	v0,0x35f8
    35e0:	00e0b021 	move	s6,a3
    35e4:	00402021 	move	a0,v0
    35e8:	2405ffff 	li	a1,-1
    35ec:	0c0001eb 	jal	0x7ac
    35f0:	afa30028 	sw	v1,40(sp)
    35f4:	8fa30028 	lw	v1,40(sp)
    35f8:	3c100002 	lui	s0,0x2
    35fc:	2604d938 	addiu	a0,s0,-9928
    3600:	00602821 	move	a1,v1
    3604:	03c03021 	move	a2,s8
    3608:	02e03821 	move	a3,s7
    360c:	afb60010 	sw	s6,16(sp)
    3610:	afb50014 	sw	s5,20(sp)
    3614:	afb40018 	sw	s4,24(sp)
    3618:	afb3001c 	sw	s3,28(sp)
    361c:	afb20020 	sw	s2,32(sp)
    3620:	0c0009c7 	jal	0x271c
    3624:	afb10024 	sw	s1,36(sp)
    3628:	9202d938 	lbu	v0,-9928(s0)
    362c:	00000000 	nop
    3630:	10400018 	beqz	v0,0x3694
    3634:	2610d938 	addiu	s0,s0,-9928
    3638:	3c112000 	lui	s1,0x2000
    363c:	8e220020 	lw	v0,32(s1)
    3640:	00000000 	nop
    3644:	30420002 	andi	v0,v0,0x2
    3648:	1040fffc 	beqz	v0,0x363c
    364c:	00000000 	nop
    3650:	0c00004a 	jal	0x128
    3654:	00002021 	move	a0,zero
    3658:	8e230020 	lw	v1,32(s1)
    365c:	00402021 	move	a0,v0
    3660:	30620002 	andi	v0,v1,0x2
    3664:	10400005 	beqz	v0,0x367c
    3668:	00000000 	nop
    366c:	8f8280e8 	lw	v0,-32536(gp)
    3670:	00000000 	nop
    3674:	10400017 	beqz	v0,0x36d4
    3678:	00000000 	nop
    367c:	0c00004a 	jal	0x128
    3680:	00000000 	nop
    3684:	92020000 	lbu	v0,0(s0)
    3688:	00000000 	nop
    368c:	1440ffeb 	bnez	v0,0x363c
    3690:	00000000 	nop
    3694:	8f8480dc 	lw	a0,-32548(gp)
    3698:	00000000 	nop
    369c:	10800012 	beqz	a0,0x36e8
    36a0:	00000000 	nop
    36a4:	8fbf0054 	lw	ra,84(sp)
    36a8:	8fbe0050 	lw	s8,80(sp)
    36ac:	8fb7004c 	lw	s7,76(sp)
    36b0:	8fb60048 	lw	s6,72(sp)
    36b4:	8fb50044 	lw	s5,68(sp)
    36b8:	8fb40040 	lw	s4,64(sp)
    36bc:	8fb3003c 	lw	s3,60(sp)
    36c0:	8fb20038 	lw	s2,56(sp)
    36c4:	8fb10034 	lw	s1,52(sp)
    36c8:	8fb00030 	lw	s0,48(sp)
    36cc:	08000276 	j	0x9d8
    36d0:	27bd0058 	addiu	sp,sp,88
    36d4:	92020000 	lbu	v0,0(s0)
    36d8:	26100001 	addiu	s0,s0,1
    36dc:	ae220000 	sw	v0,0(s1)
    36e0:	08000d9f 	j	0x367c
    36e4:	00000000 	nop
    36e8:	8fbf0054 	lw	ra,84(sp)
    36ec:	8fbe0050 	lw	s8,80(sp)
    36f0:	8fb7004c 	lw	s7,76(sp)
    36f4:	8fb60048 	lw	s6,72(sp)
    36f8:	8fb50044 	lw	s5,68(sp)
    36fc:	8fb40040 	lw	s4,64(sp)
    3700:	8fb3003c 	lw	s3,60(sp)
    3704:	8fb20038 	lw	s2,56(sp)
    3708:	8fb10034 	lw	s1,52(sp)
    370c:	8fb00030 	lw	s0,48(sp)
    3710:	03e00008 	jr	ra
    3714:	27bd0058 	addiu	sp,sp,88
    3718:	27bdffa8 	addiu	sp,sp,-88
    371c:	00a01821 	move	v1,a1
    3720:	00802821 	move	a1,a0
    3724:	00002021 	move	a0,zero
    3728:	afbf0054 	sw	ra,84(sp)
    372c:	afbe0050 	sw	s8,80(sp)
    3730:	afb7004c 	sw	s7,76(sp)
    3734:	00c0f021 	move	s8,a2
    3738:	00e0b821 	move	s7,a3
    373c:	afb60048 	sw	s6,72(sp)
    3740:	afb50044 	sw	s5,68(sp)
    3744:	afb40040 	sw	s4,64(sp)
    3748:	afb3003c 	sw	s3,60(sp)
    374c:	afb20038 	sw	s2,56(sp)
    3750:	afb10034 	sw	s1,52(sp)
    3754:	afb00030 	sw	s0,48(sp)
    3758:	8fb60068 	lw	s6,104(sp)
    375c:	8fb5006c 	lw	s5,108(sp)
    3760:	8fb40070 	lw	s4,112(sp)
    3764:	8fb30074 	lw	s3,116(sp)
    3768:	8fb20078 	lw	s2,120(sp)
    376c:	afa3002c 	sw	v1,44(sp)
    3770:	0c00004a 	jal	0x128
    3774:	afa50028 	sw	a1,40(sp)
    3778:	8fa3002c 	lw	v1,44(sp)
    377c:	3c100002 	lui	s0,0x2
    3780:	8fa50028 	lw	a1,40(sp)
    3784:	00603021 	move	a2,v1
    3788:	03c03821 	move	a3,s8
    378c:	2604d938 	addiu	a0,s0,-9928
    3790:	00408821 	move	s1,v0
    3794:	afb70010 	sw	s7,16(sp)
    3798:	afb60014 	sw	s6,20(sp)
    379c:	afb50018 	sw	s5,24(sp)
    37a0:	afb4001c 	sw	s4,28(sp)
    37a4:	afb30020 	sw	s3,32(sp)
    37a8:	0c0009c7 	jal	0x271c
    37ac:	afb20024 	sw	s2,36(sp)
    37b0:	8f8780e8 	lw	a3,-32536(gp)
    37b4:	8f8880e4 	lw	t0,-32540(gp)
    37b8:	8f8280e0 	lw	v0,-32544(gp)
    37bc:	2606d938 	addiu	a2,s0,-9928
    37c0:	90c50000 	lbu	a1,0(a2)
    37c4:	00000000 	nop
    37c8:	10a00013 	beqz	a1,0x3818
    37cc:	2604d938 	addiu	a0,s0,-9928
    37d0:	3c032000 	lui	v1,0x2000
    37d4:	8c640020 	lw	a0,32(v1)
    37d8:	00000000 	nop
    37dc:	30840002 	andi	a0,a0,0x2
    37e0:	1080fffb 	beqz	a0,0x37d0
    37e4:	00000000 	nop
    37e8:	ac650000 	sw	a1,0(v1)
    37ec:	10e0001a 	beqz	a3,0x3858
    37f0:	24c40001 	addiu	a0,a2,1
    37f4:	2443fffc 	addiu	v1,v0,-4
    37f8:	0068182b 	sltu	v1,v1,t0
    37fc:	10600016 	beqz	v1,0x3858
    3800:	00000000 	nop
    3804:	90c50000 	lbu	a1,0(a2)
    3808:	00000000 	nop
    380c:	14a0fff0 	bnez	a1,0x37d0
    3810:	24420001 	addiu	v0,v0,1
    3814:	2604d938 	addiu	a0,s0,-9928
    3818:	24060400 	li	a2,1024
    381c:	0c00092b 	jal	0x24ac
    3820:	af8280e0 	sw	v0,-32544(gp)
    3824:	02202021 	move	a0,s1
    3828:	8fbf0054 	lw	ra,84(sp)
    382c:	8fbe0050 	lw	s8,80(sp)
    3830:	8fb7004c 	lw	s7,76(sp)
    3834:	8fb60048 	lw	s6,72(sp)
    3838:	8fb50044 	lw	s5,68(sp)
    383c:	8fb40040 	lw	s4,64(sp)
    3840:	8fb3003c 	lw	s3,60(sp)
    3844:	8fb20038 	lw	s2,56(sp)
    3848:	8fb10034 	lw	s1,52(sp)
    384c:	8fb00030 	lw	s0,48(sp)
    3850:	0800004a 	j	0x128
    3854:	27bd0058 	addiu	sp,sp,88
    3858:	08000df0 	j	0x37c0
    385c:	00803021 	move	a2,a0
    3860:	03e00008 	jr	ra
    3864:	00000000 	nop
    3868:	27bdffa8 	addiu	sp,sp,-88
    386c:	afbe0050 	sw	s8,80(sp)
    3870:	0080f021 	move	s8,a0
    3874:	8f8480dc 	lw	a0,-32548(gp)
    3878:	afb7004c 	sw	s7,76(sp)
    387c:	00a0b821 	move	s7,a1
    3880:	2405ffff 	li	a1,-1
    3884:	afb60048 	sw	s6,72(sp)
    3888:	afb50044 	sw	s5,68(sp)
    388c:	afb40040 	sw	s4,64(sp)
    3890:	afb3003c 	sw	s3,60(sp)
    3894:	afb20038 	sw	s2,56(sp)
    3898:	afb10034 	sw	s1,52(sp)
    389c:	afb00030 	sw	s0,48(sp)
    38a0:	afbf0054 	sw	ra,84(sp)
    38a4:	00c0b021 	move	s6,a2
    38a8:	8fb40068 	lw	s4,104(sp)
    38ac:	8fb3006c 	lw	s3,108(sp)
    38b0:	8fb20070 	lw	s2,112(sp)
    38b4:	8fb10074 	lw	s1,116(sp)
    38b8:	8fb00078 	lw	s0,120(sp)
    38bc:	0c0001eb 	jal	0x7ac
    38c0:	00e0a821 	move	s5,a3
    38c4:	afa00028 	sw	zero,40(sp)
    38c8:	0c000ce2 	jal	0x3388
    38cc:	00000000 	nop
    38d0:	24030008 	li	v1,8
    38d4:	14430013 	bne	v0,v1,0x3924
    38d8:	00402021 	move	a0,v0
    38dc:	8fa50028 	lw	a1,40(sp)
    38e0:	00000000 	nop
    38e4:	10a0fff8 	beqz	a1,0x38c8
    38e8:	24040008 	li	a0,8
    38ec:	0c000cd8 	jal	0x3360
    38f0:	00000000 	nop
    38f4:	0c000cd8 	jal	0x3360
    38f8:	24040020 	li	a0,32
    38fc:	0c000cd8 	jal	0x3360
    3900:	24040008 	li	a0,8
    3904:	8fa60028 	lw	a2,40(sp)
    3908:	00000000 	nop
    390c:	24c6ffff 	addiu	a2,a2,-1
    3910:	0c000ce2 	jal	0x3388
    3914:	afa60028 	sw	a2,40(sp)
    3918:	24030008 	li	v1,8
    391c:	1043ffef 	beq	v0,v1,0x38dc
    3920:	00402021 	move	a0,v0
    3924:	0c000cd8 	jal	0x3360
    3928:	afa2002c 	sw	v0,44(sp)
    392c:	8fa60028 	lw	a2,40(sp)
    3930:	3c050002 	lui	a1,0x2
    3934:	24a5d938 	addiu	a1,a1,-9928
    3938:	8fa2002c 	lw	v0,44(sp)
    393c:	2cc30400 	sltiu	v1,a2,1024
    3940:	00a62021 	addu	a0,a1,a2
    3944:	2406000a 	li	a2,10
    3948:	1046000a 	beq	v0,a2,0x3974
    394c:	2405000d 	li	a1,13
    3950:	10450008 	beq	v0,a1,0x3974
    3954:	00000000 	nop
    3958:	1060ffdb 	beqz	v1,0x38c8
    395c:	00000000 	nop
    3960:	8fa60028 	lw	a2,40(sp)
    3964:	a0820000 	sb	v0,0(a0)
    3968:	24c60001 	addiu	a2,a2,1
    396c:	08000e32 	j	0x38c8
    3970:	afa60028 	sw	a2,40(sp)
    3974:	0c000cd8 	jal	0x3360
    3978:	2404000a 	li	a0,10
    397c:	8fa50028 	lw	a1,40(sp)
    3980:	3c040002 	lui	a0,0x2
    3984:	2484d938 	addiu	a0,a0,-9928
    3988:	00851021 	addu	v0,a0,a1
    398c:	a0400000 	sb	zero,0(v0)
    3990:	03c02821 	move	a1,s8
    3994:	02e03021 	move	a2,s7
    3998:	02c03821 	move	a3,s6
    399c:	afb50010 	sw	s5,16(sp)
    39a0:	afb40014 	sw	s4,20(sp)
    39a4:	afb30018 	sw	s3,24(sp)
    39a8:	afb2001c 	sw	s2,28(sp)
    39ac:	afb10020 	sw	s1,32(sp)
    39b0:	0c000ac9 	jal	0x2b24
    39b4:	afb00024 	sw	s0,36(sp)
    39b8:	8f8480dc 	lw	a0,-32548(gp)
    39bc:	8fbf0054 	lw	ra,84(sp)
    39c0:	8fbe0050 	lw	s8,80(sp)
    39c4:	8fb7004c 	lw	s7,76(sp)
    39c8:	8fb60048 	lw	s6,72(sp)
    39cc:	8fb50044 	lw	s5,68(sp)
    39d0:	8fb40040 	lw	s4,64(sp)
    39d4:	8fb3003c 	lw	s3,60(sp)
    39d8:	8fb20038 	lw	s2,56(sp)
    39dc:	8fb10034 	lw	s1,52(sp)
    39e0:	8fb00030 	lw	s0,48(sp)
    39e4:	08000276 	j	0x9d8
    39e8:	27bd0058 	addiu	sp,sp,88
    39ec:	af8480ec 	sw	a0,-32532(gp)
    39f0:	af8580f0 	sw	a1,-32528(gp)
    39f4:	03e00008 	jr	ra
    39f8:	af8680f4 	sw	a2,-32524(gp)
    39fc:	af8480e8 	sw	a0,-32536(gp)
    3a00:	24040002 	li	a0,2
    3a04:	af8080e0 	sw	zero,-32544(gp)
    3a08:	0800076a 	j	0x1da8
    3a0c:	af8580e4 	sw	a1,-32540(gp)
    3a10:	308400ff 	andi	a0,a0,0xff
    3a14:	3c022000 	lui	v0,0x2000
    3a18:	00a42824 	and	a1,a1,a0
    3a1c:	ac440040 	sw	a0,64(v0)
    3a20:	ac450030 	sw	a1,48(v0)
    3a24:	03e00008 	jr	ra
    3a28:	00000000 	nop
    3a2c:	27bdffe0 	addiu	sp,sp,-32
    3a30:	afb00014 	sw	s0,20(sp)
    3a34:	00808021 	move	s0,a0
    3a38:	8f8480dc 	lw	a0,-32548(gp)
    3a3c:	2405ffff 	li	a1,-1
    3a40:	afbf001c 	sw	ra,28(sp)
    3a44:	0c0001eb 	jal	0x7ac
    3a48:	afb10018 	sw	s1,24(sp)
    3a4c:	92040000 	lbu	a0,0(s0)
    3a50:	00000000 	nop
    3a54:	10800009 	beqz	a0,0x3a7c
    3a58:	2411000a 	li	s1,10
    3a5c:	10910010 	beq	a0,s1,0x3aa0
    3a60:	00000000 	nop
    3a64:	0c000cd8 	jal	0x3360
    3a68:	26100001 	addiu	s0,s0,1
    3a6c:	92040000 	lbu	a0,0(s0)
    3a70:	00000000 	nop
    3a74:	1480fff9 	bnez	a0,0x3a5c
    3a78:	00000000 	nop
    3a7c:	8f8480dc 	lw	a0,-32548(gp)
    3a80:	0c000276 	jal	0x9d8
    3a84:	00000000 	nop
    3a88:	8fbf001c 	lw	ra,28(sp)
    3a8c:	00001021 	move	v0,zero
    3a90:	8fb10018 	lw	s1,24(sp)
    3a94:	8fb00014 	lw	s0,20(sp)
    3a98:	03e00008 	jr	ra
    3a9c:	27bd0020 	addiu	sp,sp,32
    3aa0:	0c000cd8 	jal	0x3360
    3aa4:	2404000d 	li	a0,13
    3aa8:	92040000 	lbu	a0,0(s0)
    3aac:	08000e99 	j	0x3a64
    3ab0:	00000000 	nop
    3ab4:	8f8480d8 	lw	a0,-32552(gp)
    3ab8:	08000bba 	j	0x2ee8
    3abc:	24050001 	li	a1,1
    3ac0:	8f8380d8 	lw	v1,-32552(gp)
    3ac4:	00000000 	nop
    3ac8:	8c640008 	lw	a0,8(v1)
    3acc:	8c62000c 	lw	v0,12(v1)
    3ad0:	00000000 	nop
    3ad4:	00821026 	xor	v0,a0,v0
    3ad8:	03e00008 	jr	ra
    3adc:	0002102b 	sltu	v0,zero,v0
    3ae0:	8c820058 	lw	v0,88(a0)
    3ae4:	8c85001c 	lw	a1,28(a0)
    3ae8:	24420004 	addiu	v0,v0,4
    3aec:	ac820058 	sw	v0,88(a0)
    3af0:	3c040001 	lui	a0,0x1
    3af4:	08000d18 	j	0x3460
    3af8:	2484c924 	addiu	a0,a0,-14044
    3afc:	27bdfac0 	addiu	sp,sp,-1344
    3b00:	3c040001 	lui	a0,0x1
    3b04:	afb40528 	sw	s4,1320(sp)
    3b08:	2484c93c 	addiu	a0,a0,-14020
    3b0c:	27b40110 	addiu	s4,sp,272
    3b10:	afbf053c 	sw	ra,1340(sp)
    3b14:	afb30524 	sw	s3,1316(sp)
    3b18:	afb20520 	sw	s2,1312(sp)
    3b1c:	afb1051c 	sw	s1,1308(sp)
    3b20:	afb00518 	sw	s0,1304(sp)
    3b24:	afbe0538 	sw	s8,1336(sp)
    3b28:	afb70534 	sw	s7,1332(sp)
    3b2c:	afb60530 	sw	s6,1328(sp)
    3b30:	afb5052c 	sw	s5,1324(sp)
    3b34:	0c000d18 	jal	0x3460
    3b38:	3c100001 	lui	s0,0x1
    3b3c:	3c130001 	lui	s3,0x1
    3b40:	02802021 	move	a0,s4
    3b44:	00002821 	move	a1,zero
    3b48:	0c00092b 	jal	0x24ac
    3b4c:	24060400 	li	a2,1024
    3b50:	241203e8 	li	s2,1000
    3b54:	27b10010 	addiu	s1,sp,16
    3b58:	2610c948 	addiu	s0,s0,-14008
    3b5c:	2673c950 	addiu	s3,s3,-14000
    3b60:	0c00093c 	jal	0x24f0
    3b64:	00000000 	nop
    3b68:	305700ff 	andi	s7,v0,0xff
    3b6c:	0017b080 	sll	s6,s7,0x2
    3b70:	02361021 	addu	v0,s1,s6
    3b74:	8c420100 	lw	v0,256(v0)
    3b78:	00000000 	nop
    3b7c:	10400014 	beqz	v0,0x3bd0
    3b80:	02371821 	addu	v1,s1,s7
    3b84:	907e0000 	lbu	s8,0(v1)
    3b88:	00000000 	nop
    3b8c:	13c0000e 	beqz	s8,0x3bc8
    3b90:	0000a821 	move	s5,zero
    3b94:	00551821 	addu	v1,v0,s5
    3b98:	90630000 	lbu	v1,0(v1)
    3b9c:	26b50001 	addiu	s5,s5,1
    3ba0:	107e0004 	beq	v1,s8,0x3bb4
    3ba4:	02002021 	move	a0,s0
    3ba8:	0c000d18 	jal	0x3460
    3bac:	afa20510 	sw	v0,1296(sp)
    3bb0:	8fa20510 	lw	v0,1296(sp)
    3bb4:	02be182a 	slt	v1,s5,s8
    3bb8:	1460fff7 	bnez	v1,0x3b98
    3bbc:	00551821 	addu	v1,v0,s5
    3bc0:	02361021 	addu	v0,s1,s6
    3bc4:	8c420100 	lw	v0,256(v0)
    3bc8:	0c00036a 	jal	0xda8
    3bcc:	00402021 	move	a0,v0
    3bd0:	0c00093c 	jal	0x24f0
    3bd4:	0237b821 	addu	s7,s1,s7
    3bd8:	305500ff 	andi	s5,v0,0xff
    3bdc:	00002021 	move	a0,zero
    3be0:	02a02821 	move	a1,s5
    3be4:	0c0002ba 	jal	0xae8
    3be8:	a2f50000 	sb	s5,0(s7)
    3bec:	0236b021 	addu	s6,s1,s6
    3bf0:	10400031 	beqz	v0,0x3cb8
    3bf4:	aec20100 	sw	v0,256(s6)
    3bf8:	02a02821 	move	a1,s5
    3bfc:	00402021 	move	a0,v0
    3c00:	0c00092b 	jal	0x24ac
    3c04:	02a03021 	move	a2,s5
    3c08:	2652ffff 	addiu	s2,s2,-1
    3c0c:	1640ffd4 	bnez	s2,0x3b60
    3c10:	00000000 	nop
    3c14:	27b00510 	addiu	s0,sp,1296
    3c18:	8e820000 	lw	v0,0(s4)
    3c1c:	26940004 	addiu	s4,s4,4
    3c20:	10400003 	beqz	v0,0x3c30
    3c24:	00402021 	move	a0,v0
    3c28:	0c00036a 	jal	0xda8
    3c2c:	00000000 	nop
    3c30:	1690fff9 	bne	s4,s0,0x3c18
    3c34:	00000000 	nop
    3c38:	3c11000f 	lui	s1,0xf
    3c3c:	241003e8 	li	s0,1000
    3c40:	08000f16 	j	0x3c58
    3c44:	26314240 	addiu	s1,s1,16960
    3c48:	0c00036a 	jal	0xda8
    3c4c:	261003e8 	addiu	s0,s0,1000
    3c50:	12110006 	beq	s0,s1,0x3c6c
    3c54:	00000000 	nop
    3c58:	00002021 	move	a0,zero
    3c5c:	0c0002ba 	jal	0xae8
    3c60:	02002821 	move	a1,s0
    3c64:	1440fff8 	bnez	v0,0x3c48
    3c68:	00402021 	move	a0,v0
    3c6c:	3c040001 	lui	a0,0x1
    3c70:	02002821 	move	a1,s0
    3c74:	0c000d18 	jal	0x3460
    3c78:	2484c960 	addiu	a0,a0,-13984
    3c7c:	3c040001 	lui	a0,0x1
    3c80:	0c000d18 	jal	0x3460
    3c84:	2484c974 	addiu	a0,a0,-13964
    3c88:	8fbf053c 	lw	ra,1340(sp)
    3c8c:	8fbe0538 	lw	s8,1336(sp)
    3c90:	8fb70534 	lw	s7,1332(sp)
    3c94:	8fb60530 	lw	s6,1328(sp)
    3c98:	8fb5052c 	lw	s5,1324(sp)
    3c9c:	8fb40528 	lw	s4,1320(sp)
    3ca0:	8fb30524 	lw	s3,1316(sp)
    3ca4:	8fb20520 	lw	s2,1312(sp)
    3ca8:	8fb1051c 	lw	s1,1308(sp)
    3cac:	8fb00518 	lw	s0,1304(sp)
    3cb0:	03e00008 	jr	ra
    3cb4:	27bd0540 	addiu	sp,sp,1344
    3cb8:	0c000d18 	jal	0x3460
    3cbc:	02602021 	move	a0,s3
    3cc0:	08000f03 	j	0x3c0c
    3cc4:	2652ffff 	addiu	s2,s2,-1
    3cc8:	27bdffd8 	addiu	sp,sp,-40
    3ccc:	afbf0024 	sw	ra,36(sp)
    3cd0:	afb20020 	sw	s2,32(sp)
    3cd4:	afb1001c 	sw	s1,28(sp)
    3cd8:	00809021 	move	s2,a0
    3cdc:	0c000167 	jal	0x59c
    3ce0:	afb00018 	sw	s0,24(sp)
    3ce4:	00402021 	move	a0,v0
    3ce8:	0c00017f 	jal	0x5fc
    3cec:	00408821 	move	s1,v0
    3cf0:	2404000a 	li	a0,10
    3cf4:	0c000268 	jal	0x9a0
    3cf8:	00408021 	move	s0,v0
    3cfc:	02202021 	move	a0,s1
    3d00:	0c000175 	jal	0x5d4
    3d04:	00002821 	move	a1,zero
    3d08:	3c040001 	lui	a0,0x1
    3d0c:	02402821 	move	a1,s2
    3d10:	02203021 	move	a2,s1
    3d14:	2484c97c 	addiu	a0,a0,-13956
    3d18:	00403821 	move	a3,v0
    3d1c:	0c000d18 	jal	0x3460
    3d20:	afb00010 	sw	s0,16(sp)
    3d24:	8fbf0024 	lw	ra,36(sp)
    3d28:	8fb20020 	lw	s2,32(sp)
    3d2c:	8fb1001c 	lw	s1,28(sp)
    3d30:	8fb00018 	lw	s0,24(sp)
    3d34:	080003e5 	j	0xf94
    3d38:	27bd0028 	addiu	sp,sp,40
    3d3c:	27bdffe0 	addiu	sp,sp,-32
    3d40:	afb20018 	sw	s2,24(sp)
    3d44:	3c120001 	lui	s2,0x1
    3d48:	afb10014 	sw	s1,20(sp)
    3d4c:	afb00010 	sw	s0,16(sp)
    3d50:	afbf001c 	sw	ra,28(sp)
    3d54:	00808021 	move	s0,a0
    3d58:	24110019 	li	s1,25
    3d5c:	2652d560 	addiu	s2,s2,-10912
    3d60:	0c000d18 	jal	0x3460
    3d64:	02402021 	move	a0,s2
    3d68:	8e040028 	lw	a0,40(s0)
    3d6c:	0c0001eb 	jal	0x7ac
    3d70:	2405ffff 	li	a1,-1
    3d74:	8e04008c 	lw	a0,140(s0)
    3d78:	0c000276 	jal	0x9d8
    3d7c:	2631ffff 	addiu	s1,s1,-1
    3d80:	1620fff7 	bnez	s1,0x3d60
    3d84:	26100004 	addiu	s0,s0,4
    3d88:	8fbf001c 	lw	ra,28(sp)
    3d8c:	8fb20018 	lw	s2,24(sp)
    3d90:	8fb10014 	lw	s1,20(sp)
    3d94:	8fb00010 	lw	s0,16(sp)
    3d98:	080003e5 	j	0xf94
    3d9c:	27bd0020 	addiu	sp,sp,32
    3da0:	27bdfe80 	addiu	sp,sp,-384
    3da4:	3c040001 	lui	a0,0x1
    3da8:	afb3016c 	sw	s3,364(sp)
    3dac:	afb00160 	sw	s0,352(sp)
    3db0:	2484c9a8 	addiu	a0,a0,-13912
    3db4:	27b00040 	addiu	s0,sp,64
    3db8:	3c130001 	lui	s3,0x1
    3dbc:	afb20168 	sw	s2,360(sp)
    3dc0:	afb10164 	sw	s1,356(sp)
    3dc4:	afbf017c 	sw	ra,380(sp)
    3dc8:	afb60178 	sw	s6,376(sp)
    3dcc:	afb50174 	sw	s5,372(sp)
    3dd0:	afb40170 	sw	s4,368(sp)
    3dd4:	0c000d18 	jal	0x3460
    3dd8:	27b10108 	addiu	s1,sp,264
    3ddc:	02009021 	move	s2,s0
    3de0:	2673c9b8 	addiu	s3,s3,-13896
    3de4:	02602021 	move	a0,s3
    3de8:	0c000318 	jal	0xc60
    3dec:	00002821 	move	a1,zero
    3df0:	ae420000 	sw	v0,0(s2)
    3df4:	26520004 	addiu	s2,s2,4
    3df8:	1651fffa 	bne	s2,s1,0x3de4
    3dfc:	3c040001 	lui	a0,0x1
    3e00:	3c050000 	lui	a1,0x0
    3e04:	2484c9c0 	addiu	a0,a0,-13888
    3e08:	24a53d3c 	addiu	a1,a1,15676
    3e0c:	27a60018 	addiu	a2,sp,24
    3e10:	24070032 	li	a3,50
    3e14:	3c130001 	lui	s3,0x1
    3e18:	3c160001 	lui	s6,0x1
    3e1c:	3c150001 	lui	s5,0x1
    3e20:	afa00010 	sw	zero,16(sp)
    3e24:	0c000416 	jal	0x1058
    3e28:	27b400a4 	addiu	s4,sp,164
    3e2c:	02009021 	move	s2,s0
    3e30:	2673c9c8 	addiu	s3,s3,-13880
    3e34:	26d6c884 	addiu	s6,s6,-14204
    3e38:	26b5c9cc 	addiu	s5,s5,-13876
    3e3c:	0c000d18 	jal	0x3460
    3e40:	02602021 	move	a0,s3
    3e44:	8e440000 	lw	a0,0(s2)
    3e48:	0c000276 	jal	0x9d8
    3e4c:	00000000 	nop
    3e50:	8e440064 	lw	a0,100(s2)
    3e54:	0c0001eb 	jal	0x7ac
    3e58:	240501f4 	li	a1,500
    3e5c:	14400023 	bnez	v0,0x3eec
    3e60:	26520004 	addiu	s2,s2,4
    3e64:	1654fff5 	bne	s2,s4,0x3e3c
    3e68:	00000000 	nop
    3e6c:	3c120001 	lui	s2,0x1
    3e70:	0c000d18 	jal	0x3460
    3e74:	2644c9d8 	addiu	a0,s2,-13864
    3e78:	8fa40040 	lw	a0,64(sp)
    3e7c:	0c0001eb 	jal	0x7ac
    3e80:	2405000a 	li	a1,10
    3e84:	10400023 	beqz	v0,0x3f14
    3e88:	00000000 	nop
    3e8c:	0c000d18 	jal	0x3460
    3e90:	2644c9d8 	addiu	a0,s2,-13864
    3e94:	8fa40040 	lw	a0,64(sp)
    3e98:	0c0001eb 	jal	0x7ac
    3e9c:	24050064 	li	a1,100
    3ea0:	0c000d18 	jal	0x3460
    3ea4:	2644c9d8 	addiu	a0,s2,-13864
    3ea8:	8e040000 	lw	a0,0(s0)
    3eac:	0c0003d1 	jal	0xf44
    3eb0:	26100004 	addiu	s0,s0,4
    3eb4:	1611fffc 	bne	s0,s1,0x3ea8
    3eb8:	3c040001 	lui	a0,0x1
    3ebc:	0c000d18 	jal	0x3460
    3ec0:	2484c9dc 	addiu	a0,a0,-13860
    3ec4:	8fbf017c 	lw	ra,380(sp)
    3ec8:	8fb60178 	lw	s6,376(sp)
    3ecc:	8fb50174 	lw	s5,372(sp)
    3ed0:	8fb40170 	lw	s4,368(sp)
    3ed4:	8fb3016c 	lw	s3,364(sp)
    3ed8:	8fb20168 	lw	s2,360(sp)
    3edc:	8fb10164 	lw	s1,356(sp)
    3ee0:	8fb00160 	lw	s0,352(sp)
    3ee4:	03e00008 	jr	ra
    3ee8:	27bd0180 	addiu	sp,sp,384
    3eec:	0c000842 	jal	0x2108
    3ef0:	00000000 	nop
    3ef4:	02c02021 	move	a0,s6
    3ef8:	02a02821 	move	a1,s5
    3efc:	0c000dc6 	jal	0x3718
    3f00:	240600d2 	li	a2,210
    3f04:	1654ffcd 	bne	s2,s4,0x3e3c
    3f08:	00000000 	nop
    3f0c:	08000f9c 	j	0x3e70
    3f10:	3c120001 	lui	s2,0x1
    3f14:	0c000842 	jal	0x2108
    3f18:	00000000 	nop
    3f1c:	3c040001 	lui	a0,0x1
    3f20:	3c050001 	lui	a1,0x1
    3f24:	2484c884 	addiu	a0,a0,-14204
    3f28:	24a5c9cc 	addiu	a1,a1,-13876
    3f2c:	0c000dc6 	jal	0x3718
    3f30:	240600d7 	li	a2,215
    3f34:	08000fa3 	j	0x3e8c
    3f38:	00000000 	nop
    3f3c:	27bdffe8 	addiu	sp,sp,-24
    3f40:	afb00010 	sw	s0,16(sp)
    3f44:	00808021 	move	s0,a0
    3f48:	3c040001 	lui	a0,0x1
    3f4c:	afbf0014 	sw	ra,20(sp)
    3f50:	0c000d18 	jal	0x3460
    3f54:	2484c9e4 	addiu	a0,a0,-13852
    3f58:	8e0400f0 	lw	a0,240(s0)
    3f5c:	0c0004b2 	jal	0x12c8
    3f60:	00000000 	nop
    3f64:	3c040001 	lui	a0,0x1
    3f68:	0c000d18 	jal	0x3460
    3f6c:	2484c9f8 	addiu	a0,a0,-13832
    3f70:	8e0400f0 	lw	a0,240(s0)
    3f74:	0c0004b2 	jal	0x12c8
    3f78:	00000000 	nop
    3f7c:	3c040001 	lui	a0,0x1
    3f80:	0c000d18 	jal	0x3460
    3f84:	2484ca08 	addiu	a0,a0,-13816
    3f88:	8e0400f0 	lw	a0,240(s0)
    3f8c:	0c0004b2 	jal	0x12c8
    3f90:	00000000 	nop
    3f94:	3c040001 	lui	a0,0x1
    3f98:	0c000d18 	jal	0x3460
    3f9c:	2484ca18 	addiu	a0,a0,-13800
    3fa0:	0c000268 	jal	0x9a0
    3fa4:	24040064 	li	a0,100
    3fa8:	8e0400f0 	lw	a0,240(s0)
    3fac:	0c0004d8 	jal	0x1360
    3fb0:	00000000 	nop
    3fb4:	8e0400f0 	lw	a0,240(s0)
    3fb8:	0c0004d8 	jal	0x1360
    3fbc:	00000000 	nop
    3fc0:	8e0400f0 	lw	a0,240(s0)
    3fc4:	0c0004d8 	jal	0x1360
    3fc8:	00000000 	nop
    3fcc:	8fbf0014 	lw	ra,20(sp)
    3fd0:	8fb00010 	lw	s0,16(sp)
    3fd4:	080003e5 	j	0xf94
    3fd8:	27bd0018 	addiu	sp,sp,24
    3fdc:	3c040001 	lui	a0,0x1
    3fe0:	27bdfe98 	addiu	sp,sp,-360
    3fe4:	afbf0164 	sw	ra,356(sp)
    3fe8:	0c000d18 	jal	0x3460
    3fec:	2484ca28 	addiu	a0,a0,-13784
    3ff0:	3c040001 	lui	a0,0x1
    3ff4:	0c000487 	jal	0x121c
    3ff8:	2484ca34 	addiu	a0,a0,-13772
    3ffc:	00402021 	move	a0,v0
    4000:	0c0004b2 	jal	0x12c8
    4004:	afa20108 	sw	v0,264(sp)
    4008:	8fa40108 	lw	a0,264(sp)
    400c:	0c0004b2 	jal	0x12c8
    4010:	00000000 	nop
    4014:	8fa40108 	lw	a0,264(sp)
    4018:	0c0004b2 	jal	0x12c8
    401c:	00000000 	nop
    4020:	0c000268 	jal	0x9a0
    4024:	24040064 	li	a0,100
    4028:	3c050000 	lui	a1,0x0
    402c:	3c040001 	lui	a0,0x1
    4030:	27a60018 	addiu	a2,sp,24
    4034:	24a53f3c 	addiu	a1,a1,16188
    4038:	24070032 	li	a3,50
    403c:	2484ca3c 	addiu	a0,a0,-13764
    4040:	0c000416 	jal	0x1058
    4044:	afa00010 	sw	zero,16(sp)
    4048:	0c000268 	jal	0x9a0
    404c:	24040032 	li	a0,50
    4050:	8fa40108 	lw	a0,264(sp)
    4054:	0c0004d8 	jal	0x1360
    4058:	00000000 	nop
    405c:	8fa40108 	lw	a0,264(sp)
    4060:	0c0004d8 	jal	0x1360
    4064:	00000000 	nop
    4068:	8fa40108 	lw	a0,264(sp)
    406c:	0c0004d8 	jal	0x1360
    4070:	00000000 	nop
    4074:	3c040001 	lui	a0,0x1
    4078:	0c000d18 	jal	0x3460
    407c:	2484ca48 	addiu	a0,a0,-13752
    4080:	8fa40108 	lw	a0,264(sp)
    4084:	0c0004b2 	jal	0x12c8
    4088:	00000000 	nop
    408c:	3c040001 	lui	a0,0x1
    4090:	0c000d18 	jal	0x3460
    4094:	2484ca58 	addiu	a0,a0,-13736
    4098:	8fa40108 	lw	a0,264(sp)
    409c:	0c0004a6 	jal	0x1298
    40a0:	00000000 	nop
    40a4:	3c040001 	lui	a0,0x1
    40a8:	0c000d18 	jal	0x3460
    40ac:	2484c974 	addiu	a0,a0,-13964
    40b0:	8fbf0164 	lw	ra,356(sp)
    40b4:	00000000 	nop
    40b8:	03e00008 	jr	ra
    40bc:	27bd0168 	addiu	sp,sp,360
    40c0:	27bdffc8 	addiu	sp,sp,-56
    40c4:	afb00024 	sw	s0,36(sp)
    40c8:	00808021 	move	s0,a0
    40cc:	24040001 	li	a0,1
    40d0:	afbf0034 	sw	ra,52(sp)
    40d4:	afb30030 	sw	s3,48(sp)
    40d8:	afb2002c 	sw	s2,44(sp)
    40dc:	0c000268 	jal	0x9a0
    40e0:	afb10028 	sw	s1,40(sp)
    40e4:	0c000167 	jal	0x59c
    40e8:	27b20010 	addiu	s2,sp,16
    40ec:	00402021 	move	a0,v0
    40f0:	0c000175 	jal	0x5d4
    40f4:	00002821 	move	a1,zero
    40f8:	24530046 	addiu	s3,v0,70
    40fc:	00139880 	sll	s3,s3,0x2
    4100:	02139821 	addu	s3,s0,s3
    4104:	8e640004 	lw	a0,4(s3)
    4108:	240603e8 	li	a2,1000
    410c:	0c000595 	jal	0x1654
    4110:	02402821 	move	a1,s2
    4114:	3c110001 	lui	s1,0x1
    4118:	8fa50018 	lw	a1,24(sp)
    411c:	0c000d18 	jal	0x3460
    4120:	2624cde8 	addiu	a0,s1,-12824
    4124:	8e640004 	lw	a0,4(s3)
    4128:	02402821 	move	a1,s2
    412c:	0c000595 	jal	0x1654
    4130:	240603e8 	li	a2,1000
    4134:	8fa50018 	lw	a1,24(sp)
    4138:	0c000d18 	jal	0x3460
    413c:	2624cde8 	addiu	a0,s1,-12824
    4140:	8e020144 	lw	v0,324(s0)
    4144:	00000000 	nop
    4148:	24420001 	addiu	v0,v0,1
    414c:	0c0003e5 	jal	0xf94
    4150:	ae020144 	sw	v0,324(s0)
    4154:	8fbf0034 	lw	ra,52(sp)
    4158:	8fb30030 	lw	s3,48(sp)
    415c:	8fb2002c 	lw	s2,44(sp)
    4160:	8fb10028 	lw	s1,40(sp)
    4164:	8fb00024 	lw	s0,36(sp)
    4168:	03e00008 	jr	ra
    416c:	27bd0038 	addiu	sp,sp,56
    4170:	27bdfe78 	addiu	sp,sp,-392
    4174:	3c040001 	lui	a0,0x1
    4178:	afb6017c 	sw	s6,380(sp)
    417c:	afb50178 	sw	s5,376(sp)
    4180:	afb40174 	sw	s4,372(sp)
    4184:	afb30170 	sw	s3,368(sp)
    4188:	2484ca60 	addiu	a0,a0,-13728
    418c:	3c160001 	lui	s6,0x1
    4190:	3c150001 	lui	s5,0x1
    4194:	3c140001 	lui	s4,0x1
    4198:	3c130000 	lui	s3,0x0
    419c:	afb70180 	sw	s7,384(sp)
    41a0:	afb2016c 	sw	s2,364(sp)
    41a4:	afb10168 	sw	s1,360(sp)
    41a8:	afb00164 	sw	s0,356(sp)
    41ac:	afbf0184 	sw	ra,388(sp)
    41b0:	0c000d18 	jal	0x3460
    41b4:	27b1010c 	addiu	s1,sp,268
    41b8:	2412000a 	li	s2,10
    41bc:	afa0015c 	sw	zero,348(sp)
    41c0:	00008021 	move	s0,zero
    41c4:	27b70018 	addiu	s7,sp,24
    41c8:	26d6ca6c 	addiu	s6,s6,-13716
    41cc:	26b5ca74 	addiu	s5,s5,-13708
    41d0:	2694ca7c 	addiu	s4,s4,-13700
    41d4:	267340c0 	addiu	s3,s3,16576
    41d8:	02c02021 	move	a0,s6
    41dc:	2405000a 	li	a1,10
    41e0:	0c000508 	jal	0x1420
    41e4:	24060010 	li	a2,16
    41e8:	00402821 	move	a1,v0
    41ec:	02003021 	move	a2,s0
    41f0:	02a02021 	move	a0,s5
    41f4:	0c00061c 	jal	0x1870
    41f8:	ae220028 	sw	v0,40(s1)
    41fc:	24070032 	li	a3,50
    4200:	02802021 	move	a0,s4
    4204:	02602821 	move	a1,s3
    4208:	02e03021 	move	a2,s7
    420c:	ae220000 	sw	v0,0(s1)
    4210:	0c000416 	jal	0x1058
    4214:	afa00010 	sw	zero,16(sp)
    4218:	00402021 	move	a0,v0
    421c:	02003021 	move	a2,s0
    4220:	00002821 	move	a1,zero
    4224:	0c00016d 	jal	0x5b4
    4228:	ae22ff0c 	sw	v0,-244(s1)
    422c:	8e240000 	lw	a0,0(s1)
    4230:	02402821 	move	a1,s2
    4234:	0c000685 	jal	0x1a14
    4238:	260600dc 	addiu	a2,s0,220
    423c:	26100001 	addiu	s0,s0,1
    4240:	2402000a 	li	v0,10
    4244:	26310004 	addiu	s1,s1,4
    4248:	1602ffe3 	bne	s0,v0,0x41d8
    424c:	26520002 	addiu	s2,s2,2
    4250:	8fa2015c 	lw	v0,348(sp)
    4254:	00000000 	nop
    4258:	2842000a 	slti	v0,v0,10
    425c:	10400008 	beqz	v0,0x4280
    4260:	00000000 	nop
    4264:	0c000268 	jal	0x9a0
    4268:	2404000a 	li	a0,10
    426c:	8fa2015c 	lw	v0,348(sp)
    4270:	00000000 	nop
    4274:	2842000a 	slti	v0,v0,10
    4278:	1440fffa 	bnez	v0,0x4264
    427c:	00000000 	nop
    4280:	27b00134 	addiu	s0,sp,308
    4284:	27b1015c 	addiu	s1,sp,348
    4288:	8e040000 	lw	a0,0(s0)
    428c:	0c000548 	jal	0x1520
    4290:	00000000 	nop
    4294:	8e04ffd8 	lw	a0,-40(s0)
    4298:	0c00074e 	jal	0x1d38
    429c:	26100004 	addiu	s0,s0,4
    42a0:	1611fff9 	bne	s0,s1,0x4288
    42a4:	3c040001 	lui	a0,0x1
    42a8:	0c000d18 	jal	0x3460
    42ac:	2484c974 	addiu	a0,a0,-13964
    42b0:	8fbf0184 	lw	ra,388(sp)
    42b4:	8fb70180 	lw	s7,384(sp)
    42b8:	8fb6017c 	lw	s6,380(sp)
    42bc:	8fb50178 	lw	s5,376(sp)
    42c0:	8fb40174 	lw	s4,372(sp)
    42c4:	8fb30170 	lw	s3,368(sp)
    42c8:	8fb2016c 	lw	s2,364(sp)
    42cc:	8fb10168 	lw	s1,360(sp)
    42d0:	8fb00164 	lw	s0,356(sp)
    42d4:	03e00008 	jr	ra
    42d8:	27bd0188 	addiu	sp,sp,392
    42dc:	27bdffa0 	addiu	sp,sp,-96
    42e0:	afb20040 	sw	s2,64(sp)
    42e4:	8f928018 	lw	s2,-32744(gp)
    42e8:	afb30044 	sw	s3,68(sp)
    42ec:	3c130001 	lui	s3,0x1
    42f0:	afbe0058 	sw	s8,88(sp)
    42f4:	afb70054 	sw	s7,84(sp)
    42f8:	afb60050 	sw	s6,80(sp)
    42fc:	afb5004c 	sw	s5,76(sp)
    4300:	afb40048 	sw	s4,72(sp)
    4304:	afb1003c 	sw	s1,60(sp)
    4308:	afb00038 	sw	s0,56(sp)
    430c:	afbf005c 	sw	ra,92(sp)
    4310:	24110014 	li	s1,20
    4314:	2410ffd8 	li	s0,-40
    4318:	0240f021 	move	s8,s2
    431c:	0240b821 	move	s7,s2
    4320:	0240b021 	move	s6,s2
    4324:	0240a821 	move	s5,s2
    4328:	0240a021 	move	s4,s2
    432c:	2673ca94 	addiu	s3,s3,-13676
    4330:	0c0014ab 	jal	0x52ac
    4334:	02002021 	move	a0,s0
    4338:	8f858010 	lw	a1,-32752(gp)
    433c:	0c00139a 	jal	0x4e68
    4340:	00402021 	move	a0,v0
    4344:	02202021 	move	a0,s1
    4348:	0c0014ab 	jal	0x52ac
    434c:	afa20020 	sw	v0,32(sp)
    4350:	8f858014 	lw	a1,-32748(gp)
    4354:	0c00139a 	jal	0x4e68
    4358:	00402021 	move	a0,v0
    435c:	8fa40020 	lw	a0,32(sp)
    4360:	02402821 	move	a1,s2
    4364:	0c0013ec 	jal	0x4fb0
    4368:	afa20024 	sw	v0,36(sp)
    436c:	0c001494 	jal	0x5250
    4370:	00402021 	move	a0,v0
    4374:	8fa40024 	lw	a0,36(sp)
    4378:	03c02821 	move	a1,s8
    437c:	0c0013ec 	jal	0x4fb0
    4380:	afa20030 	sw	v0,48(sp)
    4384:	0c001494 	jal	0x5250
    4388:	00402021 	move	a0,v0
    438c:	8fa40020 	lw	a0,32(sp)
    4390:	8fa50024 	lw	a1,36(sp)
    4394:	0c00139a 	jal	0x4e68
    4398:	afa2002c 	sw	v0,44(sp)
    439c:	00402021 	move	a0,v0
    43a0:	0c0013ec 	jal	0x4fb0
    43a4:	02e02821 	move	a1,s7
    43a8:	0c001494 	jal	0x5250
    43ac:	00402021 	move	a0,v0
    43b0:	8fa40020 	lw	a0,32(sp)
    43b4:	8fa50024 	lw	a1,36(sp)
    43b8:	0c0013e9 	jal	0x4fa4
    43bc:	afa20028 	sw	v0,40(sp)
    43c0:	00402021 	move	a0,v0
    43c4:	0c0013ec 	jal	0x4fb0
    43c8:	02c02821 	move	a1,s6
    43cc:	0c001494 	jal	0x5250
    43d0:	00402021 	move	a0,v0
    43d4:	8fa40020 	lw	a0,32(sp)
    43d8:	8fa50024 	lw	a1,36(sp)
    43dc:	0c0013ec 	jal	0x4fb0
    43e0:	afa20010 	sw	v0,16(sp)
    43e4:	00402021 	move	a0,v0
    43e8:	0c0013ec 	jal	0x4fb0
    43ec:	02a02821 	move	a1,s5
    43f0:	0c001494 	jal	0x5250
    43f4:	00402021 	move	a0,v0
    43f8:	8fa40020 	lw	a0,32(sp)
    43fc:	8fa50024 	lw	a1,36(sp)
    4400:	0c001429 	jal	0x50a4
    4404:	afa20014 	sw	v0,20(sp)
    4408:	00402021 	move	a0,v0
    440c:	0c0013ec 	jal	0x4fb0
    4410:	02802821 	move	a1,s4
    4414:	0c001494 	jal	0x5250
    4418:	00402021 	move	a0,v0
    441c:	8fa30030 	lw	v1,48(sp)
    4420:	8fa6002c 	lw	a2,44(sp)
    4424:	8fa70028 	lw	a3,40(sp)
    4428:	02602021 	move	a0,s3
    442c:	00602821 	move	a1,v1
    4430:	afa20018 	sw	v0,24(sp)
    4434:	0c000d18 	jal	0x3460
    4438:	2610000a 	addiu	s0,s0,10
    443c:	24020028 	li	v0,40
    4440:	1602ffbb 	bne	s0,v0,0x4330
    4444:	2631fffb 	addiu	s1,s1,-5
    4448:	8f92801c 	lw	s2,-32740(gp)
    444c:	00009821 	move	s3,zero
    4450:	24110001 	li	s1,1
    4454:	0240f021 	move	s8,s2
    4458:	0240b821 	move	s7,s2
    445c:	0240b021 	move	s6,s2
    4460:	24150004 	li	s5,4
    4464:	0c0014ab 	jal	0x52ac
    4468:	02202021 	move	a0,s1
    446c:	00402021 	move	a0,v0
    4470:	02402821 	move	a1,s2
    4474:	00408021 	move	s0,v0
    4478:	00139840 	sll	s3,s3,0x1
    447c:	0c001501 	jal	0x5404
    4480:	24140001 	li	s4,1
    4484:	10400002 	beqz	v0,0x4490
    4488:	00000000 	nop
    448c:	0000a021 	move	s4,zero
    4490:	8f85801c 	lw	a1,-32740(gp)
    4494:	02939825 	or	s3,s4,s3
    4498:	02002021 	move	a0,s0
    449c:	00139840 	sll	s3,s3,0x1
    44a0:	0c001504 	jal	0x5410
    44a4:	24140001 	li	s4,1
    44a8:	14400002 	bnez	v0,0x44b4
    44ac:	00000000 	nop
    44b0:	0000a021 	move	s4,zero
    44b4:	8f85801c 	lw	a1,-32740(gp)
    44b8:	0c0014f9 	jal	0x53e4
    44bc:	02002021 	move	a0,s0
    44c0:	0274a025 	or	s4,s3,s4
    44c4:	0014a040 	sll	s4,s4,0x1
    44c8:	000217c2 	srl	v0,v0,0x1f
    44cc:	0282a025 	or	s4,s4,v0
    44d0:	02002021 	move	a0,s0
    44d4:	03c02821 	move	a1,s8
    44d8:	0014a040 	sll	s4,s4,0x1
    44dc:	0c0014fb 	jal	0x53ec
    44e0:	24130001 	li	s3,1
    44e4:	18400003 	blez	v0,0x44f4
    44e8:	02939825 	or	s3,s4,s3
    44ec:	00009821 	move	s3,zero
    44f0:	02939825 	or	s3,s4,s3
    44f4:	02002021 	move	a0,s0
    44f8:	02e02821 	move	a1,s7
    44fc:	00139840 	sll	s3,s3,0x1
    4500:	0c0014fd 	jal	0x53f4
    4504:	24140001 	li	s4,1
    4508:	18400043 	blez	v0,0x4618
    450c:	00000000 	nop
    4510:	02749825 	or	s3,s3,s4
    4514:	02002021 	move	a0,s0
    4518:	02c02821 	move	a1,s6
    451c:	00139840 	sll	s3,s3,0x1
    4520:	0c0014ff 	jal	0x53fc
    4524:	24100001 	li	s0,1
    4528:	04400039 	bltz	v0,0x4610
    452c:	00000000 	nop
    4530:	26310001 	addiu	s1,s1,1
    4534:	1635ffcb 	bne	s1,s5,0x4464
    4538:	02709825 	or	s3,s3,s0
    453c:	3c020001 	lui	v0,0x1
    4540:	3442c953 	ori	v0,v0,0xc953
    4544:	12620036 	beq	s3,v0,0x4620
    4548:	3c060001 	lui	a2,0x1
    454c:	3c060001 	lui	a2,0x1
    4550:	24c6ca8c 	addiu	a2,a2,-13684
    4554:	3c040001 	lui	a0,0x1
    4558:	02602821 	move	a1,s3
    455c:	0c000d18 	jal	0x3460
    4560:	2484cad0 	addiu	a0,a0,-13616
    4564:	8f928018 	lw	s2,-32744(gp)
    4568:	3c130001 	lui	s3,0x1
    456c:	8f958020 	lw	s5,-32736(gp)
    4570:	24110011 	li	s1,17
    4574:	00008021 	move	s0,zero
    4578:	0240a021 	move	s4,s2
    457c:	2673cae4 	addiu	s3,s3,-13596
    4580:	0c001552 	jal	0x5548
    4584:	02002021 	move	a0,s0
    4588:	02002021 	move	a0,s0
    458c:	02402821 	move	a1,s2
    4590:	0c0013ec 	jal	0x4fb0
    4594:	0040b821 	move	s7,v0
    4598:	0c001494 	jal	0x5250
    459c:	00402021 	move	a0,v0
    45a0:	02802821 	move	a1,s4
    45a4:	02e02021 	move	a0,s7
    45a8:	0c0013ec 	jal	0x4fb0
    45ac:	0040b021 	move	s6,v0
    45b0:	0c001494 	jal	0x5250
    45b4:	00402021 	move	a0,v0
    45b8:	00403021 	move	a2,v0
    45bc:	02602021 	move	a0,s3
    45c0:	0c000d18 	jal	0x3460
    45c4:	02c02821 	move	a1,s6
    45c8:	02002021 	move	a0,s0
    45cc:	0c00139a 	jal	0x4e68
    45d0:	02a02821 	move	a1,s5
    45d4:	2631ffff 	addiu	s1,s1,-1
    45d8:	1620ffe9 	bnez	s1,0x4580
    45dc:	00408021 	move	s0,v0
    45e0:	8fbf005c 	lw	ra,92(sp)
    45e4:	8fbe0058 	lw	s8,88(sp)
    45e8:	8fb70054 	lw	s7,84(sp)
    45ec:	8fb60050 	lw	s6,80(sp)
    45f0:	8fb5004c 	lw	s5,76(sp)
    45f4:	8fb40048 	lw	s4,72(sp)
    45f8:	8fb30044 	lw	s3,68(sp)
    45fc:	8fb20040 	lw	s2,64(sp)
    4600:	8fb1003c 	lw	s1,60(sp)
    4604:	8fb00038 	lw	s0,56(sp)
    4608:	03e00008 	jr	ra
    460c:	27bd0060 	addiu	sp,sp,96
    4610:	0800114c 	j	0x4530
    4614:	00008021 	move	s0,zero
    4618:	08001144 	j	0x4510
    461c:	0000a021 	move	s4,zero
    4620:	08001155 	j	0x4554
    4624:	24c6ca88 	addiu	a2,a2,-13688
    4628:	3c050000 	lui	a1,0x0
    462c:	27bdffe8 	addiu	sp,sp,-24
    4630:	24a53ae0 	addiu	a1,a1,15072
    4634:	afbf0014 	sw	ra,20(sp)
    4638:	0c000758 	jal	0x1d60
    463c:	3c048000 	lui	a0,0x8000
    4640:	0c00007f 	jal	0x1fc
    4644:	24040039 	li	a0,57
    4648:	0c000268 	jal	0x9a0
    464c:	24040001 	li	a0,1
    4650:	3c040001 	lui	a0,0x1
    4654:	8fbf0014 	lw	ra,20(sp)
    4658:	2484cafc 	addiu	a0,a0,-13572
    465c:	08000d18 	j	0x3460
    4660:	27bd0018 	addiu	sp,sp,24
    4664:	3c060001 	lui	a2,0x1
    4668:	27bdff08 	addiu	sp,sp,-248
    466c:	27858008 	addiu	a1,gp,-32760
    4670:	24c6cb04 	addiu	a2,a2,-13564
    4674:	00002021 	move	a0,zero
    4678:	afbf00f4 	sw	ra,244(sp)
    467c:	afbe00f0 	sw	s8,240(sp)
    4680:	afb700ec 	sw	s7,236(sp)
    4684:	afb600e8 	sw	s6,232(sp)
    4688:	afb500e4 	sw	s5,228(sp)
    468c:	afb400e0 	sw	s4,224(sp)
    4690:	afb100d4 	sw	s1,212(sp)
    4694:	afb300dc 	sw	s3,220(sp)
    4698:	afb200d8 	sw	s2,216(sp)
    469c:	afb000d0 	sw	s0,208(sp)
    46a0:	0c001ed2 	jal	0x7b48
    46a4:	3c170001 	lui	s7,0x1
    46a8:	3c160001 	lui	s6,0x1
    46ac:	24040001 	li	a0,1
    46b0:	3c1e0001 	lui	s8,0x1
    46b4:	3c150001 	lui	s5,0x1
    46b8:	0c0024ce 	jal	0x9338
    46bc:	3c140000 	lui	s4,0x0
    46c0:	0c002d75 	jal	0xb5d4
    46c4:	27b10024 	addiu	s1,sp,36
    46c8:	26f7cb70 	addiu	s7,s7,-13456
    46cc:	26d6cb74 	addiu	s6,s6,-13452
    46d0:	27deccb0 	addiu	s8,s8,-13136
    46d4:	26b5cc60 	addiu	s5,s5,-13216
    46d8:	26943cc8 	addiu	s4,s4,15560
    46dc:	3c040001 	lui	a0,0x1
    46e0:	0c000d18 	jal	0x3460
    46e4:	2484d2c8 	addiu	a0,a0,-11576
    46e8:	3c040001 	lui	a0,0x1
    46ec:	0c000d18 	jal	0x3460
    46f0:	2484cb0c 	addiu	a0,a0,-13556
    46f4:	3c040001 	lui	a0,0x1
    46f8:	0c000d18 	jal	0x3460
    46fc:	2484cb14 	addiu	a0,a0,-13548
    4700:	3c040001 	lui	a0,0x1
    4704:	0c000d18 	jal	0x3460
    4708:	2484cb1c 	addiu	a0,a0,-13540
    470c:	3c040001 	lui	a0,0x1
    4710:	0c000d18 	jal	0x3460
    4714:	2484cb28 	addiu	a0,a0,-13528
    4718:	3c040001 	lui	a0,0x1
    471c:	0c000d18 	jal	0x3460
    4720:	2484cb38 	addiu	a0,a0,-13512
    4724:	3c040001 	lui	a0,0x1
    4728:	0c000d18 	jal	0x3460
    472c:	2484cb44 	addiu	a0,a0,-13500
    4730:	3c040001 	lui	a0,0x1
    4734:	0c000d18 	jal	0x3460
    4738:	2484cb50 	addiu	a0,a0,-13488
    473c:	3c040001 	lui	a0,0x1
    4740:	0c000d18 	jal	0x3460
    4744:	2484cb5c 	addiu	a0,a0,-13476
    4748:	3c040001 	lui	a0,0x1
    474c:	0c000d18 	jal	0x3460
    4750:	2484cb64 	addiu	a0,a0,-13468
    4754:	0c000d18 	jal	0x3460
    4758:	02e02021 	move	a0,s7
    475c:	0c000ce2 	jal	0x3388
    4760:	00000000 	nop
    4764:	00402821 	move	a1,v0
    4768:	02c02021 	move	a0,s6
    476c:	0c000d18 	jal	0x3460
    4770:	afa200c8 	sw	v0,200(sp)
    4774:	8fa200c8 	lw	v0,200(sp)
    4778:	00000000 	nop
    477c:	2442ffcf 	addiu	v0,v0,-49
    4780:	304200ff 	andi	v0,v0,0xff
    4784:	2c430037 	sltiu	v1,v0,55
    4788:	14600013 	bnez	v1,0x47d8
    478c:	3c030001 	lui	v1,0x1
    4790:	3c040001 	lui	a0,0x1
    4794:	0c000d18 	jal	0x3460
    4798:	2484ccd8 	addiu	a0,a0,-13096
    479c:	080011eb 	j	0x47ac
    47a0:	2410001e 	li	s0,30
    47a4:	0c000ce2 	jal	0x3388
    47a8:	00000000 	nop
    47ac:	0c000eb0 	jal	0x3ac0
    47b0:	00000000 	nop
    47b4:	1440fffb 	bnez	v0,0x47a4
    47b8:	00000000 	nop
    47bc:	2610ffff 	addiu	s0,s0,-1
    47c0:	0c000268 	jal	0x9a0
    47c4:	24040001 	li	a0,1
    47c8:	1600fff8 	bnez	s0,0x47ac
    47cc:	00000000 	nop
    47d0:	080011d5 	j	0x4754
    47d4:	00000000 	nop
    47d8:	00021080 	sll	v0,v0,0x2
    47dc:	2463ccdc 	addiu	v1,v1,-13092
    47e0:	00621021 	addu	v0,v1,v0
    47e4:	8c420000 	lw	v0,0(v0)
    47e8:	00000000 	nop
    47ec:	00400008 	jr	v0
    47f0:	00000000 	nop
    47f4:	8f828180 	lw	v0,-32384(gp)
    47f8:	3c040001 	lui	a0,0x1
    47fc:	24420001 	addiu	v0,v0,1
    4800:	2484cccc 	addiu	a0,a0,-13108
    4804:	00402821 	move	a1,v0
    4808:	0c000d18 	jal	0x3460
    480c:	af828180 	sw	v0,-32384(gp)
    4810:	080011b8 	j	0x46e0
    4814:	3c040001 	lui	a0,0x1
    4818:	0c00118a 	jal	0x4628
    481c:	00000000 	nop
    4820:	080011b8 	j	0x46e0
    4824:	3c040001 	lui	a0,0x1
    4828:	0c0010b7 	jal	0x42dc
    482c:	00000000 	nop
    4830:	080011b8 	j	0x46e0
    4834:	3c040001 	lui	a0,0x1
    4838:	0c00105c 	jal	0x4170
    483c:	00000000 	nop
    4840:	080011b8 	j	0x46e0
    4844:	3c040001 	lui	a0,0x1
    4848:	3c040001 	lui	a0,0x1
    484c:	0c000d18 	jal	0x3460
    4850:	2484cc90 	addiu	a0,a0,-13168
    4854:	3c040001 	lui	a0,0x1
    4858:	2484cc9c 	addiu	a0,a0,-13156
    485c:	24060010 	li	a2,16
    4860:	0c000508 	jal	0x1420
    4864:	2405000a 	li	a1,10
    4868:	3c050001 	lui	a1,0x1
    486c:	02202021 	move	a0,s1
    4870:	24a5cca8 	addiu	a1,a1,-13144
    4874:	00409021 	move	s2,v0
    4878:	0c00085e 	jal	0x2178
    487c:	24100030 	li	s0,48
    4880:	24130040 	li	s3,64
    4884:	a3b00028 	sb	s0,40(sp)
    4888:	26100001 	addiu	s0,s0,1
    488c:	02402021 	move	a0,s2
    4890:	02202821 	move	a1,s1
    4894:	0c000554 	jal	0x1550
    4898:	321000ff 	andi	s0,s0,0xff
    489c:	1613fff9 	bne	s0,s3,0x4884
    48a0:	00000000 	nop
    48a4:	08001230 	j	0x48c0
    48a8:	24100010 	li	s0,16
    48ac:	02202821 	move	a1,s1
    48b0:	0c000d18 	jal	0x3460
    48b4:	2610ffff 	addiu	s0,s0,-1
    48b8:	12000011 	beqz	s0,0x4900
    48bc:	00000000 	nop
    48c0:	24060010 	li	a2,16
    48c4:	02202021 	move	a0,s1
    48c8:	0c00092b 	jal	0x24ac
    48cc:	00002821 	move	a1,zero
    48d0:	02402021 	move	a0,s2
    48d4:	02202821 	move	a1,s1
    48d8:	0c000595 	jal	0x1654
    48dc:	24060014 	li	a2,20
    48e0:	1040fff2 	beqz	v0,0x48ac
    48e4:	03c02021 	move	a0,s8
    48e8:	3c040001 	lui	a0,0x1
    48ec:	2484ccc0 	addiu	a0,a0,-13120
    48f0:	0c000d18 	jal	0x3460
    48f4:	2610ffff 	addiu	s0,s0,-1
    48f8:	1600fff2 	bnez	s0,0x48c4
    48fc:	24060010 	li	a2,16
    4900:	0c000548 	jal	0x1520
    4904:	02402021 	move	a0,s2
    4908:	08001357 	j	0x4d5c
    490c:	3c020001 	lui	v0,0x1
    4910:	0c000ff7 	jal	0x3fdc
    4914:	00000000 	nop
    4918:	080011b8 	j	0x46e0
    491c:	3c040001 	lui	a0,0x1
    4920:	0c000f68 	jal	0x3da0
    4924:	00000000 	nop
    4928:	080011b8 	j	0x46e0
    492c:	3c040001 	lui	a0,0x1
    4930:	3c030001 	lui	v1,0x1
    4934:	0c000d18 	jal	0x3460
    4938:	2464cc54 	addiu	a0,v1,-13228
    493c:	00008021 	move	s0,zero
    4940:	3413abcd 	li	s3,0xabcd
    4944:	24120020 	li	s2,32
    4948:	02003021 	move	a2,s0
    494c:	26070032 	addiu	a3,s0,50
    4950:	02802821 	move	a1,s4
    4954:	02a02021 	move	a0,s5
    4958:	0c000416 	jal	0x1058
    495c:	afa00010 	sw	zero,16(sp)
    4960:	00402021 	move	a0,v0
    4964:	02133021 	addu	a2,s0,s3
    4968:	00002821 	move	a1,zero
    496c:	0c00016d 	jal	0x5b4
    4970:	26100001 	addiu	s0,s0,1
    4974:	1612fff5 	bne	s0,s2,0x494c
    4978:	02003021 	move	a2,s0
    497c:	0c000167 	jal	0x59c
    4980:	00000000 	nop
    4984:	00402021 	move	a0,v0
    4988:	0c00017f 	jal	0x5fc
    498c:	00408021 	move	s0,v0
    4990:	00409021 	move	s2,v0
    4994:	00402821 	move	a1,v0
    4998:	3c020001 	lui	v0,0x1
    499c:	0c000d18 	jal	0x3460
    49a0:	2444cc6c 	addiu	a0,v0,-13204
    49a4:	02002021 	move	a0,s0
    49a8:	0c000182 	jal	0x608
    49ac:	240500c8 	li	a1,200
    49b0:	0c00017f 	jal	0x5fc
    49b4:	02002021 	move	a0,s0
    49b8:	3c030001 	lui	v1,0x1
    49bc:	2464cc6c 	addiu	a0,v1,-13204
    49c0:	0c000d18 	jal	0x3460
    49c4:	00402821 	move	a1,v0
    49c8:	02002021 	move	a0,s0
    49cc:	0c000182 	jal	0x608
    49d0:	02402821 	move	a1,s2
    49d4:	0c00016a 	jal	0x5a8
    49d8:	00000000 	nop
    49dc:	00402821 	move	a1,v0
    49e0:	3c020001 	lui	v0,0x1
    49e4:	0c000d18 	jal	0x3460
    49e8:	2444cc7c 	addiu	a0,v0,-13188
    49ec:	0c000268 	jal	0x9a0
    49f0:	24040064 	li	a0,100
    49f4:	0c00016a 	jal	0x5a8
    49f8:	00000000 	nop
    49fc:	3c030001 	lui	v1,0x1
    4a00:	00402821 	move	a1,v0
    4a04:	0c000d18 	jal	0x3460
    4a08:	2464cc7c 	addiu	a0,v1,-13188
    4a0c:	080011b8 	j	0x46e0
    4a10:	3c040001 	lui	a0,0x1
    4a14:	0c000ebf 	jal	0x3afc
    4a18:	00000000 	nop
    4a1c:	080011b8 	j	0x46e0
    4a20:	3c040001 	lui	a0,0x1
    4a24:	3c020001 	lui	v0,0x1
    4a28:	0c000d18 	jal	0x3460
    4a2c:	2444cb78 	addiu	a0,v0,-13448
    4a30:	3c030001 	lui	v1,0x1
    4a34:	2465cb84 	addiu	a1,v1,-13436
    4a38:	0c00085e 	jal	0x2178
    4a3c:	02202021 	move	a0,s1
    4a40:	27a40074 	addiu	a0,sp,116
    4a44:	00002821 	move	a1,zero
    4a48:	0c00092b 	jal	0x24ac
    4a4c:	24060050 	li	a2,80
    4a50:	3c020001 	lui	v0,0x1
    4a54:	24060005 	li	a2,5
    4a58:	27a40074 	addiu	a0,sp,116
    4a5c:	0c000867 	jal	0x219c
    4a60:	2445cb8c 	addiu	a1,v0,-13428
    4a64:	02202021 	move	a0,s1
    4a68:	0c000877 	jal	0x21dc
    4a6c:	27a50074 	addiu	a1,sp,116
    4a70:	3c030001 	lui	v1,0x1
    4a74:	2465cb98 	addiu	a1,v1,-13416
    4a78:	02202021 	move	a0,s1
    4a7c:	0c00088b 	jal	0x222c
    4a80:	24060002 	li	a2,2
    4a84:	3c020001 	lui	v0,0x1
    4a88:	02202821 	move	a1,s1
    4a8c:	0c000d18 	jal	0x3460
    4a90:	2444cba0 	addiu	a0,v0,-13408
    4a94:	3c030001 	lui	v1,0x1
    4a98:	02202021 	move	a0,s1
    4a9c:	0c0008a8 	jal	0x22a0
    4aa0:	2465cba4 	addiu	a1,v1,-13404
    4aa4:	144000c5 	bnez	v0,0x4dbc
    4aa8:	00000000 	nop
    4aac:	3c020001 	lui	v0,0x1
    4ab0:	02202021 	move	a0,s1
    4ab4:	0c0008a8 	jal	0x22a0
    4ab8:	2445cbb4 	addiu	a1,v0,-13388
    4abc:	184000dd 	blez	v0,0x4e34
    4ac0:	00000000 	nop
    4ac4:	3c030001 	lui	v1,0x1
    4ac8:	02202021 	move	a0,s1
    4acc:	0c0008a8 	jal	0x22a0
    4ad0:	2465cbc4 	addiu	a1,v1,-13372
    4ad4:	0440000a 	bltz	v0,0x4b00
    4ad8:	3c020001 	lui	v0,0x1
    4adc:	0c000842 	jal	0x2108
    4ae0:	00000000 	nop
    4ae4:	3c020001 	lui	v0,0x1
    4ae8:	3c030001 	lui	v1,0x1
    4aec:	2444c884 	addiu	a0,v0,-14204
    4af0:	2465c9cc 	addiu	a1,v1,-13876
    4af4:	0c000dc6 	jal	0x3718
    4af8:	24060039 	li	a2,57
    4afc:	3c020001 	lui	v0,0x1
    4b00:	02202021 	move	a0,s1
    4b04:	2445cbd4 	addiu	a1,v0,-13356
    4b08:	0c0008b2 	jal	0x22c8
    4b0c:	24060004 	li	a2,4
    4b10:	144000b4 	bnez	v0,0x4de4
    4b14:	00000000 	nop
    4b18:	3c030001 	lui	v1,0x1
    4b1c:	2465cbdc 	addiu	a1,v1,-13348
    4b20:	0c0008c1 	jal	0x2304
    4b24:	02202021 	move	a0,s1
    4b28:	80430000 	lb	v1,0(v0)
    4b2c:	2402006f 	li	v0,111
    4b30:	10620009 	beq	v1,v0,0x4b58
    4b34:	00000000 	nop
    4b38:	0c000842 	jal	0x2108
    4b3c:	00000000 	nop
    4b40:	3c020001 	lui	v0,0x1
    4b44:	3c030001 	lui	v1,0x1
    4b48:	2444c884 	addiu	a0,v0,-14204
    4b4c:	2465c9cc 	addiu	a1,v1,-13876
    4b50:	0c000dc6 	jal	0x3718
    4b54:	2406003d 	li	a2,61
    4b58:	0c0008e0 	jal	0x2380
    4b5c:	02202021 	move	a0,s1
    4b60:	2403000d 	li	v1,13
    4b64:	1043000b 	beq	v0,v1,0x4b94
    4b68:	00000000 	nop
    4b6c:	0c000842 	jal	0x2108
    4b70:	afa200c8 	sw	v0,200(sp)
    4b74:	3c030001 	lui	v1,0x1
    4b78:	2464c884 	addiu	a0,v1,-14204
    4b7c:	3c030001 	lui	v1,0x1
    4b80:	2465c9cc 	addiu	a1,v1,-13876
    4b84:	0c000dc6 	jal	0x3718
    4b88:	2406003f 	li	a2,63
    4b8c:	8fa200c8 	lw	v0,200(sp)
    4b90:	00000000 	nop
    4b94:	24460001 	addiu	a2,v0,1
    4b98:	27a40074 	addiu	a0,sp,116
    4b9c:	0c0008e8 	jal	0x23a0
    4ba0:	02202821 	move	a1,s1
    4ba4:	02202021 	move	a0,s1
    4ba8:	27a50074 	addiu	a1,sp,116
    4bac:	0c00091d 	jal	0x2474
    4bb0:	24060008 	li	a2,8
    4bb4:	14400077 	bnez	v0,0x4d94
    4bb8:	00000000 	nop
    4bbc:	2402007a 	li	v0,122
    4bc0:	02202021 	move	a0,s1
    4bc4:	27a50074 	addiu	a1,sp,116
    4bc8:	24060008 	li	a2,8
    4bcc:	0c00091d 	jal	0x2474
    4bd0:	a3a20079 	sb	v0,121(sp)
    4bd4:	10400065 	beqz	v0,0x4d6c
    4bd8:	00000000 	nop
    4bdc:	00002821 	move	a1,zero
    4be0:	24060005 	li	a2,5
    4be4:	0c00092b 	jal	0x24ac
    4be8:	27a40074 	addiu	a0,sp,116
    4bec:	24050061 	li	a1,97
    4bf0:	24060003 	li	a2,3
    4bf4:	0c00092b 	jal	0x24ac
    4bf8:	27a40074 	addiu	a0,sp,116
    4bfc:	0c000936 	jal	0x24d8
    4c00:	2404fffb 	li	a0,-5
    4c04:	240404d2 	li	a0,1234
    4c08:	02202821 	move	a1,s1
    4c0c:	0c00098b 	jal	0x262c
    4c10:	2406000a 	li	a2,10
    4c14:	00002021 	move	a0,zero
    4c18:	02202821 	move	a1,s1
    4c1c:	0c00098b 	jal	0x262c
    4c20:	2406000a 	li	a2,10
    4c24:	2404fb2e 	li	a0,-1234
    4c28:	02202821 	move	a1,s1
    4c2c:	0c00098b 	jal	0x262c
    4c30:	2406000a 	li	a2,10
    4c34:	3404abcd 	li	a0,0xabcd
    4c38:	02202821 	move	a1,s1
    4c3c:	0c00098b 	jal	0x262c
    4c40:	24060010 	li	a2,16
    4c44:	240412ab 	li	a0,4779
    4c48:	02202821 	move	a1,s1
    4c4c:	0c00098b 	jal	0x262c
    4c50:	24060010 	li	a2,16
    4c54:	3c020001 	lui	v0,0x1
    4c58:	3c030001 	lui	v1,0x1
    4c5c:	2463cbfc 	addiu	v1,v1,-13316
    4c60:	24060043 	li	a2,67
    4c64:	240704d2 	li	a3,1234
    4c68:	3410abcd 	li	s0,0xabcd
    4c6c:	02202021 	move	a0,s1
    4c70:	2445cbe0 	addiu	a1,v0,-13344
    4c74:	afa30014 	sw	v1,20(sp)
    4c78:	0c0009c7 	jal	0x271c
    4c7c:	afb00010 	sw	s0,16(sp)
    4c80:	3c020001 	lui	v0,0x1
    4c84:	2444cba0 	addiu	a0,v0,-13408
    4c88:	0c000d18 	jal	0x3460
    4c8c:	02202821 	move	a1,s1
    4c90:	3c030001 	lui	v1,0x1
    4c94:	3c020001 	lui	v0,0x1
    4c98:	24060043 	li	a2,67
    4c9c:	240704d2 	li	a3,1234
    4ca0:	2465cc04 	addiu	a1,v1,-13308
    4ca4:	02202021 	move	a0,s1
    4ca8:	2442cbfc 	addiu	v0,v0,-13316
    4cac:	afb00010 	sw	s0,16(sp)
    4cb0:	0c0009c7 	jal	0x271c
    4cb4:	afa20014 	sw	v0,20(sp)
    4cb8:	3c030001 	lui	v1,0x1
    4cbc:	2464cba0 	addiu	a0,v1,-13408
    4cc0:	0c000d18 	jal	0x3460
    4cc4:	02202821 	move	a1,s1
    4cc8:	3c030001 	lui	v1,0x1
    4ccc:	3c020001 	lui	v0,0x1
    4cd0:	2444cc24 	addiu	a0,v0,-13276
    4cd4:	2465cc40 	addiu	a1,v1,-13248
    4cd8:	27a20020 	addiu	v0,sp,32
    4cdc:	27a60018 	addiu	a2,sp,24
    4ce0:	27a7001c 	addiu	a3,sp,28
    4ce4:	afa20010 	sw	v0,16(sp)
    4ce8:	0c000ac9 	jal	0x2b24
    4cec:	afb10014 	sw	s1,20(sp)
    4cf0:	8fa30018 	lw	v1,24(sp)
    4cf4:	240204d2 	li	v0,1234
    4cf8:	10620044 	beq	v1,v0,0x4e0c
    4cfc:	2402fb2e 	li	v0,-1234
    4d00:	0c000842 	jal	0x2108
    4d04:	00000000 	nop
    4d08:	3c030001 	lui	v1,0x1
    4d0c:	3c020001 	lui	v0,0x1
    4d10:	2464c884 	addiu	a0,v1,-14204
    4d14:	2445c9cc 	addiu	a1,v0,-13876
    4d18:	0c000dc6 	jal	0x3718
    4d1c:	24060053 	li	a2,83
    4d20:	3c030001 	lui	v1,0x1
    4d24:	02202021 	move	a0,s1
    4d28:	0c0008a8 	jal	0x22a0
    4d2c:	2465cc4c 	addiu	a1,v1,-13236
    4d30:	1040000a 	beqz	v0,0x4d5c
    4d34:	3c020001 	lui	v0,0x1
    4d38:	0c000842 	jal	0x2108
    4d3c:	00000000 	nop
    4d40:	3c020001 	lui	v0,0x1
    4d44:	3c030001 	lui	v1,0x1
    4d48:	2444c884 	addiu	a0,v0,-14204
    4d4c:	2465c9cc 	addiu	a1,v1,-13876
    4d50:	0c000dc6 	jal	0x3718
    4d54:	24060054 	li	a2,84
    4d58:	3c020001 	lui	v0,0x1
    4d5c:	0c000d18 	jal	0x3460
    4d60:	2444c974 	addiu	a0,v0,-13964
    4d64:	080011b8 	j	0x46e0
    4d68:	3c040001 	lui	a0,0x1
    4d6c:	0c000842 	jal	0x2108
    4d70:	00000000 	nop
    4d74:	3c020001 	lui	v0,0x1
    4d78:	3c030001 	lui	v1,0x1
    4d7c:	2444c884 	addiu	a0,v0,-14204
    4d80:	2465c9cc 	addiu	a1,v1,-13876
    4d84:	0c000dc6 	jal	0x3718
    4d88:	24060045 	li	a2,69
    4d8c:	080012f8 	j	0x4be0
    4d90:	00002821 	move	a1,zero
    4d94:	0c000842 	jal	0x2108
    4d98:	00000000 	nop
    4d9c:	3c020001 	lui	v0,0x1
    4da0:	3c030001 	lui	v1,0x1
    4da4:	2444c884 	addiu	a0,v0,-14204
    4da8:	2465c9cc 	addiu	a1,v1,-13876
    4dac:	0c000dc6 	jal	0x3718
    4db0:	24060042 	li	a2,66
    4db4:	080012f0 	j	0x4bc0
    4db8:	2402007a 	li	v0,122
    4dbc:	0c000842 	jal	0x2108
    4dc0:	00000000 	nop
    4dc4:	3c020001 	lui	v0,0x1
    4dc8:	3c030001 	lui	v1,0x1
    4dcc:	2444c884 	addiu	a0,v0,-14204
    4dd0:	2465c9cc 	addiu	a1,v1,-13876
    4dd4:	0c000dc6 	jal	0x3718
    4dd8:	24060035 	li	a2,53
    4ddc:	080012ac 	j	0x4ab0
    4de0:	3c020001 	lui	v0,0x1
    4de4:	0c000842 	jal	0x2108
    4de8:	00000000 	nop
    4dec:	3c030001 	lui	v1,0x1
    4df0:	3c020001 	lui	v0,0x1
    4df4:	2464c884 	addiu	a0,v1,-14204
    4df8:	2445c9cc 	addiu	a1,v0,-13876
    4dfc:	0c000dc6 	jal	0x3718
    4e00:	2406003b 	li	a2,59
    4e04:	080012c7 	j	0x4b1c
    4e08:	3c030001 	lui	v1,0x1
    4e0c:	8fa3001c 	lw	v1,28(sp)
    4e10:	00000000 	nop
    4e14:	1462ffba 	bne	v1,v0,0x4d00
    4e18:	00000000 	nop
    4e1c:	8fa20020 	lw	v0,32(sp)
    4e20:	00000000 	nop
    4e24:	1450ffb6 	bne	v0,s0,0x4d00
    4e28:	3c030001 	lui	v1,0x1
    4e2c:	0800134a 	j	0x4d28
    4e30:	02202021 	move	a0,s1
    4e34:	0c000842 	jal	0x2108
    4e38:	00000000 	nop
    4e3c:	3c030001 	lui	v1,0x1
    4e40:	3c020001 	lui	v0,0x1
    4e44:	2464c884 	addiu	a0,v1,-14204
    4e48:	2445c9cc 	addiu	a1,v0,-13876
    4e4c:	0c000dc6 	jal	0x3718
    4e50:	24060037 	li	a2,55
    4e54:	080012b2 	j	0x4ac8
    4e58:	3c030001 	lui	v1,0x1
    4e5c:	3c028000 	lui	v0,0x8000
    4e60:	03e00008 	jr	ra
    4e64:	00821026 	xor	v0,a0,v0
    4e68:	000435c2 	srl	a2,a0,0x17
    4e6c:	000515c2 	srl	v0,a1,0x17
    4e70:	3c07007f 	lui	a3,0x7f
    4e74:	34e7ffff 	ori	a3,a3,0xffff
    4e78:	30c600ff 	andi	a2,a2,0xff
    4e7c:	304200ff 	andi	v0,v0,0xff
    4e80:	00871824 	and	v1,a0,a3
    4e84:	3c080080 	lui	t0,0x80
    4e88:	00a73824 	and	a3,a1,a3
    4e8c:	0046482a 	slt	t1,v0,a2
    4e90:	000427c2 	srl	a0,a0,0x1f
    4e94:	00681825 	or	v1,v1,t0
    4e98:	00052fc2 	srl	a1,a1,0x1f
    4e9c:	1120002e 	beqz	t1,0x4f58
    4ea0:	00e83825 	or	a3,a3,t0
    4ea4:	00c21023 	subu	v0,a2,v0
    4ea8:	2848001e 	slti	t0,v0,30
    4eac:	11000034 	beqz	t0,0x4f80
    4eb0:	00000000 	nop
    4eb4:	00473807 	srav	a3,a3,v0
    4eb8:	10800002 	beqz	a0,0x4ec4
    4ebc:	00000000 	nop
    4ec0:	00031823 	negu	v1,v1
    4ec4:	10a00002 	beqz	a1,0x4ed0
    4ec8:	00000000 	nop
    4ecc:	00073823 	negu	a3,a3
    4ed0:	00e33821 	addu	a3,a3,v1
    4ed4:	04e0002c 	bltz	a3,0x4f88
    4ed8:	00e01821 	move	v1,a3
    4edc:	1060002d 	beqz	v1,0x4f94
    4ee0:	3c04ff00 	lui	a0,0xff00
    4ee4:	00642024 	and	a0,v1,a0
    4ee8:	10800007 	beqz	a0,0x4f08
    4eec:	00601021 	move	v0,v1
    4ef0:	3c05ff00 	lui	a1,0xff00
    4ef4:	00031843 	sra	v1,v1,0x1
    4ef8:	00652024 	and	a0,v1,a1
    4efc:	24c60001 	addiu	a2,a2,1
    4f00:	1480fffc 	bnez	a0,0x4ef4
    4f04:	00601021 	move	v0,v1
    4f08:	3c04ff80 	lui	a0,0xff80
    4f0c:	00442024 	and	a0,v0,a0
    4f10:	14800007 	bnez	a0,0x4f30
    4f14:	00000000 	nop
    4f18:	3c05ff80 	lui	a1,0xff80
    4f1c:	00031840 	sll	v1,v1,0x1
    4f20:	00652024 	and	a0,v1,a1
    4f24:	24c6ffff 	addiu	a2,a2,-1
    4f28:	1080fffc 	beqz	a0,0x4f1c
    4f2c:	00601021 	move	v0,v1
    4f30:	18c0001a 	blez	a2,0x4f9c
    4f34:	3c03007f 	lui	v1,0x7f
    4f38:	00073fc2 	srl	a3,a3,0x1f
    4f3c:	3463ffff 	ori	v1,v1,0xffff
    4f40:	00431024 	and	v0,v0,v1
    4f44:	00073fc0 	sll	a3,a3,0x1f
    4f48:	00471025 	or	v0,v0,a3
    4f4c:	000635c0 	sll	a2,a2,0x17
    4f50:	03e00008 	jr	ra
    4f54:	00461025 	or	v0,v0,a2
    4f58:	00463023 	subu	a2,v0,a2
    4f5c:	28c8001e 	slti	t0,a2,30
    4f60:	11000004 	beqz	t0,0x4f74
    4f64:	00000000 	nop
    4f68:	00c31807 	srav	v1,v1,a2
    4f6c:	080013ae 	j	0x4eb8
    4f70:	00403021 	move	a2,v0
    4f74:	00403021 	move	a2,v0
    4f78:	080013ae 	j	0x4eb8
    4f7c:	00001821 	move	v1,zero
    4f80:	080013ae 	j	0x4eb8
    4f84:	00003821 	move	a3,zero
    4f88:	00071823 	negu	v1,a3
    4f8c:	1460ffd5 	bnez	v1,0x4ee4
    4f90:	3c04ff00 	lui	a0,0xff00
    4f94:	03e00008 	jr	ra
    4f98:	00001021 	move	v0,zero
    4f9c:	03e00008 	jr	ra
    4fa0:	00001021 	move	v0,zero
    4fa4:	3c028000 	lui	v0,0x8000
    4fa8:	0800139a 	j	0x4e68
    4fac:	00a22826 	xor	a1,a1,v0
    4fb0:	3c02007f 	lui	v0,0x7f
    4fb4:	27bdffd8 	addiu	sp,sp,-40
    4fb8:	3442ffff 	ori	v0,v0,0xffff
    4fbc:	3c030080 	lui	v1,0x80
    4fc0:	afb10020 	sw	s1,32(sp)
    4fc4:	00808821 	move	s1,a0
    4fc8:	00822024 	and	a0,a0,v0
    4fcc:	00a21024 	and	v0,a1,v0
    4fd0:	afb0001c 	sw	s0,28(sp)
    4fd4:	00832025 	or	a0,a0,v1
    4fd8:	00a08021 	move	s0,a1
    4fdc:	27a60010 	addiu	a2,sp,16
    4fe0:	afbf0024 	sw	ra,36(sp)
    4fe4:	0c00007a 	jal	0x1e8
    4fe8:	00432825 	or	a1,v0,v1
    4fec:	8fa30010 	lw	v1,16(sp)
    4ff0:	000215c2 	srl	v0,v0,0x17
    4ff4:	00031a40 	sll	v1,v1,0x9
    4ff8:	00431825 	or	v1,v0,v1
    4ffc:	1060001d 	beqz	v1,0x5074
    5000:	001125c2 	srl	a0,s1,0x17
    5004:	308400ff 	andi	a0,a0,0xff
    5008:	001015c2 	srl	v0,s0,0x17
    500c:	3c05ff00 	lui	a1,0xff00
    5010:	2484ff81 	addiu	a0,a0,-127
    5014:	304200ff 	andi	v0,v0,0xff
    5018:	00652824 	and	a1,v1,a1
    501c:	10a00006 	beqz	a1,0x5038
    5020:	00822021 	addu	a0,a0,v0
    5024:	3c05ff00 	lui	a1,0xff00
    5028:	00031842 	srl	v1,v1,0x1
    502c:	00651024 	and	v0,v1,a1
    5030:	1440fffd 	bnez	v0,0x5028
    5034:	24840001 	addiu	a0,a0,1
    5038:	18800014 	blez	a0,0x508c
    503c:	02308026 	xor	s0,s1,s0
    5040:	3c02007f 	lui	v0,0x7f
    5044:	3442ffff 	ori	v0,v0,0xffff
    5048:	001087c2 	srl	s0,s0,0x1f
    504c:	001087c0 	sll	s0,s0,0x1f
    5050:	00621824 	and	v1,v1,v0
    5054:	8fbf0024 	lw	ra,36(sp)
    5058:	00701025 	or	v0,v1,s0
    505c:	000425c0 	sll	a0,a0,0x17
    5060:	00441025 	or	v0,v0,a0
    5064:	8fb10020 	lw	s1,32(sp)
    5068:	8fb0001c 	lw	s0,28(sp)
    506c:	03e00008 	jr	ra
    5070:	27bd0028 	addiu	sp,sp,40
    5074:	8fbf0024 	lw	ra,36(sp)
    5078:	00001021 	move	v0,zero
    507c:	8fb10020 	lw	s1,32(sp)
    5080:	8fb0001c 	lw	s0,28(sp)
    5084:	03e00008 	jr	ra
    5088:	27bd0028 	addiu	sp,sp,40
    508c:	8fbf0024 	lw	ra,36(sp)
    5090:	00001021 	move	v0,zero
    5094:	8fb10020 	lw	s1,32(sp)
    5098:	8fb0001c 	lw	s0,28(sp)
    509c:	03e00008 	jr	ra
    50a0:	27bd0028 	addiu	sp,sp,40
    50a4:	3c02007f 	lui	v0,0x7f
    50a8:	27bdffd0 	addiu	sp,sp,-48
    50ac:	3442ffff 	ori	v0,v0,0xffff
    50b0:	3c030080 	lui	v1,0x80
    50b4:	afb40028 	sw	s4,40(sp)
    50b8:	0082a024 	and	s4,a0,v0
    50bc:	00a21024 	and	v0,a1,v0
    50c0:	0283a025 	or	s4,s4,v1
    50c4:	afb1001c 	sw	s1,28(sp)
    50c8:	00a08821 	move	s1,a1
    50cc:	00432825 	or	a1,v0,v1
    50d0:	afb30024 	sw	s3,36(sp)
    50d4:	afb00018 	sw	s0,24(sp)
    50d8:	00149900 	sll	s3,s4,0x4
    50dc:	00058202 	srl	s0,a1,0x8
    50e0:	16000002 	bnez	s0,0x50ec
    50e4:	0270001b 	divu	zero,s3,s0
    50e8:	0007000d 	break	0x7
    50ec:	afb20020 	sw	s2,32(sp)
    50f0:	27a60010 	addiu	a2,sp,16
    50f4:	00809021 	move	s2,a0
    50f8:	afbf002c 	sw	ra,44(sp)
    50fc:	00009812 	mflo	s3
    5100:	00139b00 	sll	s3,s3,0xc
    5104:	0c00007a 	jal	0x1e8
    5108:	02602021 	move	a0,s3
    510c:	8fa30010 	lw	v1,16(sp)
    5110:	00021602 	srl	v0,v0,0x18
    5114:	00031a00 	sll	v1,v1,0x8
    5118:	00431025 	or	v0,v0,v1
    511c:	0282a023 	subu	s4,s4,v0
    5120:	3403fffe 	li	v1,0xfffe
    5124:	3c020001 	lui	v0,0x1
    5128:	02831821 	addu	v1,s4,v1
    512c:	3442fffd 	ori	v0,v0,0xfffd
    5130:	0062102b 	sltu	v0,v1,v0
    5134:	10400033 	beqz	v0,0x5204
    5138:	00000000 	nop
    513c:	0014a400 	sll	s4,s4,0x10
    5140:	16000002 	bnez	s0,0x514c
    5144:	0290001a 	div	zero,s4,s0
    5148:	0007000d 	break	0x7
    514c:	0000a012 	mflo	s4
    5150:	02939821 	addu	s3,s4,s3
    5154:	12600022 	beqz	s3,0x51e0
    5158:	00121dc2 	srl	v1,s2,0x17
    515c:	306300ff 	andi	v1,v1,0xff
    5160:	001115c2 	srl	v0,s1,0x17
    5164:	3c04ff00 	lui	a0,0xff00
    5168:	2463007e 	addiu	v1,v1,126
    516c:	304200ff 	andi	v0,v0,0xff
    5170:	02642024 	and	a0,s3,a0
    5174:	10800006 	beqz	a0,0x5190
    5178:	00621823 	subu	v1,v1,v0
    517c:	3c04ff00 	lui	a0,0xff00
    5180:	00139842 	srl	s3,s3,0x1
    5184:	02641024 	and	v0,s3,a0
    5188:	1440fffd 	bnez	v0,0x5180
    518c:	24630001 	addiu	v1,v1,1
    5190:	04600026 	bltz	v1,0x522c
    5194:	00000000 	nop
    5198:	10600024 	beqz	v1,0x522c
    519c:	02518826 	xor	s1,s2,s1
    51a0:	3c02007f 	lui	v0,0x7f
    51a4:	3442ffff 	ori	v0,v0,0xffff
    51a8:	00118fc2 	srl	s1,s1,0x1f
    51ac:	02629824 	and	s3,s3,v0
    51b0:	00118fc0 	sll	s1,s1,0x1f
    51b4:	8fbf002c 	lw	ra,44(sp)
    51b8:	02711025 	or	v0,s3,s1
    51bc:	00031dc0 	sll	v1,v1,0x17
    51c0:	00431025 	or	v0,v0,v1
    51c4:	8fb40028 	lw	s4,40(sp)
    51c8:	8fb30024 	lw	s3,36(sp)
    51cc:	8fb20020 	lw	s2,32(sp)
    51d0:	8fb1001c 	lw	s1,28(sp)
    51d4:	8fb00018 	lw	s0,24(sp)
    51d8:	03e00008 	jr	ra
    51dc:	27bd0030 	addiu	sp,sp,48
    51e0:	8fbf002c 	lw	ra,44(sp)
    51e4:	00001021 	move	v0,zero
    51e8:	8fb40028 	lw	s4,40(sp)
    51ec:	8fb30024 	lw	s3,36(sp)
    51f0:	8fb20020 	lw	s2,32(sp)
    51f4:	8fb1001c 	lw	s1,28(sp)
    51f8:	8fb00018 	lw	s0,24(sp)
    51fc:	03e00008 	jr	ra
    5200:	27bd0030 	addiu	sp,sp,48
    5204:	0c000842 	jal	0x2108
    5208:	0014a400 	sll	s4,s4,0x10
    520c:	3c040001 	lui	a0,0x1
    5210:	3c050001 	lui	a1,0x1
    5214:	2484c884 	addiu	a0,a0,-14204
    5218:	24a5cdb8 	addiu	a1,a1,-12872
    521c:	0c000dc6 	jal	0x3718
    5220:	240600c2 	li	a2,194
    5224:	08001450 	j	0x5140
    5228:	00000000 	nop
    522c:	8fbf002c 	lw	ra,44(sp)
    5230:	00001021 	move	v0,zero
    5234:	8fb40028 	lw	s4,40(sp)
    5238:	8fb30024 	lw	s3,36(sp)
    523c:	8fb20020 	lw	s2,32(sp)
    5240:	8fb1001c 	lw	s1,28(sp)
    5244:	8fb00018 	lw	s0,24(sp)
    5248:	03e00008 	jr	ra
    524c:	27bd0030 	addiu	sp,sp,48
    5250:	3c02007f 	lui	v0,0x7f
    5254:	3442ffff 	ori	v0,v0,0xffff
    5258:	00041dc2 	srl	v1,a0,0x17
    525c:	00821024 	and	v0,a0,v0
    5260:	3c050080 	lui	a1,0x80
    5264:	00451025 	or	v0,v0,a1
    5268:	306300ff 	andi	v1,v1,0xff
    526c:	2405009d 	li	a1,157
    5270:	00a31823 	subu	v1,a1,v1
    5274:	000427c2 	srl	a0,a0,0x1f
    5278:	18600005 	blez	v1,0x5290
    527c:	000211c0 	sll	v0,v0,0x7
    5280:	2865001f 	slti	a1,v1,31
    5284:	10a00007 	beqz	a1,0x52a4
    5288:	00000000 	nop
    528c:	00621007 	srav	v0,v0,v1
    5290:	10800002 	beqz	a0,0x529c
    5294:	00000000 	nop
    5298:	00021023 	negu	v0,v0
    529c:	03e00008 	jr	ra
    52a0:	00000000 	nop
    52a4:	080014a4 	j	0x5290
    52a8:	00001021 	move	v0,zero
    52ac:	04800021 	bltz	a0,0x5334
    52b0:	00801821 	move	v1,a0
    52b4:	10600022 	beqz	v1,0x5340
    52b8:	00000000 	nop
    52bc:	3c02ff00 	lui	v0,0xff00
    52c0:	00621024 	and	v0,v1,v0
    52c4:	10400020 	beqz	v0,0x5348
    52c8:	00603021 	move	a2,v1
    52cc:	24050096 	li	a1,150
    52d0:	3c08ff00 	lui	t0,0xff00
    52d4:	00031843 	sra	v1,v1,0x1
    52d8:	00683824 	and	a3,v1,t0
    52dc:	24a50001 	addiu	a1,a1,1
    52e0:	14e0fffc 	bnez	a3,0x52d4
    52e4:	00603021 	move	a2,v1
    52e8:	3c02ff80 	lui	v0,0xff80
    52ec:	00c21024 	and	v0,a2,v0
    52f0:	14400008 	bnez	v0,0x5314
    52f4:	3c02007f 	lui	v0,0x7f
    52f8:	3c08ff80 	lui	t0,0xff80
    52fc:	00031840 	sll	v1,v1,0x1
    5300:	00683824 	and	a3,v1,t0
    5304:	24a5ffff 	addiu	a1,a1,-1
    5308:	10e0fffc 	beqz	a3,0x52fc
    530c:	00603021 	move	a2,v1
    5310:	3c02007f 	lui	v0,0x7f
    5314:	3442ffff 	ori	v0,v0,0xffff
    5318:	00c23024 	and	a2,a2,v0
    531c:	00052dc0 	sll	a1,a1,0x17
    5320:	000427c2 	srl	a0,a0,0x1f
    5324:	00a62825 	or	a1,a1,a2
    5328:	000427c0 	sll	a0,a0,0x1f
    532c:	03e00008 	jr	ra
    5330:	00a41025 	or	v0,a1,a0
    5334:	00041823 	negu	v1,a0
    5338:	1460ffe0 	bnez	v1,0x52bc
    533c:	00000000 	nop
    5340:	03e00008 	jr	ra
    5344:	00001021 	move	v0,zero
    5348:	080014ba 	j	0x52e8
    534c:	24050096 	li	a1,150
    5350:	10850020 	beq	a0,a1,0x53d4
    5354:	00001021 	move	v0,zero
    5358:	000417c2 	srl	v0,a0,0x1f
    535c:	00051fc2 	srl	v1,a1,0x1f
    5360:	0062302b 	sltu	a2,v1,v0
    5364:	14c0001d 	bnez	a2,0x53dc
    5368:	0043182b 	sltu	v1,v0,v1
    536c:	14600018 	bnez	v1,0x53d0
    5370:	00000000 	nop
    5374:	10400002 	beqz	v0,0x5380
    5378:	24020001 	li	v0,1
    537c:	2402ffff 	li	v0,-1
    5380:	000435c2 	srl	a2,a0,0x17
    5384:	00051dc2 	srl	v1,a1,0x17
    5388:	30c600ff 	andi	a2,a2,0xff
    538c:	306300ff 	andi	v1,v1,0xff
    5390:	0066382b 	sltu	a3,v1,a2
    5394:	14e0000f 	bnez	a3,0x53d4
    5398:	00c3182b 	sltu	v1,a2,v1
    539c:	1460000a 	bnez	v1,0x53c8
    53a0:	3c06007f 	lui	a2,0x7f
    53a4:	34c6ffff 	ori	a2,a2,0xffff
    53a8:	3c030080 	lui	v1,0x80
    53ac:	00862024 	and	a0,a0,a2
    53b0:	00a62824 	and	a1,a1,a2
    53b4:	00832025 	or	a0,a0,v1
    53b8:	00a31825 	or	v1,a1,v1
    53bc:	0064182b 	sltu	v1,v1,a0
    53c0:	14600004 	bnez	v1,0x53d4
    53c4:	00000000 	nop
    53c8:	03e00008 	jr	ra
    53cc:	00021023 	negu	v0,v0
    53d0:	24020001 	li	v0,1
    53d4:	03e00008 	jr	ra
    53d8:	00000000 	nop
    53dc:	03e00008 	jr	ra
    53e0:	2402ffff 	li	v0,-1
    53e4:	080014d4 	j	0x5350
    53e8:	00000000 	nop
    53ec:	080014d4 	j	0x5350
    53f0:	00000000 	nop
    53f4:	080014d4 	j	0x5350
    53f8:	00000000 	nop
    53fc:	080014d4 	j	0x5350
    5400:	00000000 	nop
    5404:	00851026 	xor	v0,a0,a1
    5408:	03e00008 	jr	ra
    540c:	0002102b 	sltu	v0,zero,v0
    5410:	00851026 	xor	v0,a0,a1
    5414:	03e00008 	jr	ra
    5418:	0002102b 	sltu	v0,zero,v0
    541c:	27bdffd0 	addiu	sp,sp,-48
    5420:	afb60028 	sw	s6,40(sp)
    5424:	0080b021 	move	s6,a0
    5428:	24040001 	li	a0,1
    542c:	afbf002c 	sw	ra,44(sp)
    5430:	afb50024 	sw	s5,36(sp)
    5434:	afb40020 	sw	s4,32(sp)
    5438:	afb3001c 	sw	s3,28(sp)
    543c:	afb10014 	sw	s1,20(sp)
    5440:	afb00010 	sw	s0,16(sp)
    5444:	0c0014ab 	jal	0x52ac
    5448:	afb20018 	sw	s2,24(sp)
    544c:	00402021 	move	a0,v0
    5450:	00402821 	move	a1,v0
    5454:	0c0013ec 	jal	0x4fb0
    5458:	0040a821 	move	s5,v0
    545c:	00402021 	move	a0,v0
    5460:	0c0013e9 	jal	0x4fa4
    5464:	02c02821 	move	a1,s6
    5468:	24040064 	li	a0,100
    546c:	0c0014ab 	jal	0x52ac
    5470:	0040a021 	move	s4,v0
    5474:	00402021 	move	a0,v0
    5478:	00402821 	move	a1,v0
    547c:	0c0013ec 	jal	0x4fb0
    5480:	00408821 	move	s1,v0
    5484:	00402021 	move	a0,v0
    5488:	0c0013e9 	jal	0x4fa4
    548c:	02c02821 	move	a1,s6
    5490:	00408021 	move	s0,v0
    5494:	0800152a 	j	0x54a8
    5498:	2413000a 	li	s3,10
    549c:	0220a821 	move	s5,s1
    54a0:	00408021 	move	s0,v0
    54a4:	02408821 	move	s1,s2
    54a8:	02a02021 	move	a0,s5
    54ac:	02202821 	move	a1,s1
    54b0:	1290001a 	beq	s4,s0,0x551c
    54b4:	2673ffff 	addiu	s3,s3,-1
    54b8:	0c0013e9 	jal	0x4fa4
    54bc:	00000000 	nop
    54c0:	00402021 	move	a0,v0
    54c4:	0c0013ec 	jal	0x4fb0
    54c8:	02002821 	move	a1,s0
    54cc:	02802021 	move	a0,s4
    54d0:	02002821 	move	a1,s0
    54d4:	0c0013e9 	jal	0x4fa4
    54d8:	00409021 	move	s2,v0
    54dc:	00402821 	move	a1,v0
    54e0:	0c001429 	jal	0x50a4
    54e4:	02402021 	move	a0,s2
    54e8:	00402821 	move	a1,v0
    54ec:	0c0013e9 	jal	0x4fa4
    54f0:	02202021 	move	a0,s1
    54f4:	00402021 	move	a0,v0
    54f8:	00402821 	move	a1,v0
    54fc:	0c0013ec 	jal	0x4fb0
    5500:	00409021 	move	s2,v0
    5504:	00402021 	move	a0,v0
    5508:	0c0013e9 	jal	0x4fa4
    550c:	02c02821 	move	a1,s6
    5510:	1660ffe2 	bnez	s3,0x549c
    5514:	0200a021 	move	s4,s0
    5518:	02408821 	move	s1,s2
    551c:	8fbf002c 	lw	ra,44(sp)
    5520:	02201021 	move	v0,s1
    5524:	8fb60028 	lw	s6,40(sp)
    5528:	8fb50024 	lw	s5,36(sp)
    552c:	8fb40020 	lw	s4,32(sp)
    5530:	8fb3001c 	lw	s3,28(sp)
    5534:	8fb20018 	lw	s2,24(sp)
    5538:	8fb10014 	lw	s1,20(sp)
    553c:	8fb00010 	lw	s0,16(sp)
    5540:	03e00008 	jr	ra
    5544:	27bd0030 	addiu	sp,sp,48
    5548:	27bdffd0 	addiu	sp,sp,-48
    554c:	afb10014 	sw	s1,20(sp)
    5550:	afb00010 	sw	s0,16(sp)
    5554:	afbf002c 	sw	ra,44(sp)
    5558:	afb60028 	sw	s6,40(sp)
    555c:	afb50024 	sw	s5,36(sp)
    5560:	afb40020 	sw	s4,32(sp)
    5564:	afb3001c 	sw	s3,28(sp)
    5568:	afb20018 	sw	s2,24(sp)
    556c:	8f918028 	lw	s1,-32728(gp)
    5570:	08001561 	j	0x5584
    5574:	00808021 	move	s0,a0
    5578:	0c0013e9 	jal	0x4fa4
    557c:	00000000 	nop
    5580:	00408021 	move	s0,v0
    5584:	02002021 	move	a0,s0
    5588:	0c0014d4 	jal	0x5350
    558c:	02202821 	move	a1,s1
    5590:	02002021 	move	a0,s0
    5594:	1c40fff8 	bgtz	v0,0x5578
    5598:	02202821 	move	a1,s1
    559c:	02002021 	move	a0,s0
    55a0:	0c0014d4 	jal	0x5350
    55a4:	00002821 	move	a1,zero
    55a8:	02002021 	move	a0,s0
    55ac:	0441000a 	bgez	v0,0x55d8
    55b0:	02202821 	move	a1,s1
    55b4:	0c00139a 	jal	0x4e68
    55b8:	00000000 	nop
    55bc:	00408021 	move	s0,v0
    55c0:	02002021 	move	a0,s0
    55c4:	0c0014d4 	jal	0x5350
    55c8:	00002821 	move	a1,zero
    55cc:	02002021 	move	a0,s0
    55d0:	0440fff8 	bltz	v0,0x55b4
    55d4:	02202821 	move	a1,s1
    55d8:	8f92802c 	lw	s2,-32724(gp)
    55dc:	0c0014d4 	jal	0x5350
    55e0:	02402821 	move	a1,s2
    55e4:	0440003c 	bltz	v0,0x56d8
    55e8:	02002021 	move	a0,s0
    55ec:	0c0013e9 	jal	0x4fa4
    55f0:	02402821 	move	a1,s2
    55f4:	2404ffff 	li	a0,-1
    55f8:	0c0014ab 	jal	0x52ac
    55fc:	00408021 	move	s0,v0
    5600:	8f918024 	lw	s1,-32732(gp)
    5604:	0040b021 	move	s6,v0
    5608:	8f858030 	lw	a1,-32720(gp)
    560c:	0c0014d4 	jal	0x5350
    5610:	02002021 	move	a0,s0
    5614:	04400006 	bltz	v0,0x5630
    5618:	02002821 	move	a1,s0
    561c:	0c0013e9 	jal	0x4fa4
    5620:	02402021 	move	a0,s2
    5624:	00408021 	move	s0,v0
    5628:	3c028000 	lui	v0,0x8000
    562c:	0056b026 	xor	s6,v0,s6
    5630:	02002021 	move	a0,s0
    5634:	0c0013ec 	jal	0x4fb0
    5638:	02002821 	move	a1,s0
    563c:	3c158000 	lui	s5,0x8000
    5640:	02209021 	move	s2,s1
    5644:	02209821 	move	s3,s1
    5648:	24100002 	li	s0,2
    564c:	0055a826 	xor	s5,v0,s5
    5650:	2414000c 	li	s4,12
    5654:	02402021 	move	a0,s2
    5658:	0c0013ec 	jal	0x4fb0
    565c:	02a02821 	move	a1,s5
    5660:	2604ffff 	addiu	a0,s0,-1
    5664:	00900018 	mult	a0,s0
    5668:	00409021 	move	s2,v0
    566c:	00002012 	mflo	a0
    5670:	0c0014ab 	jal	0x52ac
    5674:	26100002 	addiu	s0,s0,2
    5678:	00402821 	move	a1,v0
    567c:	0c0013ec 	jal	0x4fb0
    5680:	02202021 	move	a0,s1
    5684:	00402821 	move	a1,v0
    5688:	02402021 	move	a0,s2
    568c:	0c001429 	jal	0x50a4
    5690:	00408821 	move	s1,v0
    5694:	00402821 	move	a1,v0
    5698:	0c00139a 	jal	0x4e68
    569c:	02602021 	move	a0,s3
    56a0:	1614ffec 	bne	s0,s4,0x5654
    56a4:	00409821 	move	s3,v0
    56a8:	02c02821 	move	a1,s6
    56ac:	8fbf002c 	lw	ra,44(sp)
    56b0:	8fb60028 	lw	s6,40(sp)
    56b4:	8fb50024 	lw	s5,36(sp)
    56b8:	8fb40020 	lw	s4,32(sp)
    56bc:	8fb3001c 	lw	s3,28(sp)
    56c0:	8fb20018 	lw	s2,24(sp)
    56c4:	8fb10014 	lw	s1,20(sp)
    56c8:	8fb00010 	lw	s0,16(sp)
    56cc:	00402021 	move	a0,v0
    56d0:	080013ec 	j	0x4fb0
    56d4:	27bd0030 	addiu	sp,sp,48
    56d8:	8f918024 	lw	s1,-32732(gp)
    56dc:	08001582 	j	0x5608
    56e0:	0220b021 	move	s6,s1
    56e4:	8f858030 	lw	a1,-32720(gp)
    56e8:	27bdffe8 	addiu	sp,sp,-24
    56ec:	afbf0014 	sw	ra,20(sp)
    56f0:	0c0013e9 	jal	0x4fa4
    56f4:	00000000 	nop
    56f8:	00402021 	move	a0,v0
    56fc:	8fbf0014 	lw	ra,20(sp)
    5700:	08001552 	j	0x5548
    5704:	27bd0018 	addiu	sp,sp,24
    5708:	27bdffd8 	addiu	sp,sp,-40
    570c:	00002821 	move	a1,zero
    5710:	afb10014 	sw	s1,20(sp)
    5714:	afbf0024 	sw	ra,36(sp)
    5718:	afb40020 	sw	s4,32(sp)
    571c:	afb3001c 	sw	s3,28(sp)
    5720:	afb20018 	sw	s2,24(sp)
    5724:	afb00010 	sw	s0,16(sp)
    5728:	0c0014d4 	jal	0x5350
    572c:	00808821 	move	s1,a0
    5730:	0440005a 	bltz	v0,0x589c
    5734:	02202021 	move	a0,s1
    5738:	8f908024 	lw	s0,-32732(gp)
    573c:	0c0014d4 	jal	0x5350
    5740:	02002821 	move	a1,s0
    5744:	1c40002b 	bgtz	v0,0x57f4
    5748:	02202821 	move	a1,s1
    574c:	8f85803c 	lw	a1,-32708(gp)
    5750:	0c0014d4 	jal	0x5350
    5754:	02202021 	move	a0,s1
    5758:	1c400034 	bgtz	v0,0x582c
    575c:	02202021 	move	a0,s1
    5760:	8f85804c 	lw	a1,-32692(gp)
    5764:	0c0014d4 	jal	0x5350
    5768:	02202021 	move	a0,s1
    576c:	0440005f 	bltz	v0,0x58ec
    5770:	00000000 	nop
    5774:	3c048000 	lui	a0,0x8000
    5778:	00912026 	xor	a0,a0,s1
    577c:	0c0013ec 	jal	0x4fb0
    5780:	02202821 	move	a1,s1
    5784:	0040a021 	move	s4,v0
    5788:	02209021 	move	s2,s1
    578c:	24100003 	li	s0,3
    5790:	2413000f 	li	s3,15
    5794:	02802821 	move	a1,s4
    5798:	0c0013ec 	jal	0x4fb0
    579c:	02202021 	move	a0,s1
    57a0:	02002021 	move	a0,s0
    57a4:	0c0014ab 	jal	0x52ac
    57a8:	00408821 	move	s1,v0
    57ac:	00402821 	move	a1,v0
    57b0:	0c001429 	jal	0x50a4
    57b4:	02202021 	move	a0,s1
    57b8:	00402821 	move	a1,v0
    57bc:	0c00139a 	jal	0x4e68
    57c0:	02402021 	move	a0,s2
    57c4:	26100002 	addiu	s0,s0,2
    57c8:	1613fff2 	bne	s0,s3,0x5794
    57cc:	00409021 	move	s2,v0
    57d0:	8fbf0024 	lw	ra,36(sp)
    57d4:	02401021 	move	v0,s2
    57d8:	8fb40020 	lw	s4,32(sp)
    57dc:	8fb3001c 	lw	s3,28(sp)
    57e0:	8fb20018 	lw	s2,24(sp)
    57e4:	8fb10014 	lw	s1,20(sp)
    57e8:	8fb00010 	lw	s0,16(sp)
    57ec:	03e00008 	jr	ra
    57f0:	27bd0028 	addiu	sp,sp,40
    57f4:	0c001429 	jal	0x50a4
    57f8:	02002021 	move	a0,s0
    57fc:	0c0015c2 	jal	0x5708
    5800:	00402021 	move	a0,v0
    5804:	8f848030 	lw	a0,-32720(gp)
    5808:	8fbf0024 	lw	ra,36(sp)
    580c:	8fb40020 	lw	s4,32(sp)
    5810:	8fb3001c 	lw	s3,28(sp)
    5814:	8fb20018 	lw	s2,24(sp)
    5818:	8fb10014 	lw	s1,20(sp)
    581c:	8fb00010 	lw	s0,16(sp)
    5820:	00402821 	move	a1,v0
    5824:	080013e9 	j	0x4fa4
    5828:	27bd0028 	addiu	sp,sp,40
    582c:	8f908040 	lw	s0,-32704(gp)
    5830:	0c0013e9 	jal	0x4fa4
    5834:	02002821 	move	a1,s0
    5838:	02202021 	move	a0,s1
    583c:	02002821 	move	a1,s0
    5840:	0c0013ec 	jal	0x4fb0
    5844:	00409021 	move	s2,v0
    5848:	8f848024 	lw	a0,-32732(gp)
    584c:	0c00139a 	jal	0x4e68
    5850:	00402821 	move	a1,v0
    5854:	00402821 	move	a1,v0
    5858:	0c001429 	jal	0x50a4
    585c:	02402021 	move	a0,s2
    5860:	0c0015c2 	jal	0x5708
    5864:	00402021 	move	a0,v0
    5868:	8f848044 	lw	a0,-32700(gp)
    586c:	0c00139a 	jal	0x4e68
    5870:	00402821 	move	a1,v0
    5874:	8f858048 	lw	a1,-32696(gp)
    5878:	8fbf0024 	lw	ra,36(sp)
    587c:	8fb40020 	lw	s4,32(sp)
    5880:	8fb3001c 	lw	s3,28(sp)
    5884:	8fb20018 	lw	s2,24(sp)
    5888:	8fb10014 	lw	s1,20(sp)
    588c:	8fb00010 	lw	s0,16(sp)
    5890:	00402021 	move	a0,v0
    5894:	080013e9 	j	0x4fa4
    5898:	27bd0028 	addiu	sp,sp,40
    589c:	8f858034 	lw	a1,-32716(gp)
    58a0:	0c0014d4 	jal	0x5350
    58a4:	02202021 	move	a0,s1
    58a8:	1840ffa8 	blez	v0,0x574c
    58ac:	00000000 	nop
    58b0:	8f848024 	lw	a0,-32732(gp)
    58b4:	0c001429 	jal	0x50a4
    58b8:	02202821 	move	a1,s1
    58bc:	0c0015c2 	jal	0x5708
    58c0:	00402021 	move	a0,v0
    58c4:	8f848038 	lw	a0,-32712(gp)
    58c8:	8fbf0024 	lw	ra,36(sp)
    58cc:	8fb40020 	lw	s4,32(sp)
    58d0:	8fb3001c 	lw	s3,28(sp)
    58d4:	8fb20018 	lw	s2,24(sp)
    58d8:	8fb10014 	lw	s1,20(sp)
    58dc:	8fb00010 	lw	s0,16(sp)
    58e0:	00402821 	move	a1,v0
    58e4:	080013e9 	j	0x4fa4
    58e8:	27bd0028 	addiu	sp,sp,40
    58ec:	8f908040 	lw	s0,-32704(gp)
    58f0:	3c128000 	lui	s2,0x8000
    58f4:	02328826 	xor	s1,s1,s2
    58f8:	02202021 	move	a0,s1
    58fc:	0c0013e9 	jal	0x4fa4
    5900:	02002821 	move	a1,s0
    5904:	02202021 	move	a0,s1
    5908:	02002821 	move	a1,s0
    590c:	0c0013ec 	jal	0x4fb0
    5910:	00409821 	move	s3,v0
    5914:	8f848024 	lw	a0,-32732(gp)
    5918:	0c00139a 	jal	0x4e68
    591c:	00402821 	move	a1,v0
    5920:	00402821 	move	a1,v0
    5924:	0c001429 	jal	0x50a4
    5928:	02602021 	move	a0,s3
    592c:	0c0015c2 	jal	0x5708
    5930:	00402021 	move	a0,v0
    5934:	8f848044 	lw	a0,-32700(gp)
    5938:	0c00139a 	jal	0x4e68
    593c:	00402821 	move	a1,v0
    5940:	8f858048 	lw	a1,-32696(gp)
    5944:	0c0013e9 	jal	0x4fa4
    5948:	00402021 	move	a0,v0
    594c:	080015f4 	j	0x57d0
    5950:	00529026 	xor	s2,v0,s2
    5954:	27bdffe0 	addiu	sp,sp,-32
    5958:	afbf001c 	sw	ra,28(sp)
    595c:	afb20018 	sw	s2,24(sp)
    5960:	afb10014 	sw	s1,20(sp)
    5964:	afb00010 	sw	s0,16(sp)
    5968:	00809021 	move	s2,a0
    596c:	0c001429 	jal	0x50a4
    5970:	00a08021 	move	s0,a1
    5974:	0c0015c2 	jal	0x5708
    5978:	00402021 	move	a0,v0
    597c:	02002021 	move	a0,s0
    5980:	00002821 	move	a1,zero
    5984:	0c0014d4 	jal	0x5350
    5988:	00408821 	move	s1,v0
    598c:	04400007 	bltz	v0,0x59ac
    5990:	02201021 	move	v0,s1
    5994:	8fbf001c 	lw	ra,28(sp)
    5998:	8fb20018 	lw	s2,24(sp)
    599c:	8fb10014 	lw	s1,20(sp)
    59a0:	8fb00010 	lw	s0,16(sp)
    59a4:	03e00008 	jr	ra
    59a8:	27bd0020 	addiu	sp,sp,32
    59ac:	02402021 	move	a0,s2
    59b0:	0c0014d4 	jal	0x5350
    59b4:	00002821 	move	a1,zero
    59b8:	18400008 	blez	v0,0x59dc
    59bc:	02202021 	move	a0,s1
    59c0:	8f85802c 	lw	a1,-32724(gp)
    59c4:	8fbf001c 	lw	ra,28(sp)
    59c8:	8fb20018 	lw	s2,24(sp)
    59cc:	8fb10014 	lw	s1,20(sp)
    59d0:	8fb00010 	lw	s0,16(sp)
    59d4:	0800139a 	j	0x4e68
    59d8:	27bd0020 	addiu	sp,sp,32
    59dc:	8f85802c 	lw	a1,-32724(gp)
    59e0:	8fbf001c 	lw	ra,28(sp)
    59e4:	8fb20018 	lw	s2,24(sp)
    59e8:	8fb10014 	lw	s1,20(sp)
    59ec:	8fb00010 	lw	s0,16(sp)
    59f0:	080013e9 	j	0x4fa4
    59f4:	27bd0020 	addiu	sp,sp,32
    59f8:	27bdffd0 	addiu	sp,sp,-48
    59fc:	afb3001c 	sw	s3,28(sp)
    5a00:	8f938024 	lw	s3,-32732(gp)
    5a04:	afb50024 	sw	s5,36(sp)
    5a08:	afb40020 	sw	s4,32(sp)
    5a0c:	afb20018 	sw	s2,24(sp)
    5a10:	afb10014 	sw	s1,20(sp)
    5a14:	afb00010 	sw	s0,16(sp)
    5a18:	afbf002c 	sw	ra,44(sp)
    5a1c:	afb60028 	sw	s6,40(sp)
    5a20:	00808021 	move	s0,a0
    5a24:	8f918054 	lw	s1,-32684(gp)
    5a28:	8f948058 	lw	s4,-32680(gp)
    5a2c:	8f958050 	lw	s5,-32688(gp)
    5a30:	08001695 	j	0x5a54
    5a34:	02609021 	move	s2,s3
    5a38:	0c0013ec 	jal	0x4fb0
    5a3c:	00000000 	nop
    5a40:	02002021 	move	a0,s0
    5a44:	02202821 	move	a1,s1
    5a48:	0c00139a 	jal	0x4e68
    5a4c:	00409021 	move	s2,v0
    5a50:	00408021 	move	s0,v0
    5a54:	02002021 	move	a0,s0
    5a58:	0c0014d4 	jal	0x5350
    5a5c:	02802821 	move	a1,s4
    5a60:	02402021 	move	a0,s2
    5a64:	1c40fff4 	bgtz	v0,0x5a38
    5a68:	02a02821 	move	a1,s5
    5a6c:	8f95805c 	lw	s5,-32676(gp)
    5a70:	080016a6 	j	0x5a98
    5a74:	02002021 	move	a0,s0
    5a78:	0c0013ec 	jal	0x4fb0
    5a7c:	00000000 	nop
    5a80:	02002021 	move	a0,s0
    5a84:	02802821 	move	a1,s4
    5a88:	0c00139a 	jal	0x4e68
    5a8c:	00409021 	move	s2,v0
    5a90:	00408021 	move	s0,v0
    5a94:	02002021 	move	a0,s0
    5a98:	0c0014d4 	jal	0x5350
    5a9c:	02202821 	move	a1,s1
    5aa0:	02402021 	move	a0,s2
    5aa4:	0440fff4 	bltz	v0,0x5a78
    5aa8:	02a02821 	move	a1,s5
    5aac:	02602021 	move	a0,s3
    5ab0:	0c00139a 	jal	0x4e68
    5ab4:	02002821 	move	a1,s0
    5ab8:	0040a821 	move	s5,v0
    5abc:	0200a021 	move	s4,s0
    5ac0:	24110002 	li	s1,2
    5ac4:	2416000f 	li	s6,15
    5ac8:	02002821 	move	a1,s0
    5acc:	0c0013ec 	jal	0x4fb0
    5ad0:	02802021 	move	a0,s4
    5ad4:	02202021 	move	a0,s1
    5ad8:	0c0014ab 	jal	0x52ac
    5adc:	0040a021 	move	s4,v0
    5ae0:	00402821 	move	a1,v0
    5ae4:	0c0013ec 	jal	0x4fb0
    5ae8:	02602021 	move	a0,s3
    5aec:	00402821 	move	a1,v0
    5af0:	02802021 	move	a0,s4
    5af4:	0c001429 	jal	0x50a4
    5af8:	00409821 	move	s3,v0
    5afc:	00402821 	move	a1,v0
    5b00:	0c00139a 	jal	0x4e68
    5b04:	02a02021 	move	a0,s5
    5b08:	26310001 	addiu	s1,s1,1
    5b0c:	1636ffee 	bne	s1,s6,0x5ac8
    5b10:	0040a821 	move	s5,v0
    5b14:	02402821 	move	a1,s2
    5b18:	8fbf002c 	lw	ra,44(sp)
    5b1c:	8fb60028 	lw	s6,40(sp)
    5b20:	8fb50024 	lw	s5,36(sp)
    5b24:	8fb40020 	lw	s4,32(sp)
    5b28:	8fb3001c 	lw	s3,28(sp)
    5b2c:	8fb20018 	lw	s2,24(sp)
    5b30:	8fb10014 	lw	s1,20(sp)
    5b34:	8fb00010 	lw	s0,16(sp)
    5b38:	00402021 	move	a0,v0
    5b3c:	080013ec 	j	0x4fb0
    5b40:	27bd0030 	addiu	sp,sp,48
    5b44:	27bdffd0 	addiu	sp,sp,-48
    5b48:	afb40024 	sw	s4,36(sp)
    5b4c:	afb30020 	sw	s3,32(sp)
    5b50:	afb2001c 	sw	s2,28(sp)
    5b54:	afb10018 	sw	s1,24(sp)
    5b58:	afb00014 	sw	s0,20(sp)
    5b5c:	afbf002c 	sw	ra,44(sp)
    5b60:	afb50028 	sw	s5,40(sp)
    5b64:	00808021 	move	s0,a0
    5b68:	8f938068 	lw	s3,-32664(gp)
    5b6c:	8f928060 	lw	s2,-32672(gp)
    5b70:	8f948064 	lw	s4,-32668(gp)
    5b74:	080016e6 	j	0x5b98
    5b78:	00008821 	move	s1,zero
    5b7c:	0c0013ec 	jal	0x4fb0
    5b80:	00000000 	nop
    5b84:	02202021 	move	a0,s1
    5b88:	02802821 	move	a1,s4
    5b8c:	0c00139a 	jal	0x4e68
    5b90:	00408021 	move	s0,v0
    5b94:	00408821 	move	s1,v0
    5b98:	02002021 	move	a0,s0
    5b9c:	0c0014d4 	jal	0x5350
    5ba0:	02602821 	move	a1,s3
    5ba4:	02002021 	move	a0,s0
    5ba8:	1c40fff4 	bgtz	v0,0x5b7c
    5bac:	02402821 	move	a1,s2
    5bb0:	8f92806c 	lw	s2,-32660(gp)
    5bb4:	8f938074 	lw	s3,-32652(gp)
    5bb8:	8f948070 	lw	s4,-32656(gp)
    5bbc:	080016f8 	j	0x5be0
    5bc0:	00000000 	nop
    5bc4:	0c0013ec 	jal	0x4fb0
    5bc8:	00000000 	nop
    5bcc:	02202021 	move	a0,s1
    5bd0:	02802821 	move	a1,s4
    5bd4:	0c00139a 	jal	0x4e68
    5bd8:	00408021 	move	s0,v0
    5bdc:	00408821 	move	s1,v0
    5be0:	02002021 	move	a0,s0
    5be4:	0c0014d4 	jal	0x5350
    5be8:	02602821 	move	a1,s3
    5bec:	02002021 	move	a0,s0
    5bf0:	1c40fff4 	bgtz	v0,0x5bc4
    5bf4:	02402821 	move	a1,s2
    5bf8:	8f938058 	lw	s3,-32680(gp)
    5bfc:	8f948070 	lw	s4,-32656(gp)
    5c00:	08001709 	j	0x5c24
    5c04:	00000000 	nop
    5c08:	0c0013ec 	jal	0x4fb0
    5c0c:	00000000 	nop
    5c10:	02202021 	move	a0,s1
    5c14:	02802821 	move	a1,s4
    5c18:	0c0013e9 	jal	0x4fa4
    5c1c:	00408021 	move	s0,v0
    5c20:	00408821 	move	s1,v0
    5c24:	02002021 	move	a0,s0
    5c28:	0c0014d4 	jal	0x5350
    5c2c:	02402821 	move	a1,s2
    5c30:	02002021 	move	a0,s0
    5c34:	0440fff4 	bltz	v0,0x5c08
    5c38:	02602821 	move	a1,s3
    5c3c:	8f858024 	lw	a1,-32732(gp)
    5c40:	0c0013e9 	jal	0x4fa4
    5c44:	3c158000 	lui	s5,0x8000
    5c48:	8f928034 	lw	s2,-32716(gp)
    5c4c:	00009821 	move	s3,zero
    5c50:	24100001 	li	s0,1
    5c54:	0055a826 	xor	s5,v0,s5
    5c58:	2414000e 	li	s4,14
    5c5c:	02a02821 	move	a1,s5
    5c60:	0c0013ec 	jal	0x4fb0
    5c64:	02402021 	move	a0,s2
    5c68:	02002021 	move	a0,s0
    5c6c:	0c0014ab 	jal	0x52ac
    5c70:	00409021 	move	s2,v0
    5c74:	00402821 	move	a1,v0
    5c78:	0c001429 	jal	0x50a4
    5c7c:	02402021 	move	a0,s2
    5c80:	00402821 	move	a1,v0
    5c84:	0c00139a 	jal	0x4e68
    5c88:	02602021 	move	a0,s3
    5c8c:	26100001 	addiu	s0,s0,1
    5c90:	1614fff2 	bne	s0,s4,0x5c5c
    5c94:	00409821 	move	s3,v0
    5c98:	02202821 	move	a1,s1
    5c9c:	8fbf002c 	lw	ra,44(sp)
    5ca0:	8fb50028 	lw	s5,40(sp)
    5ca4:	8fb40024 	lw	s4,36(sp)
    5ca8:	8fb30020 	lw	s3,32(sp)
    5cac:	8fb2001c 	lw	s2,28(sp)
    5cb0:	8fb10018 	lw	s1,24(sp)
    5cb4:	8fb00014 	lw	s0,20(sp)
    5cb8:	00402021 	move	a0,v0
    5cbc:	0800139a 	j	0x4e68
    5cc0:	27bd0030 	addiu	sp,sp,48
    5cc4:	27bdffe0 	addiu	sp,sp,-32
    5cc8:	afbf001c 	sw	ra,28(sp)
    5ccc:	0c0016d1 	jal	0x5b44
    5cd0:	afa50010 	sw	a1,16(sp)
    5cd4:	8fa50010 	lw	a1,16(sp)
    5cd8:	0c0013ec 	jal	0x4fb0
    5cdc:	00402021 	move	a0,v0
    5ce0:	00402021 	move	a0,v0
    5ce4:	8fbf001c 	lw	ra,28(sp)
    5ce8:	0800167e 	j	0x59f8
    5cec:	27bd0020 	addiu	sp,sp,32
    5cf0:	00042027 	nor	a0,zero,a0
    5cf4:	24c3ffff 	addiu	v1,a2,-1
    5cf8:	18600020 	blez	v1,0x5d7c
    5cfc:	3084ffff 	andi	a0,a0,0xffff
    5d00:	00a01021 	move	v0,a1
    5d04:	00003821 	move	a3,zero
    5d08:	90490000 	lbu	t1,0(v0)
    5d0c:	90480001 	lbu	t0,1(v0)
    5d10:	00094a00 	sll	t1,t1,0x8
    5d14:	24e70002 	addiu	a3,a3,2
    5d18:	01284825 	or	t1,t1,t0
    5d1c:	00e3402a 	slt	t0,a3,v1
    5d20:	00892021 	addu	a0,a0,t1
    5d24:	1500fff8 	bnez	t0,0x5d08
    5d28:	24420002 	addiu	v0,v0,2
    5d2c:	24c2fffe 	addiu	v0,a2,-2
    5d30:	00021042 	srl	v0,v0,0x1
    5d34:	24420001 	addiu	v0,v0,1
    5d38:	00021040 	sll	v0,v0,0x1
    5d3c:	0046302a 	slt	a2,v0,a2
    5d40:	10c00008 	beqz	a2,0x5d64
    5d44:	00a21021 	addu	v0,a1,v0
    5d48:	90420000 	lbu	v0,0(v0)
    5d4c:	00000000 	nop
    5d50:	00021200 	sll	v0,v0,0x8
    5d54:	08001759 	j	0x5d64
    5d58:	00822021 	addu	a0,a0,v0
    5d5c:	3084ffff 	andi	a0,a0,0xffff
    5d60:	00822021 	addu	a0,a0,v0
    5d64:	00041403 	sra	v0,a0,0x10
    5d68:	1440fffc 	bnez	v0,0x5d5c
    5d6c:	00000000 	nop
    5d70:	00042027 	nor	a0,zero,a0
    5d74:	03e00008 	jr	ra
    5d78:	3082ffff 	andi	v0,a0,0xffff
    5d7c:	0800174f 	j	0x5d3c
    5d80:	00001021 	move	v0,zero
    5d84:	27bdffe0 	addiu	sp,sp,-32
    5d88:	afb10018 	sw	s1,24(sp)
    5d8c:	afb00014 	sw	s0,20(sp)
    5d90:	00808821 	move	s1,a0
    5d94:	afbf001c 	sw	ra,28(sp)
    5d98:	0c0008e8 	jal	0x23a0
    5d9c:	00a08021 	move	s0,a1
    5da0:	02202021 	move	a0,s1
    5da4:	26050006 	addiu	a1,s0,6
    5da8:	0c0008e8 	jal	0x23a0
    5dac:	24060006 	li	a2,6
    5db0:	26240006 	addiu	a0,s1,6
    5db4:	02002821 	move	a1,s0
    5db8:	0c0008e8 	jal	0x23a0
    5dbc:	24060006 	li	a2,6
    5dc0:	9202000d 	lbu	v0,13(s0)
    5dc4:	00000000 	nop
    5dc8:	10400006 	beqz	v0,0x5de4
    5dcc:	2624001a 	addiu	a0,s1,26
    5dd0:	8fbf001c 	lw	ra,28(sp)
    5dd4:	8fb10018 	lw	s1,24(sp)
    5dd8:	8fb00014 	lw	s0,20(sp)
    5ddc:	03e00008 	jr	ra
    5de0:	27bd0020 	addiu	sp,sp,32
    5de4:	2605001e 	addiu	a1,s0,30
    5de8:	0c0008e8 	jal	0x23a0
    5dec:	24060004 	li	a2,4
    5df0:	2624001e 	addiu	a0,s1,30
    5df4:	2605001a 	addiu	a1,s0,26
    5df8:	0c0008e8 	jal	0x23a0
    5dfc:	24060004 	li	a2,4
    5e00:	92020017 	lbu	v0,23(s0)
    5e04:	24030006 	li	v1,6
    5e08:	10430003 	beq	v0,v1,0x5e18
    5e0c:	24030011 	li	v1,17
    5e10:	1443ffef 	bne	v0,v1,0x5dd0
    5e14:	00000000 	nop
    5e18:	26240022 	addiu	a0,s1,34
    5e1c:	26050024 	addiu	a1,s0,36
    5e20:	0c0008e8 	jal	0x23a0
    5e24:	24060002 	li	a2,2
    5e28:	26240024 	addiu	a0,s1,36
    5e2c:	26050022 	addiu	a1,s0,34
    5e30:	8fbf001c 	lw	ra,28(sp)
    5e34:	8fb10018 	lw	s1,24(sp)
    5e38:	8fb00014 	lw	s0,20(sp)
    5e3c:	24060002 	li	a2,2
    5e40:	080008e8 	j	0x23a0
    5e44:	27bd0020 	addiu	sp,sp,32
    5e48:	27bdffd8 	addiu	sp,sp,-40
    5e4c:	afb30020 	sw	s3,32(sp)
    5e50:	afb2001c 	sw	s2,28(sp)
    5e54:	afb10018 	sw	s1,24(sp)
    5e58:	afb00014 	sw	s0,20(sp)
    5e5c:	afbf0024 	sw	ra,36(sp)
    5e60:	90c2026c 	lbu	v0,620(a2)
    5e64:	24110002 	li	s1,2
    5e68:	00c08021 	move	s0,a2
    5e6c:	00809821 	move	s3,a0
    5e70:	10510015 	beq	v0,s1,0x5ec8
    5e74:	00a09021 	move	s2,a1
    5e78:	0c000842 	jal	0x2108
    5e7c:	00000000 	nop
    5e80:	3c040001 	lui	a0,0x1
    5e84:	3c050001 	lui	a1,0x1
    5e88:	24a5cdc0 	addiu	a1,a1,-12864
    5e8c:	2484c884 	addiu	a0,a0,-14204
    5e90:	0c000dc6 	jal	0x3718
    5e94:	24060108 	li	a2,264
    5e98:	9205026c 	lbu	a1,620(s0)
    5e9c:	00000000 	nop
    5ea0:	10b10009 	beq	a1,s1,0x5ec8
    5ea4:	3c040001 	lui	a0,0x1
    5ea8:	8fbf0024 	lw	ra,36(sp)
    5eac:	8fb30020 	lw	s3,32(sp)
    5eb0:	8fb2001c 	lw	s2,28(sp)
    5eb4:	8fb10018 	lw	s1,24(sp)
    5eb8:	8fb00014 	lw	s0,20(sp)
    5ebc:	2484cdc8 	addiu	a0,a0,-12856
    5ec0:	08000d18 	j	0x3460
    5ec4:	27bd0028 	addiu	sp,sp,40
    5ec8:	8e02025c 	lw	v0,604(s0)
    5ecc:	24030001 	li	v1,1
    5ed0:	10400014 	beqz	v0,0x5f24
    5ed4:	a203026c 	sb	v1,620(s0)
    5ed8:	8e030258 	lw	v1,600(s0)
    5edc:	00000000 	nop
    5ee0:	ac430258 	sw	v1,600(v0)
    5ee4:	8e030258 	lw	v1,600(s0)
    5ee8:	00000000 	nop
    5eec:	1060000b 	beqz	v1,0x5f1c
    5ef0:	00000000 	nop
    5ef4:	ac62025c 	sw	v0,604(v1)
    5ef8:	8fbf0024 	lw	ra,36(sp)
    5efc:	ae00025c 	sw	zero,604(s0)
    5f00:	ae000258 	sw	zero,600(s0)
    5f04:	8fb30020 	lw	s3,32(sp)
    5f08:	8fb2001c 	lw	s2,28(sp)
    5f0c:	8fb10018 	lw	s1,24(sp)
    5f10:	8fb00014 	lw	s0,20(sp)
    5f14:	03e00008 	jr	ra
    5f18:	27bd0028 	addiu	sp,sp,40
    5f1c:	080017be 	j	0x5ef8
    5f20:	ae420000 	sw	v0,0(s2)
    5f24:	8e020258 	lw	v0,600(s0)
    5f28:	00000000 	nop
    5f2c:	ae620000 	sw	v0,0(s3)
    5f30:	8e02025c 	lw	v0,604(s0)
    5f34:	080017b9 	j	0x5ee4
    5f38:	00000000 	nop
    5f3c:	27bdffe0 	addiu	sp,sp,-32
    5f40:	afb20018 	sw	s2,24(sp)
    5f44:	afb10014 	sw	s1,20(sp)
    5f48:	afb00010 	sw	s0,16(sp)
    5f4c:	afbf001c 	sw	ra,28(sp)
    5f50:	90c2026c 	lbu	v0,620(a2)
    5f54:	24030001 	li	v1,1
    5f58:	00c08021 	move	s0,a2
    5f5c:	00808821 	move	s1,a0
    5f60:	10430009 	beq	v0,v1,0x5f88
    5f64:	00a09021 	move	s2,a1
    5f68:	0c000842 	jal	0x2108
    5f6c:	00000000 	nop
    5f70:	3c040001 	lui	a0,0x1
    5f74:	3c050001 	lui	a1,0x1
    5f78:	2484c884 	addiu	a0,a0,-14204
    5f7c:	24a5cdc0 	addiu	a1,a1,-12864
    5f80:	0c000dc6 	jal	0x3718
    5f84:	240600f8 	li	a2,248
    5f88:	24020002 	li	v0,2
    5f8c:	a202026c 	sb	v0,620(s0)
    5f90:	8f848120 	lw	a0,-32480(gp)
    5f94:	0c0004b2 	jal	0x12c8
    5f98:	00000000 	nop
    5f9c:	ae00025c 	sw	zero,604(s0)
    5fa0:	8e220000 	lw	v0,0(s1)
    5fa4:	00000000 	nop
    5fa8:	ae020258 	sw	v0,600(s0)
    5fac:	8e220000 	lw	v0,0(s1)
    5fb0:	00000000 	nop
    5fb4:	10400002 	beqz	v0,0x5fc0
    5fb8:	00000000 	nop
    5fbc:	ac50025c 	sw	s0,604(v0)
    5fc0:	ae300000 	sw	s0,0(s1)
    5fc4:	8e420000 	lw	v0,0(s2)
    5fc8:	00000000 	nop
    5fcc:	10400008 	beqz	v0,0x5ff0
    5fd0:	00000000 	nop
    5fd4:	8f848120 	lw	a0,-32480(gp)
    5fd8:	8fbf001c 	lw	ra,28(sp)
    5fdc:	8fb20018 	lw	s2,24(sp)
    5fe0:	8fb10014 	lw	s1,20(sp)
    5fe4:	8fb00010 	lw	s0,16(sp)
    5fe8:	080004d8 	j	0x1360
    5fec:	27bd0020 	addiu	sp,sp,32
    5ff0:	8f848120 	lw	a0,-32480(gp)
    5ff4:	ae500000 	sw	s0,0(s2)
    5ff8:	8fbf001c 	lw	ra,28(sp)
    5ffc:	8fb20018 	lw	s2,24(sp)
    6000:	8fb10014 	lw	s1,20(sp)
    6004:	8fb00010 	lw	s0,16(sp)
    6008:	080004d8 	j	0x1360
    600c:	27bd0020 	addiu	sp,sp,32
    6010:	27bdffe8 	addiu	sp,sp,-24
    6014:	afb00010 	sw	s0,16(sp)
    6018:	afbf0014 	sw	ra,20(sp)
    601c:	9083026c 	lbu	v1,620(a0)
    6020:	24020001 	li	v0,1
    6024:	10620009 	beq	v1,v0,0x604c
    6028:	00808021 	move	s0,a0
    602c:	0c000842 	jal	0x2108
    6030:	00000000 	nop
    6034:	3c040001 	lui	a0,0x1
    6038:	3c050001 	lui	a1,0x1
    603c:	2484c884 	addiu	a0,a0,-14204
    6040:	24a5cdc0 	addiu	a1,a1,-12864
    6044:	0c000dc6 	jal	0x3718
    6048:	240600ec 	li	a2,236
    604c:	00002021 	move	a0,zero
    6050:	0c00004a 	jal	0x128
    6054:	a200026c 	sb	zero,620(s0)
    6058:	8f838150 	lw	v1,-32432(gp)
    605c:	8fbf0014 	lw	ra,20(sp)
    6060:	ae030258 	sw	v1,600(s0)
    6064:	8f838118 	lw	v1,-32488(gp)
    6068:	af908150 	sw	s0,-32432(gp)
    606c:	24630001 	addiu	v1,v1,1
    6070:	8fb00010 	lw	s0,16(sp)
    6074:	00402021 	move	a0,v0
    6078:	27bd0018 	addiu	sp,sp,24
    607c:	0800004a 	j	0x128
    6080:	af838118 	sw	v1,-32488(gp)
    6084:	00803021 	move	a2,a0
    6088:	9084002f 	lbu	a0,47(a0)
    608c:	94c20268 	lhu	v0,616(a2)
    6090:	30840003 	andi	a0,a0,0x3
    6094:	10800002 	beqz	a0,0x60a0
    6098:	2443ffca 	addiu	v1,v0,-54
    609c:	2443ffcb 	addiu	v1,v0,-53
    60a0:	8cc20260 	lw	v0,608(a2)
    60a4:	00000000 	nop
    60a8:	10400010 	beqz	v0,0x60ec
    60ac:	24040002 	li	a0,2
    60b0:	8c420008 	lw	v0,8(v0)
    60b4:	00000000 	nop
    60b8:	1044000c 	beq	v0,a0,0x60ec
    60bc:	00000000 	nop
    60c0:	1060000a 	beqz	v1,0x60ec
    60c4:	24030001 	li	v1,1
    60c8:	10430008 	beq	v0,v1,0x60ec
    60cc:	00000000 	nop
    60d0:	90c2026d 	lbu	v0,621(a2)
    60d4:	00000000 	nop
    60d8:	24420001 	addiu	v0,v0,1
    60dc:	304200ff 	andi	v0,v0,0xff
    60e0:	2c430005 	sltiu	v1,v0,5
    60e4:	14600003 	bnez	v1,0x60f4
    60e8:	a0c2026d 	sb	v0,621(a2)
    60ec:	08001804 	j	0x6010
    60f0:	00c02021 	move	a0,a2
    60f4:	00022180 	sll	a0,v0,0x6
    60f8:	000218c0 	sll	v1,v0,0x3
    60fc:	00831823 	subu	v1,a0,v1
    6100:	00621023 	subu	v0,v1,v0
    6104:	00021040 	sll	v0,v0,0x1
    6108:	a4c2026a 	sh	v0,618(a2)
    610c:	27848124 	addiu	a0,gp,-32476
    6110:	080017cf 	j	0x5f3c
    6114:	27858128 	addiu	a1,gp,-32472
    6118:	27bdffd8 	addiu	sp,sp,-40
    611c:	afb20018 	sw	s2,24(sp)
    6120:	00809021 	move	s2,a0
    6124:	8f848120 	lw	a0,-32480(gp)
    6128:	afb00010 	sw	s0,16(sp)
    612c:	afbf0024 	sw	ra,36(sp)
    6130:	afb40020 	sw	s4,32(sp)
    6134:	afb3001c 	sw	s3,28(sp)
    6138:	0c0004b2 	jal	0x12c8
    613c:	afb10014 	sw	s1,20(sp)
    6140:	8f908144 	lw	s0,-32444(gp)
    6144:	00000000 	nop
    6148:	12000012 	beqz	s0,0x6194
    614c:	00000000 	nop
    6150:	8e020260 	lw	v0,608(s0)
    6154:	8e110258 	lw	s1,600(s0)
    6158:	10520007 	beq	v0,s2,0x6178
    615c:	27848124 	addiu	a0,gp,-32476
    6160:	1220000c 	beqz	s1,0x6194
    6164:	02208021 	move	s0,s1
    6168:	8e020260 	lw	v0,608(s0)
    616c:	8e110258 	lw	s1,600(s0)
    6170:	1452fffb 	bne	v0,s2,0x6160
    6174:	27848124 	addiu	a0,gp,-32476
    6178:	02003021 	move	a2,s0
    617c:	0c001792 	jal	0x5e48
    6180:	27858128 	addiu	a1,gp,-32472
    6184:	0c001804 	jal	0x6010
    6188:	02002021 	move	a0,s0
    618c:	1620fff6 	bnez	s1,0x6168
    6190:	02208021 	move	s0,s1
    6194:	8f908124 	lw	s0,-32476(gp)
    6198:	00000000 	nop
    619c:	12000013 	beqz	s0,0x61ec
    61a0:	00000000 	nop
    61a4:	8e020260 	lw	v0,608(s0)
    61a8:	8e110258 	lw	s1,600(s0)
    61ac:	10520007 	beq	v0,s2,0x61cc
    61b0:	00000000 	nop
    61b4:	1220000d 	beqz	s1,0x61ec
    61b8:	02208021 	move	s0,s1
    61bc:	8e020260 	lw	v0,608(s0)
    61c0:	8e110258 	lw	s1,600(s0)
    61c4:	1452fffb 	bne	v0,s2,0x61b4
    61c8:	00000000 	nop
    61cc:	27848124 	addiu	a0,gp,-32476
    61d0:	02003021 	move	a2,s0
    61d4:	0c001792 	jal	0x5e48
    61d8:	27858128 	addiu	a1,gp,-32472
    61dc:	0c001804 	jal	0x6010
    61e0:	02002021 	move	a0,s0
    61e4:	1620fff5 	bnez	s1,0x61bc
    61e8:	02208021 	move	s0,s1
    61ec:	8e50007c 	lw	s0,124(s2)
    61f0:	00000000 	nop
    61f4:	1200000b 	beqz	s0,0x6224
    61f8:	2654007c 	addiu	s4,s2,124
    61fc:	26530080 	addiu	s3,s2,128
    6200:	8e110258 	lw	s1,600(s0)
    6204:	02802021 	move	a0,s4
    6208:	02003021 	move	a2,s0
    620c:	0c001792 	jal	0x5e48
    6210:	02602821 	move	a1,s3
    6214:	0c001804 	jal	0x6010
    6218:	02002021 	move	a0,s0
    621c:	1620fff8 	bnez	s1,0x6200
    6220:	02208021 	move	s0,s1
    6224:	2402000f 	li	v0,15
    6228:	ae420020 	sw	v0,32(s2)
    622c:	8f848120 	lw	a0,-32480(gp)
    6230:	24020007 	li	v0,7
    6234:	ae420008 	sw	v0,8(s2)
    6238:	8fbf0024 	lw	ra,36(sp)
    623c:	8fb40020 	lw	s4,32(sp)
    6240:	8fb3001c 	lw	s3,28(sp)
    6244:	8fb20018 	lw	s2,24(sp)
    6248:	8fb10014 	lw	s1,20(sp)
    624c:	8fb00010 	lw	s0,16(sp)
    6250:	080004d8 	j	0x1360
    6254:	27bd0028 	addiu	sp,sp,40
    6258:	27bdffe8 	addiu	sp,sp,-24
    625c:	afb00010 	sw	s0,16(sp)
    6260:	00808021 	move	s0,a0
    6264:	afbf0014 	sw	ra,20(sp)
    6268:	0c00004a 	jal	0x128
    626c:	00002021 	move	a0,zero
    6270:	8f838118 	lw	v1,-32488(gp)
    6274:	00000000 	nop
    6278:	0203802a 	slt	s0,s0,v1
    627c:	12000014 	beqz	s0,0x62d0
    6280:	00000000 	nop
    6284:	8f908150 	lw	s0,-32432(gp)
    6288:	00000000 	nop
    628c:	12000010 	beqz	s0,0x62d0
    6290:	2463ffff 	addiu	v1,v1,-1
    6294:	8e050258 	lw	a1,600(s0)
    6298:	00402021 	move	a0,v0
    629c:	af858150 	sw	a1,-32432(gp)
    62a0:	0c00004a 	jal	0x128
    62a4:	af838118 	sw	v1,-32488(gp)
    62a8:	9202026c 	lbu	v0,620(s0)
    62ac:	00000000 	nop
    62b0:	1440000f 	bnez	v0,0x62f0
    62b4:	24020001 	li	v0,1
    62b8:	a202026c 	sb	v0,620(s0)
    62bc:	8fbf0014 	lw	ra,20(sp)
    62c0:	02001021 	move	v0,s0
    62c4:	8fb00010 	lw	s0,16(sp)
    62c8:	03e00008 	jr	ra
    62cc:	27bd0018 	addiu	sp,sp,24
    62d0:	0c00004a 	jal	0x128
    62d4:	00402021 	move	a0,v0
    62d8:	8fbf0014 	lw	ra,20(sp)
    62dc:	00008021 	move	s0,zero
    62e0:	02001021 	move	v0,s0
    62e4:	8fb00010 	lw	s0,16(sp)
    62e8:	03e00008 	jr	ra
    62ec:	27bd0018 	addiu	sp,sp,24
    62f0:	0c000842 	jal	0x2108
    62f4:	00000000 	nop
    62f8:	3c040001 	lui	a0,0x1
    62fc:	3c050001 	lui	a1,0x1
    6300:	2484c884 	addiu	a0,a0,-14204
    6304:	24a5cdc0 	addiu	a1,a1,-12864
    6308:	0c000dc6 	jal	0x3718
    630c:	240600e1 	li	a2,225
    6310:	24020001 	li	v0,1
    6314:	080018af 	j	0x62bc
    6318:	a202026c 	sb	v0,620(s0)
    631c:	27bdffe0 	addiu	sp,sp,-32
    6320:	afb10018 	sw	s1,24(sp)
    6324:	00808821 	move	s1,a0
    6328:	afb00014 	sw	s0,20(sp)
    632c:	afbf001c 	sw	ra,28(sp)
    6330:	0c001896 	jal	0x6258
    6334:	00002021 	move	a0,zero
    6338:	1040002c 	beqz	v0,0x63ec
    633c:	00408021 	move	s0,v0
    6340:	00002821 	move	a1,zero
    6344:	24060200 	li	a2,512
    6348:	0c00092b 	jal	0x24ac
    634c:	00402021 	move	a0,v0
    6350:	02002021 	move	a0,s0
    6354:	240500ff 	li	a1,255
    6358:	0c00092b 	jal	0x24ac
    635c:	24060006 	li	a2,6
    6360:	26040006 	addiu	a0,s0,6
    6364:	2785807c 	addiu	a1,gp,-32644
    6368:	0c0008e8 	jal	0x23a0
    636c:	24060006 	li	a2,6
    6370:	24030006 	li	v1,6
    6374:	24070008 	li	a3,8
    6378:	24020001 	li	v0,1
    637c:	a203000d 	sb	v1,13(s0)
    6380:	a2030012 	sb	v1,18(s0)
    6384:	24030004 	li	v1,4
    6388:	a207000c 	sb	a3,12(s0)
    638c:	a2070010 	sb	a3,16(s0)
    6390:	a2030013 	sb	v1,19(s0)
    6394:	26040016 	addiu	a0,s0,22
    6398:	2785807c 	addiu	a1,gp,-32644
    639c:	24060006 	li	a2,6
    63a0:	a202000f 	sb	v0,15(s0)
    63a4:	0c0008e8 	jal	0x23a0
    63a8:	a2020015 	sb	v0,21(s0)
    63ac:	2604001c 	addiu	a0,s0,28
    63b0:	27858084 	addiu	a1,gp,-32636
    63b4:	0c0008e8 	jal	0x23a0
    63b8:	24060004 	li	a2,4
    63bc:	26040026 	addiu	a0,s0,38
    63c0:	02202821 	move	a1,s1
    63c4:	0c0008e8 	jal	0x23a0
    63c8:	24060004 	li	a2,4
    63cc:	02002821 	move	a1,s0
    63d0:	8fbf001c 	lw	ra,28(sp)
    63d4:	8fb10018 	lw	s1,24(sp)
    63d8:	8fb00014 	lw	s0,20(sp)
    63dc:	00002021 	move	a0,zero
    63e0:	2406003c 	li	a2,60
    63e4:	08001956 	j	0x6558
    63e8:	27bd0020 	addiu	sp,sp,32
    63ec:	8fbf001c 	lw	ra,28(sp)
    63f0:	8fb10018 	lw	s1,24(sp)
    63f4:	8fb00014 	lw	s0,20(sp)
    63f8:	03e00008 	jr	ra
    63fc:	27bd0020 	addiu	sp,sp,32
    6400:	27bdffc0 	addiu	sp,sp,-64
    6404:	afb00024 	sw	s0,36(sp)
    6408:	afbf003c 	sw	ra,60(sp)
    640c:	afb50038 	sw	s5,56(sp)
    6410:	afb40034 	sw	s4,52(sp)
    6414:	afb30030 	sw	s3,48(sp)
    6418:	afb2002c 	sw	s2,44(sp)
    641c:	afb10028 	sw	s1,40(sp)
    6420:	9082000d 	lbu	v0,13(a0)
    6424:	00000000 	nop
    6428:	14400005 	bnez	v0,0x6440
    642c:	00808021 	move	s0,a0
    6430:	90820000 	lbu	v0,0(a0)
    6434:	240300ff 	li	v1,255
    6438:	1043001d 	beq	v0,v1,0x64b0
    643c:	00000000 	nop
    6440:	8f828140 	lw	v0,-32448(gp)
    6444:	00000000 	nop
    6448:	1040000f 	beqz	v0,0x6488
    644c:	27848144 	addiu	a0,gp,-32444
    6450:	96050268 	lhu	a1,616(s0)
    6454:	0040f809 	jalr	v0
    6458:	02002021 	move	a0,s0
    645c:	0c001821 	jal	0x6084
    6460:	02002021 	move	a0,s0
    6464:	8fbf003c 	lw	ra,60(sp)
    6468:	8fb50038 	lw	s5,56(sp)
    646c:	8fb40034 	lw	s4,52(sp)
    6470:	8fb30030 	lw	s3,48(sp)
    6474:	8fb2002c 	lw	s2,44(sp)
    6478:	8fb10028 	lw	s1,40(sp)
    647c:	8fb00024 	lw	s0,36(sp)
    6480:	03e00008 	jr	ra
    6484:	27bd0040 	addiu	sp,sp,64
    6488:	27858148 	addiu	a1,gp,-32440
    648c:	0c0017cf 	jal	0x5f3c
    6490:	02003021 	move	a2,s0
    6494:	8f84814c 	lw	a0,-32436(gp)
    6498:	27a50010 	addiu	a1,sp,16
    649c:	24020002 	li	v0,2
    64a0:	0c000554 	jal	0x1550
    64a4:	afa20010 	sw	v0,16(sp)
    64a8:	08001919 	j	0x6464
    64ac:	00000000 	nop
    64b0:	9083001e 	lbu	v1,30(a0)
    64b4:	00000000 	nop
    64b8:	1062ffe1 	beq	v1,v0,0x6440
    64bc:	3c140002 	lui	s4,0x2
    64c0:	00008821 	move	s1,zero
    64c4:	2493001e 	addiu	s3,a0,30
    64c8:	2694dd38 	addiu	s4,s4,-8904
    64cc:	2415000a 	li	s5,10
    64d0:	001110c0 	sll	v0,s1,0x3
    64d4:	00119040 	sll	s2,s1,0x1
    64d8:	02429021 	addu	s2,s2,v0
    64dc:	02929021 	addu	s2,s4,s2
    64e0:	02602021 	move	a0,s3
    64e4:	02402821 	move	a1,s2
    64e8:	0c00091d 	jal	0x2474
    64ec:	24060004 	li	a2,4
    64f0:	1040000b 	beqz	v0,0x6520
    64f4:	26310001 	addiu	s1,s1,1
    64f8:	1635fff6 	bne	s1,s5,0x64d4
    64fc:	001110c0 	sll	v0,s1,0x3
    6500:	92030000 	lbu	v1,0(s0)
    6504:	240200ff 	li	v0,255
    6508:	1462ffcd 	bne	v1,v0,0x6440
    650c:	00000000 	nop
    6510:	0c0018c7 	jal	0x631c
    6514:	02602021 	move	a0,s3
    6518:	08001910 	j	0x6440
    651c:	00000000 	nop
    6520:	26520004 	addiu	s2,s2,4
    6524:	02002021 	move	a0,s0
    6528:	02402821 	move	a1,s2
    652c:	0c0008e8 	jal	0x23a0
    6530:	24060006 	li	a2,6
    6534:	8e040260 	lw	a0,608(s0)
    6538:	00000000 	nop
    653c:	1080fff0 	beqz	a0,0x6500
    6540:	24840030 	addiu	a0,a0,48
    6544:	02402821 	move	a1,s2
    6548:	0c0008e8 	jal	0x23a0
    654c:	24060006 	li	a2,6
    6550:	08001940 	j	0x6500
    6554:	00000000 	nop
    6558:	27bdffc8 	addiu	sp,sp,-56
    655c:	afb20028 	sw	s2,40(sp)
    6560:	afb10024 	sw	s1,36(sp)
    6564:	afb00020 	sw	s0,32(sp)
    6568:	afbf0034 	sw	ra,52(sp)
    656c:	afb40030 	sw	s4,48(sp)
    6570:	afb3002c 	sw	s3,44(sp)
    6574:	90a2000d 	lbu	v0,13(a1)
    6578:	00a08021 	move	s0,a1
    657c:	00c09021 	move	s2,a2
    6580:	00808821 	move	s1,a0
    6584:	1040001b 	beqz	v0,0x65f4
    6588:	a6060268 	sh	a2,616(s0)
    658c:	12200054 	beqz	s1,0x66e0
    6590:	00000000 	nop
    6594:	9202002f 	lbu	v0,47(s0)
    6598:	00000000 	nop
    659c:	30420003 	andi	v0,v0,0x3
    65a0:	14400012 	bnez	v0,0x65ec
    65a4:	00000000 	nop
    65a8:	2652ffca 	addiu	s2,s2,-54
    65ac:	a200026d 	sb	zero,621(s0)
    65b0:	8e22000c 	lw	v0,12(s1)
    65b4:	ae110260 	sw	s1,608(s0)
    65b8:	02429021 	addu	s2,s2,v0
    65bc:	a600026a 	sh	zero,618(s0)
    65c0:	ae120264 	sw	s2,612(s0)
    65c4:	0c001900 	jal	0x6400
    65c8:	02002021 	move	a0,s0
    65cc:	8fbf0034 	lw	ra,52(sp)
    65d0:	8fb40030 	lw	s4,48(sp)
    65d4:	8fb3002c 	lw	s3,44(sp)
    65d8:	8fb20028 	lw	s2,40(sp)
    65dc:	8fb10024 	lw	s1,36(sp)
    65e0:	8fb00020 	lw	s0,32(sp)
    65e4:	03e00008 	jr	ra
    65e8:	27bd0038 	addiu	sp,sp,56
    65ec:	0800196b 	j	0x65ac
    65f0:	24120001 	li	s2,1
    65f4:	24c2fff2 	addiu	v0,a2,-14
    65f8:	00021a03 	sra	v1,v0,0x8
    65fc:	24a40018 	addiu	a0,a1,24
    6600:	a2030010 	sb	v1,16(s0)
    6604:	00002821 	move	a1,zero
    6608:	24060002 	li	a2,2
    660c:	0c00092b 	jal	0x24ac
    6610:	a2020011 	sb	v0,17(s0)
    6614:	3404ffff 	li	a0,0xffff
    6618:	2605000e 	addiu	a1,s0,14
    661c:	0c00173c 	jal	0x5cf0
    6620:	24060014 	li	a2,20
    6624:	92030017 	lbu	v1,23(s0)
    6628:	00022203 	sra	a0,v0,0x8
    662c:	a2020019 	sb	v0,25(s0)
    6630:	24020001 	li	v0,1
    6634:	1062002e 	beq	v1,v0,0x66f0
    6638:	a2040018 	sb	a0,24(s0)
    663c:	24020011 	li	v0,17
    6640:	10620037 	beq	v1,v0,0x6720
    6644:	24020006 	li	v0,6
    6648:	1462ffd0 	bne	v1,v0,0x658c
    664c:	27b40010 	addiu	s4,sp,16
    6650:	02802021 	move	a0,s4
    6654:	2605001a 	addiu	a1,s0,26
    6658:	0c0008e8 	jal	0x23a0
    665c:	24060004 	li	a2,4
    6660:	27a40014 	addiu	a0,sp,20
    6664:	2605001e 	addiu	a1,s0,30
    6668:	0c0008e8 	jal	0x23a0
    666c:	24060004 	li	a2,4
    6670:	92130011 	lbu	s3,17(s0)
    6674:	92020010 	lbu	v0,16(s0)
    6678:	2673ffec 	addiu	s3,s3,-20
    667c:	00021200 	sll	v0,v0,0x8
    6680:	92030017 	lbu	v1,23(s0)
    6684:	02629821 	addu	s3,s3,v0
    6688:	02802821 	move	a1,s4
    668c:	3404ffff 	li	a0,0xffff
    6690:	2406000c 	li	a2,12
    6694:	00131203 	sra	v0,s3,0x8
    6698:	a3a30019 	sb	v1,25(sp)
    669c:	a3a00018 	sb	zero,24(sp)
    66a0:	a3a2001a 	sb	v0,26(sp)
    66a4:	0c00173c 	jal	0x5cf0
    66a8:	a3b3001b 	sb	s3,27(sp)
    66ac:	0040a021 	move	s4,v0
    66b0:	00002821 	move	a1,zero
    66b4:	24060002 	li	a2,2
    66b8:	0c00092b 	jal	0x24ac
    66bc:	26040032 	addiu	a0,s0,50
    66c0:	02802021 	move	a0,s4
    66c4:	26050022 	addiu	a1,s0,34
    66c8:	0c00173c 	jal	0x5cf0
    66cc:	02603021 	move	a2,s3
    66d0:	00021a03 	sra	v1,v0,0x8
    66d4:	a2030032 	sb	v1,50(s0)
    66d8:	1620ffae 	bnez	s1,0x6594
    66dc:	a2020033 	sb	v0,51(s0)
    66e0:	ae000260 	sw	zero,608(s0)
    66e4:	a600026a 	sh	zero,618(s0)
    66e8:	08001971 	j	0x65c4
    66ec:	a200026d 	sb	zero,621(s0)
    66f0:	26040024 	addiu	a0,s0,36
    66f4:	00002821 	move	a1,zero
    66f8:	0c00092b 	jal	0x24ac
    66fc:	24060002 	li	a2,2
    6700:	3404ffff 	li	a0,0xffff
    6704:	26050022 	addiu	a1,s0,34
    6708:	0c00173c 	jal	0x5cf0
    670c:	2646ffde 	addiu	a2,s2,-34
    6710:	00021a03 	sra	v1,v0,0x8
    6714:	a2030024 	sb	v1,36(s0)
    6718:	08001963 	j	0x658c
    671c:	a2020025 	sb	v0,37(s0)
    6720:	2642ffde 	addiu	v0,s2,-34
    6724:	00021a03 	sra	v1,v0,0x8
    6728:	27b30010 	addiu	s3,sp,16
    672c:	a2030026 	sb	v1,38(s0)
    6730:	02602021 	move	a0,s3
    6734:	2605001a 	addiu	a1,s0,26
    6738:	24060004 	li	a2,4
    673c:	0c0008e8 	jal	0x23a0
    6740:	a2020027 	sb	v0,39(s0)
    6744:	27a40014 	addiu	a0,sp,20
    6748:	2605001e 	addiu	a1,s0,30
    674c:	0c0008e8 	jal	0x23a0
    6750:	24060004 	li	a2,4
    6754:	92020017 	lbu	v0,23(s0)
    6758:	27a4001a 	addiu	a0,sp,26
    675c:	26050026 	addiu	a1,s0,38
    6760:	24060002 	li	a2,2
    6764:	a3a00018 	sb	zero,24(sp)
    6768:	0c0008e8 	jal	0x23a0
    676c:	a3a20019 	sb	v0,25(sp)
    6770:	02602821 	move	a1,s3
    6774:	3404ffff 	li	a0,0xffff
    6778:	0c00173c 	jal	0x5cf0
    677c:	2406000c 	li	a2,12
    6780:	26040028 	addiu	a0,s0,40
    6784:	00002821 	move	a1,zero
    6788:	24060002 	li	a2,2
    678c:	0c00092b 	jal	0x24ac
    6790:	00409821 	move	s3,v0
    6794:	92060026 	lbu	a2,38(s0)
    6798:	92020027 	lbu	v0,39(s0)
    679c:	00063200 	sll	a2,a2,0x8
    67a0:	02602021 	move	a0,s3
    67a4:	26050022 	addiu	a1,s0,34
    67a8:	0c00173c 	jal	0x5cf0
    67ac:	00c23021 	addu	a2,a2,v0
    67b0:	00021a03 	sra	v1,v0,0x8
    67b4:	a2030028 	sb	v1,40(s0)
    67b8:	08001963 	j	0x658c
    67bc:	a2020029 	sb	v0,41(s0)
    67c0:	27bdffd8 	addiu	sp,sp,-40
    67c4:	afb30020 	sw	s3,32(sp)
    67c8:	afb10018 	sw	s1,24(sp)
    67cc:	afb00014 	sw	s0,20(sp)
    67d0:	afbf0024 	sw	ra,36(sp)
    67d4:	afb2001c 	sw	s2,28(sp)
    67d8:	90b2002f 	lbu	s2,47(a1)
    67dc:	00808821 	move	s1,a0
    67e0:	00a08021 	move	s0,a1
    67e4:	00a02021 	move	a0,a1
    67e8:	00c09821 	move	s3,a2
    67ec:	26250030 	addiu	a1,s1,48
    67f0:	0c0008e8 	jal	0x23a0
    67f4:	24060026 	li	a2,38
    67f8:	32420002 	andi	v0,s2,0x2
    67fc:	10400032 	beqz	v0,0x68c8
    6800:	a212002f 	sb	s2,47(s0)
    6804:	24020060 	li	v0,96
    6808:	a202002e 	sb	v0,46(s0)
    680c:	9222000c 	lbu	v0,12(s1)
    6810:	00000000 	nop
    6814:	a2020026 	sb	v0,38(s0)
    6818:	9622000c 	lhu	v0,12(s1)
    681c:	00000000 	nop
    6820:	a2020027 	sb	v0,39(s0)
    6824:	8e22000c 	lw	v0,12(s1)
    6828:	00000000 	nop
    682c:	00021202 	srl	v0,v0,0x8
    6830:	a2020028 	sb	v0,40(s0)
    6834:	8e22000c 	lw	v0,12(s1)
    6838:	00000000 	nop
    683c:	a2020029 	sb	v0,41(s0)
    6840:	92220018 	lbu	v0,24(s1)
    6844:	00000000 	nop
    6848:	a202002a 	sb	v0,42(s0)
    684c:	96220018 	lhu	v0,24(s1)
    6850:	00000000 	nop
    6854:	a202002b 	sb	v0,43(s0)
    6858:	8e220018 	lw	v0,24(s1)
    685c:	00000000 	nop
    6860:	00021202 	srl	v0,v0,0x8
    6864:	a202002c 	sb	v0,44(s0)
    6868:	8e220018 	lw	v0,24(s1)
    686c:	00000000 	nop
    6870:	a202002d 	sb	v0,45(s0)
    6874:	8e22001c 	lw	v0,28(s1)
    6878:	8e230018 	lw	v1,24(s1)
    687c:	24421400 	addiu	v0,v0,5120
    6880:	00431023 	subu	v0,v0,v1
    6884:	04400013 	bltz	v0,0x68d4
    6888:	00000000 	nop
    688c:	00021a03 	sra	v1,v0,0x8
    6890:	a2030030 	sb	v1,48(s0)
    6894:	a2020031 	sb	v0,49(s0)
    6898:	a2000034 	sb	zero,52(s0)
    689c:	a2000035 	sb	zero,53(s0)
    68a0:	02202021 	move	a0,s1
    68a4:	02002821 	move	a1,s0
    68a8:	02603021 	move	a2,s3
    68ac:	8fbf0024 	lw	ra,36(sp)
    68b0:	8fb30020 	lw	s3,32(sp)
    68b4:	8fb2001c 	lw	s2,28(sp)
    68b8:	8fb10018 	lw	s1,24(sp)
    68bc:	8fb00014 	lw	s0,20(sp)
    68c0:	08001956 	j	0x6558
    68c4:	27bd0028 	addiu	sp,sp,40
    68c8:	24020050 	li	v0,80
    68cc:	08001a03 	j	0x680c
    68d0:	a202002e 	sb	v0,46(s0)
    68d4:	08001a23 	j	0x688c
    68d8:	00001021 	move	v0,zero
    68dc:	27bdffc8 	addiu	sp,sp,-56
    68e0:	afb30028 	sw	s3,40(sp)
    68e4:	24130001 	li	s3,1
    68e8:	afb20024 	sw	s2,36(sp)
    68ec:	afb10020 	sw	s1,32(sp)
    68f0:	afb0001c 	sw	s0,28(sp)
    68f4:	afbf0034 	sw	ra,52(sp)
    68f8:	afb50030 	sw	s5,48(sp)
    68fc:	afb4002c 	sw	s4,44(sp)
    6900:	00c09021 	move	s2,a2
    6904:	00808021 	move	s0,a0
    6908:	10d30074 	beq	a2,s3,0x6adc
    690c:	00a08821 	move	s1,a1
    6910:	24020002 	li	v0,2
    6914:	10c2000a 	beq	a2,v0,0x6940
    6918:	00000000 	nop
    691c:	8fbf0034 	lw	ra,52(sp)
    6920:	8fb50030 	lw	s5,48(sp)
    6924:	8fb4002c 	lw	s4,44(sp)
    6928:	8fb30028 	lw	s3,40(sp)
    692c:	8fb20024 	lw	s2,36(sp)
    6930:	8fb10020 	lw	s1,32(sp)
    6934:	8fb0001c 	lw	s0,28(sp)
    6938:	03e00008 	jr	ra
    693c:	27bd0038 	addiu	sp,sp,56
    6940:	24840046 	addiu	a0,a0,70
    6944:	2785807c 	addiu	a1,gp,-32644
    6948:	0c00091d 	jal	0x2474
    694c:	24060006 	li	a2,6
    6950:	1440fff2 	bnez	v0,0x691c
    6954:	00000000 	nop
    6958:	9202011c 	lbu	v0,284(s0)
    695c:	00000000 	nop
    6960:	10520084 	beq	v0,s2,0x6b74
    6964:	24030005 	li	v1,5
    6968:	1443ffec 	bne	v0,v1,0x691c
    696c:	24020003 	li	v0,3
    6970:	8f83813c 	lw	v1,-32452(gp)
    6974:	00000000 	nop
    6978:	1462ffe8 	bne	v1,v0,0x691c
    697c:	24060004 	li	a2,4
    6980:	27848084 	addiu	a0,gp,-32636
    6984:	2605003a 	addiu	a1,s0,58
    6988:	24023840 	li	v0,14400
    698c:	af80813c 	sw	zero,-32452(gp)
    6990:	0c0008e8 	jal	0x23a0
    6994:	af82811c 	sw	v0,-32484(gp)
    6998:	93828087 	lbu	v0,-32633(gp)
    699c:	93858084 	lbu	a1,-32636(gp)
    69a0:	93868085 	lbu	a2,-32635(gp)
    69a4:	93878086 	lbu	a3,-32634(gp)
    69a8:	3c040001 	lui	a0,0x1
    69ac:	2484cddc 	addiu	a0,a0,-12836
    69b0:	0c000d18 	jal	0x3460
    69b4:	afa20010 	sw	v0,16(sp)
    69b8:	26050042 	addiu	a1,s0,66
    69bc:	27848138 	addiu	a0,gp,-32456
    69c0:	0c0008e8 	jal	0x23a0
    69c4:	24060004 	li	a2,4
    69c8:	93858138 	lbu	a1,-32456(gp)
    69cc:	00000000 	nop
    69d0:	14a000be 	bnez	a1,0x6ccc
    69d4:	00000000 	nop
    69d8:	93868139 	lbu	a2,-32455(gp)
    69dc:	00000000 	nop
    69e0:	14c000bb 	bnez	a2,0x6cd0
    69e4:	00000000 	nop
    69e8:	9387813a 	lbu	a3,-32454(gp)
    69ec:	00000000 	nop
    69f0:	14e000bb 	bnez	a3,0x6ce0
    69f4:	00000000 	nop
    69f8:	9382813b 	lbu	v0,-32453(gp)
    69fc:	00000000 	nop
    6a00:	104000ae 	beqz	v0,0x6cbc
    6a04:	2605003e 	addiu	a1,s0,62
    6a08:	00003021 	move	a2,zero
    6a0c:	00002821 	move	a1,zero
    6a10:	3c040001 	lui	a0,0x1
    6a14:	2484cdec 	addiu	a0,a0,-12820
    6a18:	0c000d18 	jal	0x3460
    6a1c:	afa20010 	sw	v0,16(sp)
    6a20:	27848088 	addiu	a0,gp,-32632
    6a24:	26050006 	addiu	a1,s0,6
    6a28:	0c0008e8 	jal	0x23a0
    6a2c:	24060006 	li	a2,6
    6a30:	9202011a 	lbu	v0,282(s0)
    6a34:	240300ff 	li	v1,255
    6a38:	10430014 	beq	v0,v1,0x6a8c
    6a3c:	2612011a 	addiu	s2,s0,282
    6a40:	2403011a 	li	v1,282
    6a44:	0071182a 	slt	v1,v1,s1
    6a48:	10600010 	beqz	v1,0x6a8c
    6a4c:	3c150001 	lui	s5,0x1
    6a50:	24140006 	li	s4,6
    6a54:	26b5cdfc 	addiu	s5,s5,-12804
    6a58:	241300ff 	li	s3,255
    6a5c:	10540087 	beq	v0,s4,0x6c7c
    6a60:	00000000 	nop
    6a64:	92420001 	lbu	v0,1(s2)
    6a68:	00000000 	nop
    6a6c:	24420002 	addiu	v0,v0,2
    6a70:	02429021 	addu	s2,s2,v0
    6a74:	92420000 	lbu	v0,0(s2)
    6a78:	02501823 	subu	v1,s2,s0
    6a7c:	10530003 	beq	v0,s3,0x6a8c
    6a80:	0071182a 	slt	v1,v1,s1
    6a84:	1460fff5 	bnez	v1,0x6a5c
    6a88:	00000000 	nop
    6a8c:	2604001a 	addiu	a0,s0,26
    6a90:	27858138 	addiu	a1,gp,-32456
    6a94:	0c00091d 	jal	0x2474
    6a98:	24060004 	li	a2,4
    6a9c:	1040ff9f 	beqz	v0,0x691c
    6aa0:	00000000 	nop
    6aa4:	27848088 	addiu	a0,gp,-32632
    6aa8:	240500ff 	li	a1,255
    6aac:	0c00092b 	jal	0x24ac
    6ab0:	24060006 	li	a2,6
    6ab4:	8fbf0034 	lw	ra,52(sp)
    6ab8:	8fb50030 	lw	s5,48(sp)
    6abc:	8fb4002c 	lw	s4,44(sp)
    6ac0:	8fb30028 	lw	s3,40(sp)
    6ac4:	8fb20024 	lw	s2,36(sp)
    6ac8:	8fb10020 	lw	s1,32(sp)
    6acc:	8fb0001c 	lw	s0,28(sp)
    6ad0:	27848138 	addiu	a0,gp,-32456
    6ad4:	080018c7 	j	0x631c
    6ad8:	27bd0038 	addiu	sp,sp,56
    6adc:	0c001896 	jal	0x6258
    6ae0:	00002021 	move	a0,zero
    6ae4:	1040ff8d 	beqz	v0,0x691c
    6ae8:	00408021 	move	s0,v0
    6aec:	00002821 	move	a1,zero
    6af0:	24060200 	li	a2,512
    6af4:	0c00092b 	jal	0x24ac
    6af8:	00402021 	move	a0,v0
    6afc:	3c050001 	lui	a1,0x1
    6b00:	02002021 	move	a0,s0
    6b04:	24a5ce74 	addiu	a1,a1,-12684
    6b08:	0c0008e8 	jal	0x23a0
    6b0c:	24060032 	li	a2,50
    6b10:	26040006 	addiu	a0,s0,6
    6b14:	2785807c 	addiu	a1,gp,-32644
    6b18:	0c0008e8 	jal	0x23a0
    6b1c:	24060006 	li	a2,6
    6b20:	26040046 	addiu	a0,s0,70
    6b24:	2785807c 	addiu	a1,gp,-32644
    6b28:	0c0008e8 	jal	0x23a0
    6b2c:	24060006 	li	a2,6
    6b30:	3c050001 	lui	a1,0x1
    6b34:	26040116 	addiu	a0,s0,278
    6b38:	24a5d5fc 	addiu	a1,a1,-10756
    6b3c:	0c0008e8 	jal	0x23a0
    6b40:	2406001e 	li	a2,30
    6b44:	26040120 	addiu	a0,s0,288
    6b48:	2785807c 	addiu	a1,gp,-32644
    6b4c:	0c0008e8 	jal	0x23a0
    6b50:	24060006 	li	a2,6
    6b54:	00002021 	move	a0,zero
    6b58:	02002821 	move	a1,s0
    6b5c:	0c001956 	jal	0x6558
    6b60:	24060190 	li	a2,400
    6b64:	24020002 	li	v0,2
    6b68:	af92813c 	sw	s2,-32452(gp)
    6b6c:	08001a47 	j	0x691c
    6b70:	af82811c 	sw	v0,-32484(gp)
    6b74:	8f82813c 	lw	v0,-32452(gp)
    6b78:	00000000 	nop
    6b7c:	1453ff67 	bne	v0,s3,0x691c
    6b80:	00000000 	nop
    6b84:	0c001896 	jal	0x6258
    6b88:	00002021 	move	a0,zero
    6b8c:	1040ff63 	beqz	v0,0x691c
    6b90:	00408821 	move	s1,v0
    6b94:	00002821 	move	a1,zero
    6b98:	24060200 	li	a2,512
    6b9c:	0c00092b 	jal	0x24ac
    6ba0:	00402021 	move	a0,v0
    6ba4:	3c050001 	lui	a1,0x1
    6ba8:	02202021 	move	a0,s1
    6bac:	24a5ce74 	addiu	a1,a1,-12684
    6bb0:	0c0008e8 	jal	0x23a0
    6bb4:	24060032 	li	a2,50
    6bb8:	26240006 	addiu	a0,s1,6
    6bbc:	2785807c 	addiu	a1,gp,-32644
    6bc0:	0c0008e8 	jal	0x23a0
    6bc4:	24060006 	li	a2,6
    6bc8:	26240046 	addiu	a0,s1,70
    6bcc:	2785807c 	addiu	a1,gp,-32644
    6bd0:	0c0008e8 	jal	0x23a0
    6bd4:	24060006 	li	a2,6
    6bd8:	3c050001 	lui	a1,0x1
    6bdc:	26240116 	addiu	a0,s1,278
    6be0:	24a5d5fc 	addiu	a1,a1,-10756
    6be4:	0c0008e8 	jal	0x23a0
    6be8:	2406001e 	li	a2,30
    6bec:	26240120 	addiu	a0,s1,288
    6bf0:	2785807c 	addiu	a1,gp,-32644
    6bf4:	0c0008e8 	jal	0x23a0
    6bf8:	24060006 	li	a2,6
    6bfc:	24120004 	li	s2,4
    6c00:	24020003 	li	v0,3
    6c04:	24030032 	li	v1,50
    6c08:	26240135 	addiu	a0,s1,309
    6c0c:	2605003a 	addiu	a1,s0,58
    6c10:	a2230133 	sb	v1,307(s1)
    6c14:	a2320134 	sb	s2,308(s1)
    6c18:	24060004 	li	a2,4
    6c1c:	a222011c 	sb	v0,284(s1)
    6c20:	0c0008e8 	jal	0x23a0
    6c24:	af82813c 	sw	v0,-32452(gp)
    6c28:	24020036 	li	v0,54
    6c2c:	2624013b 	addiu	a0,s1,315
    6c30:	2605003e 	addiu	a1,s0,62
    6c34:	a232013a 	sb	s2,314(s1)
    6c38:	24060004 	li	a2,4
    6c3c:	0c0008e8 	jal	0x23a0
    6c40:	a2220139 	sb	v0,313(s1)
    6c44:	2402ffff 	li	v0,-1
    6c48:	a222013f 	sb	v0,319(s1)
    6c4c:	02202821 	move	a1,s1
    6c50:	8fbf0034 	lw	ra,52(sp)
    6c54:	8fb50030 	lw	s5,48(sp)
    6c58:	8fb4002c 	lw	s4,44(sp)
    6c5c:	8fb30028 	lw	s3,40(sp)
    6c60:	8fb20024 	lw	s2,36(sp)
    6c64:	8fb10020 	lw	s1,32(sp)
    6c68:	8fb0001c 	lw	s0,28(sp)
    6c6c:	00002021 	move	a0,zero
    6c70:	24060190 	li	a2,400
    6c74:	08001956 	j	0x6558
    6c78:	27bd0038 	addiu	sp,sp,56
    6c7c:	92450002 	lbu	a1,2(s2)
    6c80:	92460003 	lbu	a2,3(s2)
    6c84:	92470004 	lbu	a3,4(s2)
    6c88:	92420005 	lbu	v0,5(s2)
    6c8c:	00061c00 	sll	v1,a2,0x10
    6c90:	00052600 	sll	a0,a1,0x18
    6c94:	00832025 	or	a0,a0,v1
    6c98:	00822025 	or	a0,a0,v0
    6c9c:	00071a00 	sll	v1,a3,0x8
    6ca0:	00831825 	or	v1,a0,v1
    6ca4:	02a02021 	move	a0,s5
    6ca8:	af838110 	sw	v1,-32496(gp)
    6cac:	0c000d18 	jal	0x3460
    6cb0:	afa20010 	sw	v0,16(sp)
    6cb4:	08001a99 	j	0x6a64
    6cb8:	00000000 	nop
    6cbc:	27848138 	addiu	a0,gp,-32456
    6cc0:	0c0008e8 	jal	0x23a0
    6cc4:	24060004 	li	a2,4
    6cc8:	93858138 	lbu	a1,-32456(gp)
    6ccc:	93868139 	lbu	a2,-32455(gp)
    6cd0:	9387813a 	lbu	a3,-32454(gp)
    6cd4:	9382813b 	lbu	v0,-32453(gp)
    6cd8:	08001a85 	j	0x6a14
    6cdc:	3c040001 	lui	a0,0x1
    6ce0:	9382813b 	lbu	v0,-32453(gp)
    6ce4:	08001a84 	j	0x6a10
    6ce8:	00c02821 	move	a1,a2
    6cec:	08001896 	j	0x6258
    6cf0:	24040005 	li	a0,5
    6cf4:	93858084 	lbu	a1,-32636(gp)
    6cf8:	93828085 	lbu	v0,-32635(gp)
    6cfc:	00052e00 	sll	a1,a1,0x18
    6d00:	93848087 	lbu	a0,-32633(gp)
    6d04:	93838086 	lbu	v1,-32634(gp)
    6d08:	00021400 	sll	v0,v0,0x10
    6d0c:	00a21025 	or	v0,a1,v0
    6d10:	00441025 	or	v0,v0,a0
    6d14:	00031a00 	sll	v1,v1,0x8
    6d18:	03e00008 	jr	ra
    6d1c:	00431025 	or	v0,v0,v1
    6d20:	27bdffa8 	addiu	sp,sp,-88
    6d24:	afb10034 	sw	s1,52(sp)
    6d28:	afbf0054 	sw	ra,84(sp)
    6d2c:	afbe0050 	sw	s8,80(sp)
    6d30:	afb7004c 	sw	s7,76(sp)
    6d34:	afb60048 	sw	s6,72(sp)
    6d38:	afb50044 	sw	s5,68(sp)
    6d3c:	afb40040 	sw	s4,64(sp)
    6d40:	afb3003c 	sw	s3,60(sp)
    6d44:	afb20038 	sw	s2,56(sp)
    6d48:	afb00030 	sw	s0,48(sp)
    6d4c:	9082000c 	lbu	v0,12(a0)
    6d50:	30a5ffff 	andi	a1,a1,0xffff
    6d54:	24030008 	li	v1,8
    6d58:	00808821 	move	s1,a0
    6d5c:	1043000f 	beq	v0,v1,0x6d9c
    6d60:	a4850268 	sh	a1,616(a0)
    6d64:	00008021 	move	s0,zero
    6d68:	8fbf0054 	lw	ra,84(sp)
    6d6c:	02001021 	move	v0,s0
    6d70:	8fbe0050 	lw	s8,80(sp)
    6d74:	8fb7004c 	lw	s7,76(sp)
    6d78:	8fb60048 	lw	s6,72(sp)
    6d7c:	8fb50044 	lw	s5,68(sp)
    6d80:	8fb40040 	lw	s4,64(sp)
    6d84:	8fb3003c 	lw	s3,60(sp)
    6d88:	8fb20038 	lw	s2,56(sp)
    6d8c:	8fb10034 	lw	s1,52(sp)
    6d90:	8fb00030 	lw	s0,48(sp)
    6d94:	03e00008 	jr	ra
    6d98:	27bd0058 	addiu	sp,sp,88
    6d9c:	2ca20259 	sltiu	v0,a1,601
    6da0:	1040fff0 	beqz	v0,0x6d64
    6da4:	24030006 	li	v1,6
    6da8:	9082000d 	lbu	v0,13(a0)
    6dac:	00000000 	nop
    6db0:	1043005c 	beq	v0,v1,0x6f24
    6db4:	2ca3002a 	sltiu	v1,a1,42
    6db8:	90860010 	lbu	a2,16(a0)
    6dbc:	90840011 	lbu	a0,17(a0)
    6dc0:	1460ffe8 	bnez	v1,0x6d64
    6dc4:	00063200 	sll	a2,a2,0x8
    6dc8:	00c42025 	or	a0,a2,a0
    6dcc:	24a3fff3 	addiu	v1,a1,-13
    6dd0:	0083202a 	slt	a0,a0,v1
    6dd4:	1080ffe4 	beqz	a0,0x6d68
    6dd8:	00008021 	move	s0,zero
    6ddc:	1440ffe2 	bnez	v0,0x6d68
    6de0:	24020045 	li	v0,69
    6de4:	9223000e 	lbu	v1,14(s1)
    6de8:	00000000 	nop
    6dec:	1462ffde 	bne	v1,v0,0x6d68
    6df0:	24020011 	li	v0,17
    6df4:	92230017 	lbu	v1,23(s1)
    6df8:	00000000 	nop
    6dfc:	14620009 	bne	v1,v0,0x6e24
    6e00:	02202021 	move	a0,s1
    6e04:	92220022 	lbu	v0,34(s1)
    6e08:	00000000 	nop
    6e0c:	14400005 	bnez	v0,0x6e24
    6e10:	00000000 	nop
    6e14:	92230023 	lbu	v1,35(s1)
    6e18:	24020043 	li	v0,67
    6e1c:	106200a9 	beq	v1,v0,0x70c4
    6e20:	00000000 	nop
    6e24:	2785807c 	addiu	a1,gp,-32644
    6e28:	0c00091d 	jal	0x2474
    6e2c:	24060006 	li	a2,6
    6e30:	1440ffcd 	bnez	v0,0x6d68
    6e34:	00008021 	move	s0,zero
    6e38:	2630001e 	addiu	s0,s1,30
    6e3c:	02002021 	move	a0,s0
    6e40:	27858084 	addiu	a1,gp,-32636
    6e44:	0c00091d 	jal	0x2474
    6e48:	24060004 	li	a2,4
    6e4c:	1440ffc5 	bnez	v0,0x6d64
    6e50:	00000000 	nop
    6e54:	9222000d 	lbu	v0,13(s1)
    6e58:	96320268 	lhu	s2,616(s1)
    6e5c:	1040028b 	beqz	v0,0x788c
    6e60:	3404ffff 	li	a0,0xffff
    6e64:	92220017 	lbu	v0,23(s1)
    6e68:	24030001 	li	v1,1
    6e6c:	104300a1 	beq	v0,v1,0x70f4
    6e70:	24030006 	li	v1,6
    6e74:	104300f0 	beq	v0,v1,0x7238
    6e78:	24030011 	li	v1,17
    6e7c:	1443ffba 	bne	v0,v1,0x6d68
    6e80:	00008021 	move	s0,zero
    6e84:	8f90812c 	lw	s0,-32468(gp)
    6e88:	00000000 	nop
    6e8c:	1200ffb5 	beqz	s0,0x6d64
    6e90:	2633001a 	addiu	s3,s1,26
    6e94:	08001bac 	j	0x6eb0
    6e98:	26320022 	addiu	s2,s1,34
    6e9c:	8e100000 	lw	s0,0(s0)
    6ea0:	00000000 	nop
    6ea4:	120000c6 	beqz	s0,0x71c0
    6ea8:	00000000 	nop
    6eac:	92220017 	lbu	v0,23(s1)
    6eb0:	9203006d 	lbu	v1,109(s0)
    6eb4:	00000000 	nop
    6eb8:	1443fff8 	bne	v0,v1,0x6e9c
    6ebc:	26050070 	addiu	a1,s0,112
    6ec0:	02602021 	move	a0,s3
    6ec4:	0c00091d 	jal	0x2474
    6ec8:	24060008 	li	a2,8
    6ecc:	1440fff3 	bnez	v0,0x6e9c
    6ed0:	26050078 	addiu	a1,s0,120
    6ed4:	02402021 	move	a0,s2
    6ed8:	0c00091d 	jal	0x2474
    6edc:	24060002 	li	a2,2
    6ee0:	1440ffee 	bnez	v0,0x6e9c
    6ee4:	00000000 	nop
    6ee8:	8f828078 	lw	v0,-32648(gp)
    6eec:	00000000 	nop
    6ef0:	144000cc 	bnez	v0,0x7224
    6ef4:	00000000 	nop
    6ef8:	2604007c 	addiu	a0,s0,124
    6efc:	26050080 	addiu	a1,s0,128
    6f00:	0c0017cf 	jal	0x5f3c
    6f04:	02203021 	move	a2,s1
    6f08:	8e040098 	lw	a0,152(s0)
    6f0c:	02002821 	move	a1,s0
    6f10:	00003021 	move	a2,zero
    6f14:	0c0005e9 	jal	0x17a4
    6f18:	00003821 	move	a3,zero
    6f1c:	08001b5a 	j	0x6d68
    6f20:	24100001 	li	s0,1
    6f24:	2785807c 	addiu	a1,gp,-32644
    6f28:	0c00091d 	jal	0x2474
    6f2c:	24060006 	li	a2,6
    6f30:	14400005 	bnez	v0,0x6f48
    6f34:	24020002 	li	v0,2
    6f38:	92230015 	lbu	v1,21(s1)
    6f3c:	00000000 	nop
    6f40:	10620038 	beq	v1,v0,0x7024
    6f44:	3c120002 	lui	s2,0x2
    6f48:	92220014 	lbu	v0,20(s1)
    6f4c:	00000000 	nop
    6f50:	1440ff84 	bnez	v0,0x6d64
    6f54:	24020001 	li	v0,1
    6f58:	92230015 	lbu	v1,21(s1)
    6f5c:	00000000 	nop
    6f60:	1462ff81 	bne	v1,v0,0x6d68
    6f64:	00008021 	move	s0,zero
    6f68:	26320026 	addiu	s2,s1,38
    6f6c:	02402021 	move	a0,s2
    6f70:	27858084 	addiu	a1,gp,-32636
    6f74:	0c00091d 	jal	0x2474
    6f78:	24060004 	li	a2,4
    6f7c:	1440ff79 	bnez	v0,0x6d64
    6f80:	00000000 	nop
    6f84:	0c001896 	jal	0x6258
    6f88:	00002021 	move	a0,zero
    6f8c:	1040ff75 	beqz	v0,0x6d64
    6f90:	00408021 	move	s0,v0
    6f94:	96260268 	lhu	a2,616(s1)
    6f98:	02202821 	move	a1,s1
    6f9c:	0c0008e8 	jal	0x23a0
    6fa0:	00402021 	move	a0,v0
    6fa4:	02002021 	move	a0,s0
    6fa8:	26250006 	addiu	a1,s1,6
    6fac:	0c0008e8 	jal	0x23a0
    6fb0:	24060006 	li	a2,6
    6fb4:	26040006 	addiu	a0,s0,6
    6fb8:	2785807c 	addiu	a1,gp,-32644
    6fbc:	0c0008e8 	jal	0x23a0
    6fc0:	24060006 	li	a2,6
    6fc4:	24020002 	li	v0,2
    6fc8:	26040016 	addiu	a0,s0,22
    6fcc:	2785807c 	addiu	a1,gp,-32644
    6fd0:	24060006 	li	a2,6
    6fd4:	0c0008e8 	jal	0x23a0
    6fd8:	a2020015 	sb	v0,21(s0)
    6fdc:	2604001c 	addiu	a0,s0,28
    6fe0:	02402821 	move	a1,s2
    6fe4:	0c0008e8 	jal	0x23a0
    6fe8:	24060004 	li	a2,4
    6fec:	26040020 	addiu	a0,s0,32
    6ff0:	26250016 	addiu	a1,s1,22
    6ff4:	0c0008e8 	jal	0x23a0
    6ff8:	24060006 	li	a2,6
    6ffc:	26040026 	addiu	a0,s0,38
    7000:	2625001c 	addiu	a1,s1,28
    7004:	0c0008e8 	jal	0x23a0
    7008:	24060004 	li	a2,4
    700c:	96260268 	lhu	a2,616(s1)
    7010:	02002821 	move	a1,s0
    7014:	0c001956 	jal	0x6558
    7018:	00002021 	move	a0,zero
    701c:	08001b5a 	j	0x6d68
    7020:	00008021 	move	s0,zero
    7024:	8f828158 	lw	v0,-32424(gp)
    7028:	00000000 	nop
    702c:	00022040 	sll	a0,v0,0x1
    7030:	000210c0 	sll	v0,v0,0x3
    7034:	2652dd38 	addiu	s2,s2,-8904
    7038:	00822021 	addu	a0,a0,v0
    703c:	2630001c 	addiu	s0,s1,28
    7040:	02442021 	addu	a0,s2,a0
    7044:	02002821 	move	a1,s0
    7048:	0c0008e8 	jal	0x23a0
    704c:	24060004 	li	a2,4
    7050:	8f828158 	lw	v0,-32424(gp)
    7054:	26310016 	addiu	s1,s1,22
    7058:	00022040 	sll	a0,v0,0x1
    705c:	000210c0 	sll	v0,v0,0x3
    7060:	00822021 	addu	a0,a0,v0
    7064:	02442021 	addu	a0,s2,a0
    7068:	24840004 	addiu	a0,a0,4
    706c:	02202821 	move	a1,s1
    7070:	0c0008e8 	jal	0x23a0
    7074:	24060006 	li	a2,6
    7078:	8f828158 	lw	v0,-32424(gp)
    707c:	00000000 	nop
    7080:	24420001 	addiu	v0,v0,1
    7084:	2c43000a 	sltiu	v1,v0,10
    7088:	14600002 	bnez	v1,0x7094
    708c:	af828158 	sw	v0,-32424(gp)
    7090:	af808158 	sw	zero,-32424(gp)
    7094:	02002021 	move	a0,s0
    7098:	27858138 	addiu	a1,gp,-32456
    709c:	0c00091d 	jal	0x2474
    70a0:	24060004 	li	a2,4
    70a4:	1440ff2f 	bnez	v0,0x6d64
    70a8:	00000000 	nop
    70ac:	27848088 	addiu	a0,gp,-32632
    70b0:	02202821 	move	a1,s1
    70b4:	0c0008e8 	jal	0x23a0
    70b8:	24060006 	li	a2,6
    70bc:	08001b5a 	j	0x6d68
    70c0:	00008021 	move	s0,zero
    70c4:	92220024 	lbu	v0,36(s1)
    70c8:	00000000 	nop
    70cc:	1440ff55 	bnez	v0,0x6e24
    70d0:	02202021 	move	a0,s1
    70d4:	92230025 	lbu	v1,37(s1)
    70d8:	24020044 	li	v0,68
    70dc:	1462ff51 	bne	v1,v0,0x6e24
    70e0:	00000000 	nop
    70e4:	0c001a37 	jal	0x68dc
    70e8:	24060002 	li	a2,2
    70ec:	08001b5a 	j	0x6d68
    70f0:	00008021 	move	s0,zero
    70f4:	92220022 	lbu	v0,34(s1)
    70f8:	00000000 	nop
    70fc:	1440001d 	bnez	v0,0x7174
    7100:	24030008 	li	v1,8
    7104:	8f90812c 	lw	s0,-32468(gp)
    7108:	00000000 	nop
    710c:	12000019 	beqz	s0,0x7174
    7110:	24120001 	li	s2,1
    7114:	08001c4b 	j	0x712c
    7118:	2633001a 	addiu	s3,s1,26
    711c:	8e100000 	lw	s0,0(s0)
    7120:	00000000 	nop
    7124:	12000011 	beqz	s0,0x716c
    7128:	24030008 	li	v1,8
    712c:	8e020008 	lw	v0,8(s0)
    7130:	00000000 	nop
    7134:	1452fff9 	bne	v0,s2,0x711c
    7138:	2605004e 	addiu	a1,s0,78
    713c:	02602021 	move	a0,s3
    7140:	0c00091d 	jal	0x2474
    7144:	24060004 	li	a2,4
    7148:	1440fff4 	bnez	v0,0x711c
    714c:	00000000 	nop
    7150:	8e040098 	lw	a0,152(s0)
    7154:	02002821 	move	a1,s0
    7158:	00003021 	move	a2,zero
    715c:	0c0005e9 	jal	0x17a4
    7160:	00003821 	move	a3,zero
    7164:	08001b5a 	j	0x6d68
    7168:	00008021 	move	s0,zero
    716c:	92220022 	lbu	v0,34(s1)
    7170:	00000000 	nop
    7174:	1443fefc 	bne	v0,v1,0x6d68
    7178:	00008021 	move	s0,zero
    717c:	0c001896 	jal	0x6258
    7180:	2404000a 	li	a0,10
    7184:	1040fef7 	beqz	v0,0x6d64
    7188:	00000000 	nop
    718c:	96260268 	lhu	a2,616(s1)
    7190:	00402021 	move	a0,v0
    7194:	02202821 	move	a1,s1
    7198:	0c001761 	jal	0x5d84
    719c:	afa20028 	sw	v0,40(sp)
    71a0:	8fa20028 	lw	v0,40(sp)
    71a4:	96260268 	lhu	a2,616(s1)
    71a8:	a0400022 	sb	zero,34(v0)
    71ac:	00002021 	move	a0,zero
    71b0:	0c001956 	jal	0x6558
    71b4:	00402821 	move	a1,v0
    71b8:	08001b5a 	j	0x6d68
    71bc:	00008021 	move	s0,zero
    71c0:	8f90812c 	lw	s0,-32468(gp)
    71c4:	00000000 	nop
    71c8:	1200fee7 	beqz	s0,0x6d68
    71cc:	26320024 	addiu	s2,s1,36
    71d0:	08001c7a 	j	0x71e8
    71d4:	00000000 	nop
    71d8:	8e100000 	lw	s0,0(s0)
    71dc:	00000000 	nop
    71e0:	1200fee1 	beqz	s0,0x6d68
    71e4:	00000000 	nop
    71e8:	9202006d 	lbu	v0,109(s0)
    71ec:	92230017 	lbu	v1,23(s1)
    71f0:	00000000 	nop
    71f4:	1462fff8 	bne	v1,v0,0x71d8
    71f8:	2605007a 	addiu	a1,s0,122
    71fc:	02402021 	move	a0,s2
    7200:	0c00091d 	jal	0x2474
    7204:	24060002 	li	a2,2
    7208:	1440fff3 	bnez	v0,0x71d8
    720c:	26040030 	addiu	a0,s0,48
    7210:	02202821 	move	a1,s1
    7214:	0c001761 	jal	0x5d84
    7218:	2406002a 	li	a2,42
    721c:	08001bba 	j	0x6ee8
    7220:	00000000 	nop
    7224:	3c040001 	lui	a0,0x1
    7228:	0c000d18 	jal	0x3460
    722c:	2484ce30 	addiu	a0,a0,-12752
    7230:	08001bbf 	j	0x6efc
    7234:	2604007c 	addiu	a0,s0,124
    7238:	92330026 	lbu	s3,38(s1)
    723c:	92260027 	lbu	a2,39(s1)
    7240:	92250029 	lbu	a1,41(s1)
    7244:	00139e00 	sll	s3,s3,0x18
    7248:	00063400 	sll	a2,a2,0x10
    724c:	92230028 	lbu	v1,40(s1)
    7250:	9224002f 	lbu	a0,47(s1)
    7254:	02669825 	or	s3,s3,a2
    7258:	02659825 	or	s3,s3,a1
    725c:	00031a00 	sll	v1,v1,0x8
    7260:	96250268 	lhu	a1,616(s1)
    7264:	02639825 	or	s3,s3,v1
    7268:	30840012 	andi	a0,a0,0x12
    726c:	24030002 	li	v1,2
    7270:	afa50020 	sw	a1,32(sp)
    7274:	923e0010 	lbu	s8,16(s1)
    7278:	92370011 	lbu	s7,17(s1)
    727c:	9236002a 	lbu	s6,42(s1)
    7280:	9235002b 	lbu	s5,43(s1)
    7284:	9230002c 	lbu	s0,44(s1)
    7288:	9234002d 	lbu	s4,45(s1)
    728c:	10830126 	beq	a0,v1,0x7728
    7290:	00000000 	nop
    7294:	8f92812c 	lw	s2,-32468(gp)
    7298:	00000000 	nop
    729c:	1240feb1 	beqz	s2,0x6d64
    72a0:	2623001a 	addiu	v1,s1,26
    72a4:	26250022 	addiu	a1,s1,34
    72a8:	afa30020 	sw	v1,32(sp)
    72ac:	08001cb2 	j	0x72c8
    72b0:	afa50024 	sw	a1,36(sp)
    72b4:	8e520000 	lw	s2,0(s2)
    72b8:	00000000 	nop
    72bc:	1240fea9 	beqz	s2,0x6d64
    72c0:	00000000 	nop
    72c4:	92220017 	lbu	v0,23(s1)
    72c8:	9243006d 	lbu	v1,109(s2)
    72cc:	00000000 	nop
    72d0:	1443fff8 	bne	v0,v1,0x72b4
    72d4:	26450070 	addiu	a1,s2,112
    72d8:	8fa40020 	lw	a0,32(sp)
    72dc:	0c00091d 	jal	0x2474
    72e0:	24060008 	li	a2,8
    72e4:	1440fff3 	bnez	v0,0x72b4
    72e8:	26450078 	addiu	a1,s2,120
    72ec:	8fa40024 	lw	a0,36(sp)
    72f0:	0c00091d 	jal	0x2474
    72f4:	24060004 	li	a2,4
    72f8:	1440ffee 	bnez	v0,0x72b4
    72fc:	00000000 	nop
    7300:	92220030 	lbu	v0,48(s1)
    7304:	92230031 	lbu	v1,49(s1)
    7308:	00021200 	sll	v0,v0,0x8
    730c:	00431025 	or	v0,v0,v1
    7310:	ae420014 	sw	v0,20(s2)
    7314:	9222002f 	lbu	v0,47(s1)
    7318:	001ef200 	sll	s8,s8,0x8
    731c:	03d7b825 	or	s7,s8,s7
    7320:	30430010 	andi	v1,v0,0x10
    7324:	1060001e 	beqz	v1,0x73a0
    7328:	26feffd8 	addiu	s8,s7,-40
    732c:	0016b600 	sll	s6,s6,0x18
    7330:	0015ac00 	sll	s5,s5,0x10
    7334:	02d5a825 	or	s5,s6,s5
    7338:	02b4a025 	or	s4,s5,s4
    733c:	00108200 	sll	s0,s0,0x8
    7340:	8e430010 	lw	v1,16(s2)
    7344:	02908025 	or	s0,s4,s0
    7348:	12030026 	beq	s0,v1,0x73e4
    734c:	00000000 	nop
    7350:	8f848120 	lw	a0,-32480(gp)
    7354:	0c0004b2 	jal	0x12c8
    7358:	00000000 	nop
    735c:	8f958124 	lw	s5,-32476(gp)
    7360:	00000000 	nop
    7364:	12a000e8 	beqz	s5,0x7708
    7368:	00000000 	nop
    736c:	8ea20260 	lw	v0,608(s5)
    7370:	8eb40258 	lw	s4,600(s5)
    7374:	124200d1 	beq	s2,v0,0x76bc
    7378:	02a03021 	move	a2,s5
    737c:	08001cd9 	j	0x7364
    7380:	0280a821 	move	s5,s4
    7384:	8f848120 	lw	a0,-32480(gp)
    7388:	0c0004d8 	jal	0x1360
    738c:	00000000 	nop
    7390:	24020001 	li	v0,1
    7394:	ae420028 	sw	v0,40(s2)
    7398:	9222002f 	lbu	v0,47(s1)
    739c:	00000000 	nop
    73a0:	30440012 	andi	a0,v0,0x12
    73a4:	24030012 	li	v1,18
    73a8:	108300af 	beq	a0,v1,0x7668
    73ac:	24030050 	li	v1,80
    73b0:	9224002e 	lbu	a0,46(s1)
    73b4:	00000000 	nop
    73b8:	1083002b 	beq	a0,v1,0x7468
    73bc:	30430004 	andi	v1,v0,0x4
    73c0:	8f828078 	lw	v0,-32648(gp)
    73c4:	00000000 	nop
    73c8:	1040fe66 	beqz	v0,0x6d64
    73cc:	00000000 	nop
    73d0:	3c040001 	lui	a0,0x1
    73d4:	0c000d18 	jal	0x3460
    73d8:	2484ce18 	addiu	a0,a0,-12776
    73dc:	08001b5a 	j	0x6d68
    73e0:	00008021 	move	s0,zero
    73e4:	17c0ffef 	bnez	s8,0x73a4
    73e8:	30440012 	andi	a0,v0,0x12
    73ec:	30430005 	andi	v1,v0,0x5
    73f0:	1460ffed 	bnez	v1,0x73a8
    73f4:	24030012 	li	v1,18
    73f8:	8e430028 	lw	v1,40(s2)
    73fc:	00000000 	nop
    7400:	1460ffe9 	bnez	v1,0x73a8
    7404:	24030012 	li	v1,18
    7408:	8f828078 	lw	v0,-32648(gp)
    740c:	00000000 	nop
    7410:	10400003 	beqz	v0,0x7420
    7414:	3c040001 	lui	a0,0x1
    7418:	0c000d18 	jal	0x3460
    741c:	2484ce14 	addiu	a0,a0,-12780
    7420:	8f848120 	lw	a0,-32480(gp)
    7424:	0c0004b2 	jal	0x12c8
    7428:	00000000 	nop
    742c:	8f908124 	lw	s0,-32476(gp)
    7430:	00000000 	nop
    7434:	1200ffd3 	beqz	s0,0x7384
    7438:	00000000 	nop
    743c:	8e020260 	lw	v0,608(s0)
    7440:	8e140258 	lw	s4,600(s0)
    7444:	16420006 	bne	s2,v0,0x7460
    7448:	02003021 	move	a2,s0
    744c:	27848124 	addiu	a0,gp,-32476
    7450:	0c001792 	jal	0x5e48
    7454:	27858128 	addiu	a1,gp,-32472
    7458:	0c001900 	jal	0x6400
    745c:	02002021 	move	a0,s0
    7460:	08001d0d 	j	0x7434
    7464:	02808021 	move	s0,s4
    7468:	14600079 	bnez	v1,0x7650
    746c:	00000000 	nop
    7470:	8e430018 	lw	v1,24(s2)
    7474:	00000000 	nop
    7478:	12630046 	beq	s3,v1,0x7594
    747c:	00000000 	nop
    7480:	17c00037 	bnez	s8,0x7560
    7484:	00001821 	move	v1,zero
    7488:	00008021 	move	s0,zero
    748c:	30420001 	andi	v0,v0,0x1
    7490:	10400021 	beqz	v0,0x7518
    7494:	00000000 	nop
    7498:	8e420018 	lw	v0,24(s2)
    749c:	00000000 	nop
    74a0:	0053982b 	sltu	s3,v0,s3
    74a4:	1660001c 	bnez	s3,0x7518
    74a8:	2402000f 	li	v0,15
    74ac:	ae420020 	sw	v0,32(s2)
    74b0:	8f828078 	lw	v0,-32648(gp)
    74b4:	00000000 	nop
    74b8:	10400003 	beqz	v0,0x74c8
    74bc:	3c040001 	lui	a0,0x1
    74c0:	0c000d18 	jal	0x3460
    74c4:	2484ce2c 	addiu	a0,a0,-12756
    74c8:	0c001896 	jal	0x6258
    74cc:	00002021 	move	a0,zero
    74d0:	1040fe24 	beqz	v0,0x6d64
    74d4:	24030010 	li	v1,16
    74d8:	a043002f 	sb	v1,47(v0)
    74dc:	8e430018 	lw	v1,24(s2)
    74e0:	00402821 	move	a1,v0
    74e4:	24630001 	addiu	v1,v1,1
    74e8:	ae430018 	sw	v1,24(s2)
    74ec:	02402021 	move	a0,s2
    74f0:	0c0019f0 	jal	0x67c0
    74f4:	24060036 	li	a2,54
    74f8:	8e420008 	lw	v0,8(s2)
    74fc:	24030006 	li	v1,6
    7500:	10430013 	beq	v0,v1,0x7550
    7504:	00000000 	nop
    7508:	24030004 	li	v1,4
    750c:	1043000d 	beq	v0,v1,0x7544
    7510:	24020005 	li	v0,5
    7514:	24030001 	li	v1,1
    7518:	8e440098 	lw	a0,152(s2)
    751c:	00000000 	nop
    7520:	1080fe11 	beqz	a0,0x6d68
    7524:	00000000 	nop
    7528:	1060fe0f 	beqz	v1,0x6d68
    752c:	00003021 	move	a2,zero
    7530:	02402821 	move	a1,s2
    7534:	0c0005e9 	jal	0x17a4
    7538:	00003821 	move	a3,zero
    753c:	08001b5a 	j	0x6d68
    7540:	00000000 	nop
    7544:	ae420008 	sw	v0,8(s2)
    7548:	08001d46 	j	0x7518
    754c:	24030001 	li	v1,1
    7550:	2402000f 	li	v0,15
    7554:	ae420020 	sw	v0,32(s2)
    7558:	08001d46 	j	0x7518
    755c:	24030001 	li	v1,1
    7560:	0c001896 	jal	0x6258
    7564:	2404000a 	li	a0,10
    7568:	10400032 	beqz	v0,0x7634
    756c:	00402821 	move	a1,v0
    7570:	24030010 	li	v1,16
    7574:	a043002f 	sb	v1,47(v0)
    7578:	02402021 	move	a0,s2
    757c:	0c0019f0 	jal	0x67c0
    7580:	24060036 	li	a2,54
    7584:	00008021 	move	s0,zero
    7588:	9222002f 	lbu	v0,47(s1)
    758c:	08001d23 	j	0x748c
    7590:	00001821 	move	v1,zero
    7594:	1bc0ffba 	blez	s8,0x7480
    7598:	00000000 	nop
    759c:	8e420020 	lw	v0,32(s2)
    75a0:	00000000 	nop
    75a4:	10400004 	beqz	v0,0x75b8
    75a8:	00000000 	nop
    75ac:	8e420024 	lw	v0,36(s2)
    75b0:	00000000 	nop
    75b4:	ae420020 	sw	v0,32(s2)
    75b8:	8f828078 	lw	v0,-32648(gp)
    75bc:	00000000 	nop
    75c0:	10400003 	beqz	v0,0x75d0
    75c4:	3c040001 	lui	a0,0x1
    75c8:	0c000d18 	jal	0x3460
    75cc:	2484ce28 	addiu	a0,a0,-12760
    75d0:	96220268 	lhu	v0,616(s1)
    75d4:	26f7000e 	addiu	s7,s7,14
    75d8:	02e2102a 	slt	v0,s7,v0
    75dc:	10400002 	beqz	v0,0x75e8
    75e0:	2644007c 	addiu	a0,s2,124
    75e4:	a6370268 	sh	s7,616(s1)
    75e8:	26450080 	addiu	a1,s2,128
    75ec:	0c0017cf 	jal	0x5f3c
    75f0:	02203021 	move	a2,s1
    75f4:	8e420018 	lw	v0,24(s2)
    75f8:	2404000a 	li	a0,10
    75fc:	005ef021 	addu	s8,v0,s8
    7600:	0c001896 	jal	0x6258
    7604:	ae5e0018 	sw	s8,24(s2)
    7608:	1040000d 	beqz	v0,0x7640
    760c:	00402821 	move	a1,v0
    7610:	24030010 	li	v1,16
    7614:	a043002f 	sb	v1,47(v0)
    7618:	02402021 	move	a0,s2
    761c:	0c0019f0 	jal	0x67c0
    7620:	24060036 	li	a2,54
    7624:	24100001 	li	s0,1
    7628:	9222002f 	lbu	v0,47(s1)
    762c:	08001d23 	j	0x748c
    7630:	24030001 	li	v1,1
    7634:	9222002f 	lbu	v0,47(s1)
    7638:	08001d22 	j	0x7488
    763c:	00001821 	move	v1,zero
    7640:	24030001 	li	v1,1
    7644:	9222002f 	lbu	v0,47(s1)
    7648:	08001d23 	j	0x748c
    764c:	24100001 	li	s0,1
    7650:	0c001846 	jal	0x6118
    7654:	02402021 	move	a0,s2
    7658:	00008021 	move	s0,zero
    765c:	9222002f 	lbu	v0,47(s1)
    7660:	08001d23 	j	0x748c
    7664:	24030001 	li	v1,1
    7668:	26730001 	addiu	s3,s3,1
    766c:	ae530018 	sw	s3,24(s2)
    7670:	ae53001c 	sw	s3,28(s2)
    7674:	0c001896 	jal	0x6258
    7678:	2404000a 	li	a0,10
    767c:	10400006 	beqz	v0,0x7698
    7680:	24030010 	li	v1,16
    7684:	a043002f 	sb	v1,47(v0)
    7688:	02402021 	move	a0,s2
    768c:	00402821 	move	a1,v0
    7690:	0c0019f0 	jal	0x67c0
    7694:	24060036 	li	a2,54
    7698:	8e440098 	lw	a0,152(s2)
    769c:	00000000 	nop
    76a0:	1080fdb0 	beqz	a0,0x6d64
    76a4:	00003021 	move	a2,zero
    76a8:	02402821 	move	a1,s2
    76ac:	0c0005e9 	jal	0x17a4
    76b0:	00003821 	move	a3,zero
    76b4:	08001b5a 	j	0x6d68
    76b8:	00008021 	move	s0,zero
    76bc:	8ea20264 	lw	v0,612(s5)
    76c0:	00000000 	nop
    76c4:	02021023 	subu	v0,s0,v0
    76c8:	27848124 	addiu	a0,gp,-32476
    76cc:	0440ff2b 	bltz	v0,0x737c
    76d0:	27858128 	addiu	a1,gp,-32472
    76d4:	8e420020 	lw	v0,32(s2)
    76d8:	00000000 	nop
    76dc:	10400004 	beqz	v0,0x76f0
    76e0:	00000000 	nop
    76e4:	8e420024 	lw	v0,36(s2)
    76e8:	00000000 	nop
    76ec:	ae420020 	sw	v0,32(s2)
    76f0:	0c001792 	jal	0x5e48
    76f4:	00000000 	nop
    76f8:	0c001804 	jal	0x6010
    76fc:	02a02021 	move	a0,s5
    7700:	08001cd9 	j	0x7364
    7704:	0280a821 	move	s5,s4
    7708:	8f848120 	lw	a0,-32480(gp)
    770c:	0c0004d8 	jal	0x1360
    7710:	00000000 	nop
    7714:	ae500010 	sw	s0,16(s2)
    7718:	ae400028 	sw	zero,40(s2)
    771c:	9222002f 	lbu	v0,47(s1)
    7720:	08001ce9 	j	0x73a4
    7724:	30440012 	andi	a0,v0,0x12
    7728:	8f828078 	lw	v0,-32648(gp)
    772c:	00000000 	nop
    7730:	10400004 	beqz	v0,0x7744
    7734:	00000000 	nop
    7738:	3c040001 	lui	a0,0x1
    773c:	0c000d18 	jal	0x3460
    7740:	2484c9c8 	addiu	a0,a0,-13880
    7744:	8f90812c 	lw	s0,-32468(gp)
    7748:	2634001a 	addiu	s4,s1,26
    774c:	26320022 	addiu	s2,s1,34
    7750:	12000020 	beqz	s0,0x77d4
    7754:	00000000 	nop
    7758:	8e020008 	lw	v0,8(s0)
    775c:	00000000 	nop
    7760:	10400006 	beqz	v0,0x777c
    7764:	00000000 	nop
    7768:	9202006d 	lbu	v0,109(s0)
    776c:	92230017 	lbu	v1,23(s1)
    7770:	00000000 	nop
    7774:	10620004 	beq	v1,v0,0x7788
    7778:	26050070 	addiu	a1,s0,112
    777c:	8e100000 	lw	s0,0(s0)
    7780:	08001dd4 	j	0x7750
    7784:	00000000 	nop
    7788:	02802021 	move	a0,s4
    778c:	0c00091d 	jal	0x2474
    7790:	24060008 	li	a2,8
    7794:	1440fff9 	bnez	v0,0x777c
    7798:	26050078 	addiu	a1,s0,120
    779c:	02402021 	move	a0,s2
    77a0:	0c00091d 	jal	0x2474
    77a4:	24060004 	li	a2,4
    77a8:	1440fff4 	bnez	v0,0x777c
    77ac:	00000000 	nop
    77b0:	8f828078 	lw	v0,-32648(gp)
    77b4:	00000000 	nop
    77b8:	1040fd6a 	beqz	v0,0x6d64
    77bc:	00000000 	nop
    77c0:	3c040001 	lui	a0,0x1
    77c4:	0c000d18 	jal	0x3460
    77c8:	2484d560 	addiu	a0,a0,-10912
    77cc:	08001b5a 	j	0x6d68
    77d0:	00008021 	move	s0,zero
    77d4:	8f94812c 	lw	s4,-32468(gp)
    77d8:	26300024 	addiu	s0,s1,36
    77dc:	1280000d 	beqz	s4,0x7814
    77e0:	00000000 	nop
    77e4:	8e820008 	lw	v0,8(s4)
    77e8:	00000000 	nop
    77ec:	14400006 	bnez	v0,0x7808
    77f0:	00000000 	nop
    77f4:	9282006d 	lbu	v0,109(s4)
    77f8:	92230017 	lbu	v1,23(s1)
    77fc:	00000000 	nop
    7800:	1062005a 	beq	v1,v0,0x796c
    7804:	2685007a 	addiu	a1,s4,122
    7808:	8e940000 	lw	s4,0(s4)
    780c:	08001df7 	j	0x77dc
    7810:	00000000 	nop
    7814:	0c001896 	jal	0x6258
    7818:	00002021 	move	a0,zero
    781c:	1040fd51 	beqz	v0,0x6d64
    7820:	00408021 	move	s0,v0
    7824:	00402021 	move	a0,v0
    7828:	02202821 	move	a1,s1
    782c:	0c001761 	jal	0x5d84
    7830:	24060036 	li	a2,54
    7834:	26730001 	addiu	s3,s3,1
    7838:	26040026 	addiu	a0,s0,38
    783c:	00002821 	move	a1,zero
    7840:	0c00092b 	jal	0x24ac
    7844:	24060004 	li	a2,4
    7848:	00131202 	srl	v0,s3,0x8
    784c:	a202002c 	sb	v0,44(s0)
    7850:	24020050 	li	v0,80
    7854:	a202002e 	sb	v0,46(s0)
    7858:	00132602 	srl	a0,s3,0x18
    785c:	00131c02 	srl	v1,s3,0x10
    7860:	24020004 	li	v0,4
    7864:	a204002a 	sb	a0,42(s0)
    7868:	a203002b 	sb	v1,43(s0)
    786c:	a213002d 	sb	s3,45(s0)
    7870:	a202002f 	sb	v0,47(s0)
    7874:	02002821 	move	a1,s0
    7878:	00002021 	move	a0,zero
    787c:	0c001956 	jal	0x6558
    7880:	24060036 	li	a2,54
    7884:	08001b5a 	j	0x6d68
    7888:	00008021 	move	s0,zero
    788c:	2625000e 	addiu	a1,s1,14
    7890:	0c00173c 	jal	0x5cf0
    7894:	24060014 	li	a2,20
    7898:	1440002c 	bnez	v0,0x794c
    789c:	24030001 	li	v1,1
    78a0:	92220017 	lbu	v0,23(s1)
    78a4:	00000000 	nop
    78a8:	104300a1 	beq	v0,v1,0x7b30
    78ac:	24030011 	li	v1,17
    78b0:	1443007f 	bne	v0,v1,0x7ab0
    78b4:	24030006 	li	v1,6
    78b8:	92230028 	lbu	v1,40(s1)
    78bc:	00000000 	nop
    78c0:	14600005 	bnez	v1,0x78d8
    78c4:	00000000 	nop
    78c8:	92230029 	lbu	v1,41(s1)
    78cc:	00000000 	nop
    78d0:	1060fd66 	beqz	v1,0x6e6c
    78d4:	24030001 	li	v1,1
    78d8:	27b20010 	addiu	s2,sp,16
    78dc:	02402021 	move	a0,s2
    78e0:	2625001a 	addiu	a1,s1,26
    78e4:	0c0008e8 	jal	0x23a0
    78e8:	24060004 	li	a2,4
    78ec:	27a40014 	addiu	a0,sp,20
    78f0:	02002821 	move	a1,s0
    78f4:	0c0008e8 	jal	0x23a0
    78f8:	24060004 	li	a2,4
    78fc:	92220017 	lbu	v0,23(s1)
    7900:	27a4001a 	addiu	a0,sp,26
    7904:	26250026 	addiu	a1,s1,38
    7908:	24060002 	li	a2,2
    790c:	a3a00018 	sb	zero,24(sp)
    7910:	0c0008e8 	jal	0x23a0
    7914:	a3a20019 	sb	v0,25(sp)
    7918:	3404ffff 	li	a0,0xffff
    791c:	02402821 	move	a1,s2
    7920:	0c00173c 	jal	0x5cf0
    7924:	2406000c 	li	a2,12
    7928:	92260026 	lbu	a2,38(s1)
    792c:	92230027 	lbu	v1,39(s1)
    7930:	00063200 	sll	a2,a2,0x8
    7934:	00402021 	move	a0,v0
    7938:	26250022 	addiu	a1,s1,34
    793c:	0c00173c 	jal	0x5cf0
    7940:	00c33021 	addu	a2,a2,v1
    7944:	1040fd47 	beqz	v0,0x6e64
    7948:	00000000 	nop
    794c:	8f828140 	lw	v0,-32448(gp)
    7950:	00000000 	nop
    7954:	1040fd43 	beqz	v0,0x6e64
    7958:	3c040001 	lui	a0,0x1
    795c:	0c000d18 	jal	0x3460
    7960:	2484ce10 	addiu	a0,a0,-12784
    7964:	08001b5a 	j	0x6d68
    7968:	00008021 	move	s0,zero
    796c:	02002021 	move	a0,s0
    7970:	0c00091d 	jal	0x2474
    7974:	24060002 	li	a2,2
    7978:	1440ffa3 	bnez	v0,0x7808
    797c:	00000000 	nop
    7980:	0c001896 	jal	0x6258
    7984:	24040032 	li	a0,50
    7988:	1040fcf6 	beqz	v0,0x6d64
    798c:	00409021 	move	s2,v0
    7990:	00002021 	move	a0,zero
    7994:	0c0002ba 	jal	0xae8
    7998:	240500b0 	li	a1,176
    799c:	1040fcf1 	beqz	v0,0x6d64
    79a0:	00408021 	move	s0,v0
    79a4:	02802821 	move	a1,s4
    79a8:	00402021 	move	a0,v0
    79ac:	0c0008e8 	jal	0x23a0
    79b0:	240600b0 	li	a2,176
    79b4:	3c021234 	lui	v0,0x1234
    79b8:	24425678 	addiu	v0,v0,22136
    79bc:	02621021 	addu	v0,s3,v0
    79c0:	24140004 	li	s4,4
    79c4:	26630001 	addiu	v1,s3,1
    79c8:	2404000f 	li	a0,15
    79cc:	ae040020 	sw	a0,32(s0)
    79d0:	ae140008 	sw	s4,8(s0)
    79d4:	ae130018 	sw	s3,24(s0)
    79d8:	ae03001c 	sw	v1,28(s0)
    79dc:	ae02000c 	sw	v0,12(s0)
    79e0:	ae020010 	sw	v0,16(s0)
    79e4:	92220030 	lbu	v0,48(s1)
    79e8:	92230031 	lbu	v1,49(s1)
    79ec:	00021200 	sll	v0,v0,0x8
    79f0:	00431025 	or	v0,v0,v1
    79f4:	8fa60020 	lw	a2,32(sp)
    79f8:	02402021 	move	a0,s2
    79fc:	02202821 	move	a1,s1
    7a00:	0c001761 	jal	0x5d84
    7a04:	ae020014 	sw	v0,20(s0)
    7a08:	26040056 	addiu	a0,s0,86
    7a0c:	02202821 	move	a1,s1
    7a10:	0c0008e8 	jal	0x23a0
    7a14:	24060026 	li	a2,38
    7a18:	26040030 	addiu	a0,s0,48
    7a1c:	02402821 	move	a1,s2
    7a20:	0c0008e8 	jal	0x23a0
    7a24:	24060026 	li	a2,38
    7a28:	24020012 	li	v0,18
    7a2c:	a242002f 	sb	v0,47(s2)
    7a30:	8e030018 	lw	v1,24(s0)
    7a34:	24020002 	li	v0,2
    7a38:	24630001 	addiu	v1,v1,1
    7a3c:	ae030018 	sw	v1,24(s0)
    7a40:	a2420036 	sb	v0,54(s2)
    7a44:	a2420038 	sb	v0,56(s2)
    7a48:	24020018 	li	v0,24
    7a4c:	02002021 	move	a0,s0
    7a50:	02402821 	move	a1,s2
    7a54:	2406003a 	li	a2,58
    7a58:	a2420039 	sb	v0,57(s2)
    7a5c:	0c0019f0 	jal	0x67c0
    7a60:	a2540037 	sb	s4,55(s2)
    7a64:	8e02000c 	lw	v0,12(s0)
    7a68:	8f848120 	lw	a0,-32480(gp)
    7a6c:	24420001 	addiu	v0,v0,1
    7a70:	0c0004b2 	jal	0x12c8
    7a74:	ae02000c 	sw	v0,12(s0)
    7a78:	8f82812c 	lw	v0,-32468(gp)
    7a7c:	ae000004 	sw	zero,4(s0)
    7a80:	10400002 	beqz	v0,0x7a8c
    7a84:	ae020000 	sw	v0,0(s0)
    7a88:	ac500004 	sw	s0,4(v0)
    7a8c:	8f848120 	lw	a0,-32480(gp)
    7a90:	0c0004d8 	jal	0x1360
    7a94:	af90812c 	sw	s0,-32468(gp)
    7a98:	8e040098 	lw	a0,152(s0)
    7a9c:	00000000 	nop
    7aa0:	1480fdac 	bnez	a0,0x7154
    7aa4:	00000000 	nop
    7aa8:	08001b5a 	j	0x6d68
    7aac:	00008021 	move	s0,zero
    7ab0:	1443fcee 	bne	v0,v1,0x6e6c
    7ab4:	24030001 	li	v1,1
    7ab8:	27b20010 	addiu	s2,sp,16
    7abc:	02402021 	move	a0,s2
    7ac0:	2625001a 	addiu	a1,s1,26
    7ac4:	0c0008e8 	jal	0x23a0
    7ac8:	24060004 	li	a2,4
    7acc:	27a40014 	addiu	a0,sp,20
    7ad0:	02002821 	move	a1,s0
    7ad4:	0c0008e8 	jal	0x23a0
    7ad8:	24060004 	li	a2,4
    7adc:	92300011 	lbu	s0,17(s1)
    7ae0:	92220010 	lbu	v0,16(s1)
    7ae4:	2610ffec 	addiu	s0,s0,-20
    7ae8:	00021200 	sll	v0,v0,0x8
    7aec:	02028021 	addu	s0,s0,v0
    7af0:	92230017 	lbu	v1,23(s1)
    7af4:	02402821 	move	a1,s2
    7af8:	00101203 	sra	v0,s0,0x8
    7afc:	2406000c 	li	a2,12
    7b00:	3404ffff 	li	a0,0xffff
    7b04:	a3a00018 	sb	zero,24(sp)
    7b08:	a3a30019 	sb	v1,25(sp)
    7b0c:	a3a2001a 	sb	v0,26(sp)
    7b10:	0c00173c 	jal	0x5cf0
    7b14:	a3b0001b 	sb	s0,27(sp)
    7b18:	00402021 	move	a0,v0
    7b1c:	26250022 	addiu	a1,s1,34
    7b20:	0c00173c 	jal	0x5cf0
    7b24:	02003021 	move	a2,s0
    7b28:	08001e51 	j	0x7944
    7b2c:	00000000 	nop
    7b30:	3404ffff 	li	a0,0xffff
    7b34:	26250022 	addiu	a1,s1,34
    7b38:	0c00173c 	jal	0x5cf0
    7b3c:	2646ffde 	addiu	a2,s2,-34
    7b40:	08001e51 	j	0x7944
    7b44:	00000000 	nop
    7b48:	27bdffd8 	addiu	sp,sp,-40
    7b4c:	afb20020 	sw	s2,32(sp)
    7b50:	afb00018 	sw	s0,24(sp)
    7b54:	afbf0024 	sw	ra,36(sp)
    7b58:	afb1001c 	sw	s1,28(sp)
    7b5c:	00809021 	move	s2,a0
    7b60:	10a00004 	beqz	a1,0x7b74
    7b64:	00c08021 	move	s0,a2
    7b68:	2784807c 	addiu	a0,gp,-32644
    7b6c:	0c0008e8 	jal	0x23a0
    7b70:	24060006 	li	a2,6
    7b74:	12000005 	beqz	s0,0x7b8c
    7b78:	02002821 	move	a1,s0
    7b7c:	3c040001 	lui	a0,0x1
    7b80:	2484d60e 	addiu	a0,a0,-10738
    7b84:	0c0008e8 	jal	0x23a0
    7b88:	24060006 	li	a2,6
    7b8c:	3c040001 	lui	a0,0x1
    7b90:	2484ce34 	addiu	a0,a0,-12748
    7b94:	0c000487 	jal	0x121c
    7b98:	af928140 	sw	s2,-32448(gp)
    7b9c:	3c040001 	lui	a0,0x1
    7ba0:	2484ce3c 	addiu	a0,a0,-12740
    7ba4:	240500c8 	li	a1,200
    7ba8:	24060020 	li	a2,32
    7bac:	0c000508 	jal	0x1420
    7bb0:	af828120 	sw	v0,-32480(gp)
    7bb4:	af82814c 	sw	v0,-32436(gp)
    7bb8:	24110064 	li	s1,100
    7bbc:	24050270 	li	a1,624
    7bc0:	0c0002ba 	jal	0xae8
    7bc4:	00002021 	move	a0,zero
    7bc8:	00402021 	move	a0,v0
    7bcc:	00002821 	move	a1,zero
    7bd0:	24060270 	li	a2,624
    7bd4:	0c00092b 	jal	0x24ac
    7bd8:	00408021 	move	s0,v0
    7bdc:	8f828150 	lw	v0,-32432(gp)
    7be0:	2631ffff 	addiu	s1,s1,-1
    7be4:	ae020258 	sw	v0,600(s0)
    7be8:	ae00025c 	sw	zero,604(s0)
    7bec:	1620fff3 	bnez	s1,0x7bbc
    7bf0:	af908150 	sw	s0,-32432(gp)
    7bf4:	3c040000 	lui	a0,0x0
    7bf8:	8f86814c 	lw	a2,-32436(gp)
    7bfc:	24020064 	li	v0,100
    7c00:	24846cec 	addiu	a0,a0,27884
    7c04:	24050258 	li	a1,600
    7c08:	0c000e7b 	jal	0x39ec
    7c0c:	af828118 	sw	v0,-32488(gp)
    7c10:	12400009 	beqz	s2,0x7c38
    7c14:	00002021 	move	a0,zero
    7c18:	8fbf0024 	lw	ra,36(sp)
    7c1c:	8fb20020 	lw	s2,32(sp)
    7c20:	8fb1001c 	lw	s1,28(sp)
    7c24:	8fb00018 	lw	s0,24(sp)
    7c28:	24050168 	li	a1,360
    7c2c:	24060001 	li	a2,1
    7c30:	08001a37 	j	0x68dc
    7c34:	27bd0028 	addiu	sp,sp,40
    7c38:	3c040001 	lui	a0,0x1
    7c3c:	3c050001 	lui	a1,0x1
    7c40:	2484ce44 	addiu	a0,a0,-12732
    7c44:	24a58b34 	addiu	a1,a1,-29900
    7c48:	00003021 	move	a2,zero
    7c4c:	24021770 	li	v0,6000
    7c50:	240700f0 	li	a3,240
    7c54:	0c000416 	jal	0x1058
    7c58:	afa20010 	sw	v0,16(sp)
    7c5c:	8fbf0024 	lw	ra,36(sp)
    7c60:	8fb20020 	lw	s2,32(sp)
    7c64:	8fb1001c 	lw	s1,28(sp)
    7c68:	8fb00018 	lw	s0,24(sp)
    7c6c:	00002021 	move	a0,zero
    7c70:	24050168 	li	a1,360
    7c74:	24060001 	li	a2,1
    7c78:	27bd0028 	addiu	sp,sp,40
    7c7c:	08001a37 	j	0x68dc
    7c80:	af828154 	sw	v0,-32428(gp)
    7c84:	27bdffd8 	addiu	sp,sp,-40
    7c88:	afb10014 	sw	s1,20(sp)
    7c8c:	afb00010 	sw	s0,16(sp)
    7c90:	00808821 	move	s1,a0
    7c94:	00a08021 	move	s0,a1
    7c98:	00002021 	move	a0,zero
    7c9c:	240500b0 	li	a1,176
    7ca0:	afb40020 	sw	s4,32(sp)
    7ca4:	afb3001c 	sw	s3,28(sp)
    7ca8:	afb20018 	sw	s2,24(sp)
    7cac:	afbf0024 	sw	ra,36(sp)
    7cb0:	00c09021 	move	s2,a2
    7cb4:	0c0002ba 	jal	0xae8
    7cb8:	00e0a021 	move	s4,a3
    7cbc:	1040002d 	beqz	v0,0x7d74
    7cc0:	00409821 	move	s3,v0
    7cc4:	00402021 	move	a0,v0
    7cc8:	00002821 	move	a1,zero
    7ccc:	0c00092b 	jal	0x24ac
    7cd0:	240600b0 	li	a2,176
    7cd4:	2402000f 	li	v0,15
    7cd8:	ae620024 	sw	v0,36(s3)
    7cdc:	24020800 	li	v0,2048
    7ce0:	ae600004 	sw	zero,4(s3)
    7ce4:	ae600008 	sw	zero,8(s3)
    7ce8:	ae600020 	sw	zero,32(s3)
    7cec:	ae60007c 	sw	zero,124(s3)
    7cf0:	ae600080 	sw	zero,128(s3)
    7cf4:	ae600084 	sw	zero,132(s3)
    7cf8:	ae740098 	sw	s4,152(s3)
    7cfc:	ae6000a8 	sw	zero,168(s3)
    7d00:	ae60009c 	sw	zero,156(s3)
    7d04:	ae6000a0 	sw	zero,160(s3)
    7d08:	16000028 	bnez	s0,0x7dac
    7d0c:	ae620014 	sw	v0,20(s3)
    7d10:	00121202 	srl	v0,s2,0x8
    7d14:	a262007a 	sb	v0,122(s3)
    7d18:	24020001 	li	v0,1
    7d1c:	1222006d 	beq	s1,v0,0x7ed4
    7d20:	a272007b 	sb	s2,123(s3)
    7d24:	1220001c 	beqz	s1,0x7d98
    7d28:	24030002 	li	v1,2
    7d2c:	1223008e 	beq	s1,v1,0x7f68
    7d30:	26640052 	addiu	a0,s3,82
    7d34:	8f848120 	lw	a0,-32480(gp)
    7d38:	0c0004b2 	jal	0x12c8
    7d3c:	00000000 	nop
    7d40:	8f82812c 	lw	v0,-32468(gp)
    7d44:	ae600004 	sw	zero,4(s3)
    7d48:	10400002 	beqz	v0,0x7d54
    7d4c:	ae620000 	sw	v0,0(s3)
    7d50:	ac530004 	sw	s3,4(v0)
    7d54:	8f848120 	lw	a0,-32480(gp)
    7d58:	0c0004d8 	jal	0x1360
    7d5c:	af93812c 	sw	s3,-32468(gp)
    7d60:	24020001 	li	v0,1
    7d64:	16220003 	bne	s1,v0,0x7d74
    7d68:	00000000 	nop
    7d6c:	16000060 	bnez	s0,0x7ef0
    7d70:	3c020123 	lui	v0,0x123
    7d74:	8fbf0024 	lw	ra,36(sp)
    7d78:	02601021 	move	v0,s3
    7d7c:	8fb40020 	lw	s4,32(sp)
    7d80:	8fb3001c 	lw	s3,28(sp)
    7d84:	8fb20018 	lw	s2,24(sp)
    7d88:	8fb10014 	lw	s1,20(sp)
    7d8c:	8fb00010 	lw	s0,16(sp)
    7d90:	03e00008 	jr	ra
    7d94:	27bd0028 	addiu	sp,sp,40
    7d98:	24020011 	li	v0,17
    7d9c:	ae630008 	sw	v1,8(s3)
    7da0:	a2620047 	sb	v0,71(s3)
    7da4:	08001f4d 	j	0x7d34
    7da8:	a262006d 	sb	v0,109(s3)
    7dac:	26740030 	addiu	s4,s3,48
    7db0:	02802021 	move	a0,s4
    7db4:	00002821 	move	a1,zero
    7db8:	0c00092b 	jal	0x24ac
    7dbc:	24060026 	li	a2,38
    7dc0:	26640056 	addiu	a0,s3,86
    7dc4:	00002821 	move	a1,zero
    7dc8:	0c00092b 	jal	0x24ac
    7dcc:	24060026 	li	a2,38
    7dd0:	93858084 	lbu	a1,-32636(gp)
    7dd4:	93828085 	lbu	v0,-32635(gp)
    7dd8:	00052e00 	sll	a1,a1,0x18
    7ddc:	00021400 	sll	v0,v0,0x10
    7de0:	93848087 	lbu	a0,-32633(gp)
    7de4:	93838086 	lbu	v1,-32634(gp)
    7de8:	00a21025 	or	v0,a1,v0
    7dec:	00441025 	or	v0,v0,a0
    7df0:	00031a00 	sll	v1,v1,0x8
    7df4:	00431025 	or	v0,v0,v1
    7df8:	12020055 	beq	s0,v0,0x7f50
    7dfc:	27858088 	addiu	a1,gp,-32632
    7e00:	02802021 	move	a0,s4
    7e04:	0c0008e8 	jal	0x23a0
    7e08:	24060006 	li	a2,6
    7e0c:	26640036 	addiu	a0,s3,54
    7e10:	2785807c 	addiu	a1,gp,-32644
    7e14:	0c0008e8 	jal	0x23a0
    7e18:	24060006 	li	a2,6
    7e1c:	24020008 	li	v0,8
    7e20:	a262003c 	sb	v0,60(s3)
    7e24:	24020045 	li	v0,69
    7e28:	a262003e 	sb	v0,62(s3)
    7e2c:	2402ff80 	li	v0,-128
    7e30:	2664004a 	addiu	a0,s3,74
    7e34:	27858084 	addiu	a1,gp,-32636
    7e38:	24060004 	li	a2,4
    7e3c:	0c0008e8 	jal	0x23a0
    7e40:	a2620046 	sb	v0,70(s3)
    7e44:	00102402 	srl	a0,s0,0x10
    7e48:	00101a02 	srl	v1,s0,0x8
    7e4c:	306300ff 	andi	v1,v1,0xff
    7e50:	308400ff 	andi	a0,a0,0xff
    7e54:	00102e02 	srl	a1,s0,0x18
    7e58:	320200ff 	andi	v0,s0,0xff
    7e5c:	a265004e 	sb	a1,78(s3)
    7e60:	a264004f 	sb	a0,79(s3)
    7e64:	a2630050 	sb	v1,80(s3)
    7e68:	a2650070 	sb	a1,112(s3)
    7e6c:	a2640071 	sb	a0,113(s3)
    7e70:	a2630072 	sb	v1,114(s3)
    7e74:	26640074 	addiu	a0,s3,116
    7e78:	27858084 	addiu	a1,gp,-32636
    7e7c:	a2620051 	sb	v0,81(s3)
    7e80:	a2620073 	sb	v0,115(s3)
    7e84:	0c0008e8 	jal	0x23a0
    7e88:	24060004 	li	a2,4
    7e8c:	8f858090 	lw	a1,-32624(gp)
    7e90:	93838092 	lbu	v1,-32622(gp)
    7e94:	30a200ff 	andi	v0,a1,0xff
    7e98:	00122202 	srl	a0,s2,0x8
    7e9c:	308400ff 	andi	a0,a0,0xff
    7ea0:	325200ff 	andi	s2,s2,0xff
    7ea4:	24a50001 	addiu	a1,a1,1
    7ea8:	a2620053 	sb	v0,83(s3)
    7eac:	a262007b 	sb	v0,123(s3)
    7eb0:	24020001 	li	v0,1
    7eb4:	a2630052 	sb	v1,82(s3)
    7eb8:	a2640054 	sb	a0,84(s3)
    7ebc:	a2720055 	sb	s2,85(s3)
    7ec0:	a2640078 	sb	a0,120(s3)
    7ec4:	a2720079 	sb	s2,121(s3)
    7ec8:	a263007a 	sb	v1,122(s3)
    7ecc:	1622ff95 	bne	s1,v0,0x7d24
    7ed0:	af858090 	sw	a1,-32624(gp)
    7ed4:	1600001c 	bnez	s0,0x7f48
    7ed8:	24020004 	li	v0,4
    7edc:	ae600008 	sw	zero,8(s3)
    7ee0:	24020006 	li	v0,6
    7ee4:	a2620047 	sb	v0,71(s3)
    7ee8:	08001f4d 	j	0x7d34
    7eec:	a262006d 	sb	v0,109(s3)
    7ef0:	24424567 	addiu	v0,v0,17767
    7ef4:	ae62000c 	sw	v0,12(s3)
    7ef8:	0c001896 	jal	0x6258
    7efc:	00002021 	move	a0,zero
    7f00:	1040ff9c 	beqz	v0,0x7d74
    7f04:	24030002 	li	v1,2
    7f08:	a043002f 	sb	v1,47(v0)
    7f0c:	a0430036 	sb	v1,54(v0)
    7f10:	a0430038 	sb	v1,56(v0)
    7f14:	24040004 	li	a0,4
    7f18:	24030018 	li	v1,24
    7f1c:	a0440037 	sb	a0,55(v0)
    7f20:	a0430039 	sb	v1,57(v0)
    7f24:	00402821 	move	a1,v0
    7f28:	02602021 	move	a0,s3
    7f2c:	0c0019f0 	jal	0x67c0
    7f30:	2406003a 	li	a2,58
    7f34:	8e62000c 	lw	v0,12(s3)
    7f38:	00000000 	nop
    7f3c:	24420001 	addiu	v0,v0,1
    7f40:	08001f5d 	j	0x7d74
    7f44:	ae62000c 	sw	v0,12(s3)
    7f48:	08001fb8 	j	0x7ee0
    7f4c:	ae620008 	sw	v0,8(s3)
    7f50:	02802021 	move	a0,s4
    7f54:	2785807c 	addiu	a1,gp,-32644
    7f58:	0c0008e8 	jal	0x23a0
    7f5c:	24060006 	li	a2,6
    7f60:	08001f84 	j	0x7e10
    7f64:	26640036 	addiu	a0,s3,54
    7f68:	ae620008 	sw	v0,8(s3)
    7f6c:	a2620047 	sb	v0,71(s3)
    7f70:	00002821 	move	a1,zero
    7f74:	0c00092b 	jal	0x24ac
    7f78:	24060008 	li	a2,8
    7f7c:	24020008 	li	v0,8
    7f80:	08001f4d 	j	0x7d34
    7f84:	a2620052 	sb	v0,82(s3)
    7f88:	8c830088 	lw	v1,136(a0)
    7f8c:	27bdffe8 	addiu	sp,sp,-24
    7f90:	afb00010 	sw	s0,16(sp)
    7f94:	afbf0014 	sw	ra,20(sp)
    7f98:	10600012 	beqz	v1,0x7fe4
    7f9c:	00808021 	move	s0,a0
    7fa0:	8c820008 	lw	v0,8(a0)
    7fa4:	24050002 	li	a1,2
    7fa8:	1045000e 	beq	v0,a1,0x7fe4
    7fac:	24050001 	li	a1,1
    7fb0:	1045000c 	beq	v0,a1,0x7fe4
    7fb4:	24020018 	li	v0,24
    7fb8:	a062002f 	sb	v0,47(v1)
    7fbc:	8c86008c 	lw	a2,140(a0)
    7fc0:	8c850088 	lw	a1,136(a0)
    7fc4:	0c0019f0 	jal	0x67c0
    7fc8:	24c60036 	addiu	a2,a2,54
    7fcc:	8e03000c 	lw	v1,12(s0)
    7fd0:	8e02008c 	lw	v0,140(s0)
    7fd4:	ae000088 	sw	zero,136(s0)
    7fd8:	00621021 	addu	v0,v1,v0
    7fdc:	ae02000c 	sw	v0,12(s0)
    7fe0:	ae00008c 	sw	zero,140(s0)
    7fe4:	8fbf0014 	lw	ra,20(sp)
    7fe8:	8fb00010 	lw	s0,16(sp)
    7fec:	03e00008 	jr	ra
    7ff0:	27bd0018 	addiu	sp,sp,24
    7ff4:	8c820008 	lw	v0,8(a0)
    7ff8:	27bdffc0 	addiu	sp,sp,-64
    7ffc:	2c420005 	sltiu	v0,v0,5
    8000:	afb5002c 	sw	s5,44(sp)
    8004:	afb40028 	sw	s4,40(sp)
    8008:	afb00018 	sw	s0,24(sp)
    800c:	afbf003c 	sw	ra,60(sp)
    8010:	afbe0038 	sw	s8,56(sp)
    8014:	afb70034 	sw	s7,52(sp)
    8018:	afb60030 	sw	s6,48(sp)
    801c:	afb30024 	sw	s3,36(sp)
    8020:	afb20020 	sw	s2,32(sp)
    8024:	afb1001c 	sw	s1,28(sp)
    8028:	00808021 	move	s0,a0
    802c:	00a0a821 	move	s5,a1
    8030:	1040001a 	beqz	v0,0x809c
    8034:	00c0a021 	move	s4,a2
    8038:	8c820020 	lw	v0,32(a0)
    803c:	00000000 	nop
    8040:	10400004 	beqz	v0,0x8054
    8044:	00000000 	nop
    8048:	8c820024 	lw	v0,36(a0)
    804c:	00000000 	nop
    8050:	ac820020 	sw	v0,32(a0)
    8054:	8e070090 	lw	a3,144(s0)
    8058:	00000000 	nop
    805c:	10e0001d 	beqz	a3,0x80d4
    8060:	02a02021 	move	a0,s5
    8064:	02803021 	move	a2,s4
    8068:	8fbf003c 	lw	ra,60(sp)
    806c:	8fbe0038 	lw	s8,56(sp)
    8070:	8fb70034 	lw	s7,52(sp)
    8074:	8fb60030 	lw	s6,48(sp)
    8078:	8fb5002c 	lw	s5,44(sp)
    807c:	8fb40028 	lw	s4,40(sp)
    8080:	8fb30024 	lw	s3,36(sp)
    8084:	8fb20020 	lw	s2,32(sp)
    8088:	8fb1001c 	lw	s1,28(sp)
    808c:	8fb00018 	lw	s0,24(sp)
    8090:	24050001 	li	a1,1
    8094:	08002f01 	j	0xbc04
    8098:	27bd0040 	addiu	sp,sp,64
    809c:	0000b821 	move	s7,zero
    80a0:	8fbf003c 	lw	ra,60(sp)
    80a4:	02e01021 	move	v0,s7
    80a8:	8fbe0038 	lw	s8,56(sp)
    80ac:	8fb70034 	lw	s7,52(sp)
    80b0:	8fb60030 	lw	s6,48(sp)
    80b4:	8fb5002c 	lw	s5,44(sp)
    80b8:	8fb40028 	lw	s4,40(sp)
    80bc:	8fb30024 	lw	s3,36(sp)
    80c0:	8fb20020 	lw	s2,32(sp)
    80c4:	8fb1001c 	lw	s1,28(sp)
    80c8:	8fb00018 	lw	s0,24(sp)
    80cc:	03e00008 	jr	ra
    80d0:	27bd0040 	addiu	sp,sp,64
    80d4:	0c000167 	jal	0x59c
    80d8:	00000000 	nop
    80dc:	1280ffef 	beqz	s4,0x809c
    80e0:	0040b021 	move	s6,v0
    80e4:	26020030 	addiu	v0,s0,48
    80e8:	00009021 	move	s2,zero
    80ec:	0000b821 	move	s7,zero
    80f0:	241e00c9 	li	s8,201
    80f4:	afa20010 	sw	v0,16(sp)
    80f8:	8e03000c 	lw	v1,12(s0)
    80fc:	8e020010 	lw	v0,16(s0)
    8100:	00000000 	nop
    8104:	00621023 	subu	v0,v1,v0
    8108:	2c421b58 	sltiu	v0,v0,7000
    810c:	14400008 	bnez	v0,0x8130
    8110:	00000000 	nop
    8114:	8f828154 	lw	v0,-32428(gp)
    8118:	00000000 	nop
    811c:	12c20004 	beq	s6,v0,0x8130
    8120:	26520001 	addiu	s2,s2,1
    8124:	2e4200c8 	sltiu	v0,s2,200
    8128:	1440002f 	bnez	v0,0x81e8
    812c:	00000000 	nop
    8130:	00009021 	move	s2,zero
    8134:	8e110088 	lw	s1,136(s0)
    8138:	00000000 	nop
    813c:	16200007 	bnez	s1,0x815c
    8140:	2404000a 	li	a0,10
    8144:	0c001896 	jal	0x6258
    8148:	00000000 	nop
    814c:	ae020088 	sw	v0,136(s0)
    8150:	1040002b 	beqz	v0,0x8200
    8154:	ae00008c 	sw	zero,140(s0)
    8158:	00408821 	move	s1,v0
    815c:	8e020008 	lw	v0,8(s0)
    8160:	24030001 	li	v1,1
    8164:	8e04008c 	lw	a0,140(s0)
    8168:	1043002f 	beq	v0,v1,0x8228
    816c:	24030002 	li	v1,2
    8170:	1043003f 	beq	v0,v1,0x8270
    8174:	24020200 	li	v0,512
    8178:	00449823 	subu	s3,v0,a0
    817c:	0293102b 	sltu	v0,s4,s3
    8180:	10400003 	beqz	v0,0x8190
    8184:	02641021 	addu	v0,s3,a0
    8188:	02809821 	move	s3,s4
    818c:	02641021 	addu	v0,s3,a0
    8190:	24840036 	addiu	a0,a0,54
    8194:	ae02008c 	sw	v0,140(s0)
    8198:	02242021 	addu	a0,s1,a0
    819c:	02a02821 	move	a1,s5
    81a0:	0c0008e8 	jal	0x23a0
    81a4:	02603021 	move	a2,s3
    81a8:	8e02008c 	lw	v0,140(s0)
    81ac:	00000000 	nop
    81b0:	28420200 	slti	v0,v0,512
    81b4:	10400008 	beqz	v0,0x81d8
    81b8:	00000000 	nop
    81bc:	0293a023 	subu	s4,s4,s3
    81c0:	02f3b821 	addu	s7,s7,s3
    81c4:	02b3a821 	addu	s5,s5,s3
    81c8:	1680ffcb 	bnez	s4,0x80f8
    81cc:	00000000 	nop
    81d0:	08002028 	j	0x80a0
    81d4:	00000000 	nop
    81d8:	0c001fe2 	jal	0x7f88
    81dc:	02002021 	move	a0,s0
    81e0:	08002070 	j	0x81c0
    81e4:	0293a023 	subu	s4,s4,s3
    81e8:	0c000268 	jal	0x9a0
    81ec:	24040001 	li	a0,1
    81f0:	1680ffc1 	bnez	s4,0x80f8
    81f4:	00000000 	nop
    81f8:	08002028 	j	0x80a0
    81fc:	00000000 	nop
    8200:	8f828154 	lw	v0,-32428(gp)
    8204:	26520001 	addiu	s2,s2,1
    8208:	12c2ffa5 	beq	s6,v0,0x80a0
    820c:	24040001 	li	a0,1
    8210:	125effa3 	beq	s2,s8,0x80a0
    8214:	00000000 	nop
    8218:	0c000268 	jal	0x9a0
    821c:	00000000 	nop
    8220:	0800204d 	j	0x8134
    8224:	00000000 	nop
    8228:	8fa50010 	lw	a1,16(sp)
    822c:	02202021 	move	a0,s1
    8230:	0c0008e8 	jal	0x23a0
    8234:	2406002c 	li	a2,44
    8238:	02803021 	move	a2,s4
    823c:	02a02821 	move	a1,s5
    8240:	0c0008e8 	jal	0x23a0
    8244:	2624002c 	addiu	a0,s1,44
    8248:	8e050088 	lw	a1,136(s0)
    824c:	02809821 	move	s3,s4
    8250:	2686002c 	addiu	a2,s4,44
    8254:	0c001956 	jal	0x6558
    8258:	02002021 	move	a0,s0
    825c:	0000a021 	move	s4,zero
    8260:	ae000088 	sw	zero,136(s0)
    8264:	02f3b821 	addu	s7,s7,s3
    8268:	08002072 	j	0x81c8
    826c:	02b3a821 	addu	s5,s5,s3
    8270:	2484002a 	addiu	a0,a0,42
    8274:	02803021 	move	a2,s4
    8278:	02a02821 	move	a1,s5
    827c:	0c0008e8 	jal	0x23a0
    8280:	02242021 	addu	a0,s1,a0
    8284:	8fa50010 	lw	a1,16(sp)
    8288:	02202021 	move	a0,s1
    828c:	0c0008e8 	jal	0x23a0
    8290:	24060026 	li	a2,38
    8294:	8e050088 	lw	a1,136(s0)
    8298:	02809821 	move	s3,s4
    829c:	2686002a 	addiu	a2,s4,42
    82a0:	0c001956 	jal	0x6558
    82a4:	02002021 	move	a0,s0
    82a8:	0000a021 	move	s4,zero
    82ac:	ae000088 	sw	zero,136(s0)
    82b0:	02f3b821 	addu	s7,s7,s3
    82b4:	08002072 	j	0x81c8
    82b8:	02b3a821 	addu	s5,s5,s3
    82bc:	8c870094 	lw	a3,148(a0)
    82c0:	27bdffc0 	addiu	sp,sp,-64
    82c4:	afb40028 	sw	s4,40(sp)
    82c8:	afb1001c 	sw	s1,28(sp)
    82cc:	afb00018 	sw	s0,24(sp)
    82d0:	afbf003c 	sw	ra,60(sp)
    82d4:	afbe0038 	sw	s8,56(sp)
    82d8:	afb70034 	sw	s7,52(sp)
    82dc:	afb60030 	sw	s6,48(sp)
    82e0:	afb5002c 	sw	s5,44(sp)
    82e4:	afb30024 	sw	s3,36(sp)
    82e8:	afb20020 	sw	s2,32(sp)
    82ec:	00808021 	move	s0,a0
    82f0:	00a08821 	move	s1,a1
    82f4:	10e0001c 	beqz	a3,0x8368
    82f8:	00c0a021 	move	s4,a2
    82fc:	00a02021 	move	a0,a1
    8300:	24060001 	li	a2,1
    8304:	0c002e04 	jal	0xb810
    8308:	24050001 	li	a1,1
    830c:	1040000d 	beqz	v0,0x8344
    8310:	00000000 	nop
    8314:	8fbf003c 	lw	ra,60(sp)
    8318:	8fbe0038 	lw	s8,56(sp)
    831c:	8fb70034 	lw	s7,52(sp)
    8320:	8fb60030 	lw	s6,48(sp)
    8324:	8fb5002c 	lw	s5,44(sp)
    8328:	8fb40028 	lw	s4,40(sp)
    832c:	8fb30024 	lw	s3,36(sp)
    8330:	8fb20020 	lw	s2,32(sp)
    8334:	8fb1001c 	lw	s1,28(sp)
    8338:	8fb00018 	lw	s0,24(sp)
    833c:	03e00008 	jr	ra
    8340:	27bd0040 	addiu	sp,sp,64
    8344:	a2200000 	sb	zero,0(s1)
    8348:	8e040094 	lw	a0,148(s0)
    834c:	24020001 	li	v0,1
    8350:	0c002f93 	jal	0xbe4c
    8354:	afa20014 	sw	v0,20(sp)
    8358:	ae000094 	sw	zero,148(s0)
    835c:	8fa20014 	lw	v0,20(sp)
    8360:	080020c5 	j	0x8314
    8364:	00000000 	nop
    8368:	8c830008 	lw	v1,8(a0)
    836c:	24020002 	li	v0,2
    8370:	10620002 	beq	v1,v0,0x837c
    8374:	2415002a 	li	s5,42
    8378:	24150036 	li	s5,54
    837c:	8f848120 	lw	a0,-32480(gp)
    8380:	0c0004b2 	jal	0x12c8
    8384:	00000000 	nop
    8388:	8e130080 	lw	s3,128(s0)
    838c:	1280003f 	beqz	s4,0x848c
    8390:	00001021 	move	v0,zero
    8394:	1260004c 	beqz	s3,0x84c8
    8398:	0000b021 	move	s6,zero
    839c:	2602007c 	addiu	v0,s0,124
    83a0:	afa20010 	sw	v0,16(sp)
    83a4:	261e0080 	addiu	s8,s0,128
    83a8:	24170004 	li	s7,4
    83ac:	96630268 	lhu	v1,616(s3)
    83b0:	8e020084 	lw	v0,132(s0)
    83b4:	00751823 	subu	v1,v1,s5
    83b8:	02a22821 	addu	a1,s5,v0
    83bc:	00621023 	subu	v0,v1,v0
    83c0:	0054182a 	slt	v1,v0,s4
    83c4:	02202021 	move	a0,s1
    83c8:	02652821 	addu	a1,s3,a1
    83cc:	10600002 	beqz	v1,0x83d8
    83d0:	02809021 	move	s2,s4
    83d4:	00409021 	move	s2,v0
    83d8:	0c0008e8 	jal	0x23a0
    83dc:	02403021 	move	a2,s2
    83e0:	8e030084 	lw	v1,132(s0)
    83e4:	96640268 	lhu	a0,616(s3)
    83e8:	02431821 	addu	v1,s2,v1
    83ec:	00952023 	subu	a0,a0,s5
    83f0:	ae030084 	sw	v1,132(s0)
    83f4:	8e62025c 	lw	v0,604(s3)
    83f8:	0292a023 	subu	s4,s4,s2
    83fc:	02328821 	addu	s1,s1,s2
    8400:	10640007 	beq	v1,a0,0x8420
    8404:	02d2b021 	addu	s6,s6,s2
    8408:	1280001f 	beqz	s4,0x8488
    840c:	00000000 	nop
    8410:	1040001d 	beqz	v0,0x8488
    8414:	00409821 	move	s3,v0
    8418:	080020eb 	j	0x83ac
    841c:	00000000 	nop
    8420:	8fa40010 	lw	a0,16(sp)
    8424:	03c02821 	move	a1,s8
    8428:	ae000084 	sw	zero,132(s0)
    842c:	02603021 	move	a2,s3
    8430:	0c001792 	jal	0x5e48
    8434:	afa20014 	sw	v0,20(sp)
    8438:	96630268 	lhu	v1,616(s3)
    843c:	8e04001c 	lw	a0,28(s0)
    8440:	00751823 	subu	v1,v1,s5
    8444:	8e050008 	lw	a1,8(s0)
    8448:	00641821 	addu	v1,v1,a0
    844c:	ae03001c 	sw	v1,28(s0)
    8450:	8fa20014 	lw	v0,20(sp)
    8454:	14b70007 	bne	a1,s7,0x8474
    8458:	02602021 	move	a0,s3
    845c:	8e050018 	lw	a1,24(s0)
    8460:	00000000 	nop
    8464:	00a31823 	subu	v1,a1,v1
    8468:	2c630c01 	sltiu	v1,v1,3073
    846c:	1060000d 	beqz	v1,0x84a4
    8470:	24030010 	li	v1,16
    8474:	0c001804 	jal	0x6010
    8478:	afa20014 	sw	v0,20(sp)
    847c:	8fa20014 	lw	v0,20(sp)
    8480:	1680ffe3 	bnez	s4,0x8410
    8484:	00000000 	nop
    8488:	02c01021 	move	v0,s6
    848c:	8f848120 	lw	a0,-32480(gp)
    8490:	0c0004d8 	jal	0x1360
    8494:	afa20014 	sw	v0,20(sp)
    8498:	8fa20014 	lw	v0,20(sp)
    849c:	080020c5 	j	0x8314
    84a0:	00000000 	nop
    84a4:	a263002f 	sb	v1,47(s3)
    84a8:	02002021 	move	a0,s0
    84ac:	02602821 	move	a1,s3
    84b0:	24060036 	li	a2,54
    84b4:	0c0019f0 	jal	0x67c0
    84b8:	afa20014 	sw	v0,20(sp)
    84bc:	8fa20014 	lw	v0,20(sp)
    84c0:	08002102 	j	0x8408
    84c4:	00000000 	nop
    84c8:	08002123 	j	0x848c
    84cc:	00001021 	move	v0,zero
    84d0:	27bdffe8 	addiu	sp,sp,-24
    84d4:	afb00010 	sw	s0,16(sp)
    84d8:	afbf0014 	sw	ra,20(sp)
    84dc:	0c001fe2 	jal	0x7f88
    84e0:	00808021 	move	s0,a0
    84e4:	8e020008 	lw	v0,8(s0)
    84e8:	00000000 	nop
    84ec:	2c420003 	sltiu	v0,v0,3
    84f0:	14400016 	bnez	v0,0x854c
    84f4:	02002021 	move	a0,s0
    84f8:	0c001896 	jal	0x6258
    84fc:	00002021 	move	a0,zero
    8500:	1040000e 	beqz	v0,0x853c
    8504:	24030011 	li	v1,17
    8508:	a043002f 	sb	v1,47(v0)
    850c:	00402821 	move	a1,v0
    8510:	02002021 	move	a0,s0
    8514:	0c0019f0 	jal	0x67c0
    8518:	24060036 	li	a2,54
    851c:	8e03000c 	lw	v1,12(s0)
    8520:	2402000f 	li	v0,15
    8524:	24630001 	addiu	v1,v1,1
    8528:	ae020020 	sw	v0,32(s0)
    852c:	ae020024 	sw	v0,36(s0)
    8530:	24020006 	li	v0,6
    8534:	ae03000c 	sw	v1,12(s0)
    8538:	ae020008 	sw	v0,8(s0)
    853c:	8fbf0014 	lw	ra,20(sp)
    8540:	8fb00010 	lw	s0,16(sp)
    8544:	03e00008 	jr	ra
    8548:	27bd0018 	addiu	sp,sp,24
    854c:	8fbf0014 	lw	ra,20(sp)
    8550:	8fb00010 	lw	s0,16(sp)
    8554:	08001846 	j	0x6118
    8558:	27bd0018 	addiu	sp,sp,24
    855c:	27bdff10 	addiu	sp,sp,-240
    8560:	afb100e8 	sw	s1,232(sp)
    8564:	27b10018 	addiu	s1,sp,24
    8568:	afb000e4 	sw	s0,228(sp)
    856c:	240600c8 	li	a2,200
    8570:	00808021 	move	s0,a0
    8574:	00002821 	move	a1,zero
    8578:	afbf00ec 	sw	ra,236(sp)
    857c:	0c00092b 	jal	0x24ac
    8580:	02202021 	move	a0,s1
    8584:	02002021 	move	a0,s0
    8588:	02202821 	move	a1,s1
    858c:	0c0020af 	jal	0x82bc
    8590:	240600c8 	li	a2,200
    8594:	93a3001f 	lbu	v1,31(sp)
    8598:	00000000 	nop
    859c:	10600019 	beqz	v1,0x8604
    85a0:	02228821 	addu	s1,s1,v0
    85a4:	27a20032 	addiu	v0,sp,50
    85a8:	0222102b 	sltu	v0,s1,v0
    85ac:	14400015 	bnez	v0,0x8604
    85b0:	27a30025 	addiu	v1,sp,37
    85b4:	24060001 	li	a2,1
    85b8:	08002178 	j	0x85e0
    85bc:	24070004 	li	a3,4
    85c0:	90650000 	lbu	a1,0(v1)
    85c4:	00000000 	nop
    85c8:	10a60015 	beq	a1,a2,0x8620
    85cc:	00602021 	move	a0,v1
    85d0:	2484000e 	addiu	a0,a0,14
    85d4:	0224202b 	sltu	a0,s1,a0
    85d8:	1480000a 	bnez	a0,0x8604
    85dc:	24630001 	addiu	v1,v1,1
    85e0:	9064ffff 	lbu	a0,-1(v1)
    85e4:	00000000 	nop
    85e8:	1080fff5 	beqz	a0,0x85c0
    85ec:	2462ffff 	addiu	v0,v1,-1
    85f0:	00602021 	move	a0,v1
    85f4:	2484000e 	addiu	a0,a0,14
    85f8:	0224202b 	sltu	a0,s1,a0
    85fc:	1080fff8 	beqz	a0,0x85e0
    8600:	24630001 	addiu	v1,v1,1
    8604:	0c002134 	jal	0x84d0
    8608:	02002021 	move	a0,s0
    860c:	8fbf00ec 	lw	ra,236(sp)
    8610:	8fb100e8 	lw	s1,232(sp)
    8614:	8fb000e4 	lw	s0,228(sp)
    8618:	03e00008 	jr	ra
    861c:	27bd00f0 	addiu	sp,sp,240
    8620:	90650001 	lbu	a1,1(v1)
    8624:	00000000 	nop
    8628:	14a0ffe9 	bnez	a1,0x85d0
    862c:	00000000 	nop
    8630:	90650002 	lbu	a1,2(v1)
    8634:	00000000 	nop
    8638:	14a6ffe5 	bne	a1,a2,0x85d0
    863c:	00000000 	nop
    8640:	90650007 	lbu	a1,7(v1)
    8644:	00000000 	nop
    8648:	14a0ffe1 	bnez	a1,0x85d0
    864c:	00000000 	nop
    8650:	90650008 	lbu	a1,8(v1)
    8654:	00000000 	nop
    8658:	14a7ffde 	bne	a1,a3,0x85d4
    865c:	2484000e 	addiu	a0,a0,14
    8660:	9045000a 	lbu	a1,10(v0)
    8664:	9046000b 	lbu	a2,11(v0)
    8668:	9047000c 	lbu	a3,12(v0)
    866c:	00061c00 	sll	v1,a2,0x10
    8670:	9042000d 	lbu	v0,13(v0)
    8674:	00058e00 	sll	s1,a1,0x18
    8678:	02238825 	or	s1,s1,v1
    867c:	3c040001 	lui	a0,0x1
    8680:	02228825 	or	s1,s1,v0
    8684:	00071a00 	sll	v1,a3,0x8
    8688:	2484ce4c 	addiu	a0,a0,-12724
    868c:	02238825 	or	s1,s1,v1
    8690:	0c000d18 	jal	0x3460
    8694:	afa20010 	sw	v0,16(sp)
    8698:	8e02009c 	lw	v0,156(s0)
    869c:	00000000 	nop
    86a0:	1040ffd8 	beqz	v0,0x8604
    86a4:	ae1100a8 	sw	s1,168(s0)
    86a8:	8e0500a0 	lw	a1,160(s0)
    86ac:	02002021 	move	a0,s0
    86b0:	0040f809 	jalr	v0
    86b4:	02203021 	move	a2,s1
    86b8:	08002181 	j	0x8604
    86bc:	00000000 	nop
    86c0:	27bdfdc0 	addiu	sp,sp,-576
    86c4:	afb40238 	sw	s4,568(sp)
    86c8:	afb30234 	sw	s3,564(sp)
    86cc:	afb1022c 	sw	s1,556(sp)
    86d0:	afb00228 	sw	s0,552(sp)
    86d4:	afbf023c 	sw	ra,572(sp)
    86d8:	afb20230 	sw	s2,560(sp)
    86dc:	00808021 	move	s0,a0
    86e0:	8fb40250 	lw	s4,592(sp)
    86e4:	8fb30254 	lw	s3,596(sp)
    86e8:	10800037 	beqz	a0,0x87c8
    86ec:	00a08821 	move	s1,a1
    86f0:	00a02021 	move	a0,a1
    86f4:	3c050001 	lui	a1,0x1
    86f8:	24a5cba0 	addiu	a1,a1,-13408
    86fc:	afa60224 	sw	a2,548(sp)
    8700:	0c0008a8 	jal	0x22a0
    8704:	afa70220 	sw	a3,544(sp)
    8708:	8fa60224 	lw	a2,548(sp)
    870c:	8fa70220 	lw	a3,544(sp)
    8710:	10400024 	beqz	v0,0x87a4
    8714:	00000000 	nop
    8718:	27b20028 	addiu	s2,sp,40
    871c:	02202821 	move	a1,s1
    8720:	02402021 	move	a0,s2
    8724:	afb40010 	sw	s4,16(sp)
    8728:	afb30014 	sw	s3,20(sp)
    872c:	afa00018 	sw	zero,24(sp)
    8730:	afa0001c 	sw	zero,28(sp)
    8734:	afa00020 	sw	zero,32(sp)
    8738:	0c0009c7 	jal	0x271c
    873c:	afa00024 	sw	zero,36(sp)
    8740:	0c0008e0 	jal	0x2380
    8744:	02402021 	move	a0,s2
    8748:	00403021 	move	a2,v0
    874c:	02002021 	move	a0,s0
    8750:	0c001ffd 	jal	0x7ff4
    8754:	02402821 	move	a1,s2
    8758:	8e02002c 	lw	v0,44(s0)
    875c:	00000000 	nop
    8760:	10400006 	beqz	v0,0x877c
    8764:	3c050001 	lui	a1,0x1
    8768:	02202021 	move	a0,s1
    876c:	0c0008c1 	jal	0x2304
    8770:	24a5d2c8 	addiu	a1,a1,-11576
    8774:	10400003 	beqz	v0,0x8784
    8778:	00000000 	nop
    877c:	0c001fe2 	jal	0x7f88
    8780:	02002021 	move	a0,s0
    8784:	8fbf023c 	lw	ra,572(sp)
    8788:	8fb40238 	lw	s4,568(sp)
    878c:	8fb30234 	lw	s3,564(sp)
    8790:	8fb20230 	lw	s2,560(sp)
    8794:	8fb1022c 	lw	s1,556(sp)
    8798:	8fb00228 	lw	s0,552(sp)
    879c:	03e00008 	jr	ra
    87a0:	27bd0240 	addiu	sp,sp,576
    87a4:	0c0008e0 	jal	0x2380
    87a8:	00c02021 	move	a0,a2
    87ac:	8fa60224 	lw	a2,548(sp)
    87b0:	02002021 	move	a0,s0
    87b4:	00c02821 	move	a1,a2
    87b8:	0c001ffd 	jal	0x7ff4
    87bc:	00403021 	move	a2,v0
    87c0:	080021d6 	j	0x8758
    87c4:	00000000 	nop
    87c8:	00a02021 	move	a0,a1
    87cc:	00c02821 	move	a1,a2
    87d0:	00e03021 	move	a2,a3
    87d4:	02803821 	move	a3,s4
    87d8:	0c000d18 	jal	0x3460
    87dc:	afb30010 	sw	s3,16(sp)
    87e0:	8fbf023c 	lw	ra,572(sp)
    87e4:	8fb40238 	lw	s4,568(sp)
    87e8:	8fb30234 	lw	s3,564(sp)
    87ec:	8fb20230 	lw	s2,560(sp)
    87f0:	8fb1022c 	lw	s1,556(sp)
    87f4:	8fb00228 	lw	s0,552(sp)
    87f8:	03e00008 	jr	ra
    87fc:	27bd0240 	addiu	sp,sp,576
    8800:	27bdffc8 	addiu	sp,sp,-56
    8804:	afb30028 	sw	s3,40(sp)
    8808:	afbf0034 	sw	ra,52(sp)
    880c:	afb50030 	sw	s5,48(sp)
    8810:	afb4002c 	sw	s4,44(sp)
    8814:	afb20024 	sw	s2,36(sp)
    8818:	afb10020 	sw	s1,32(sp)
    881c:	0c00016a 	jal	0x5a8
    8820:	afb0001c 	sw	s0,28(sp)
    8824:	00409821 	move	s3,v0
    8828:	8f828134 	lw	v0,-32460(gp)
    882c:	00000000 	nop
    8830:	02621023 	subu	v0,s3,v0
    8834:	2c42005f 	sltiu	v0,v0,95
    8838:	1440000c 	bnez	v0,0x886c
    883c:	00000000 	nop
    8840:	8f828078 	lw	v0,-32648(gp)
    8844:	00000000 	nop
    8848:	14400091 	bnez	v0,0x8a90
    884c:	2403003c 	li	v1,60
    8850:	8f828114 	lw	v0,-32492(gp)
    8854:	8f83811c 	lw	v1,-32484(gp)
    8858:	24420001 	addiu	v0,v0,1
    885c:	2463ffff 	addiu	v1,v1,-1
    8860:	af828114 	sw	v0,-32492(gp)
    8864:	186000a8 	blez	v1,0x8b08
    8868:	af83811c 	sw	v1,-32484(gp)
    886c:	8f848120 	lw	a0,-32480(gp)
    8870:	0c0004b2 	jal	0x12c8
    8874:	00000000 	nop
    8878:	8f908124 	lw	s0,-32476(gp)
    887c:	00000000 	nop
    8880:	12000034 	beqz	s0,0x8954
    8884:	00000000 	nop
    8888:	9602026a 	lhu	v0,618(s0)
    888c:	8f838130 	lw	v1,-32464(gp)
    8890:	3272ffff 	andi	s2,s3,0xffff
    8894:	00621021 	addu	v0,v1,v0
    8898:	00521023 	subu	v0,v0,s2
    889c:	2442ffff 	addiu	v0,v0,-1
    88a0:	00021400 	sll	v0,v0,0x10
    88a4:	3c150001 	lui	s5,0x1
    88a8:	00021403 	sra	v0,v0,0x10
    88ac:	24140004 	li	s4,4
    88b0:	26b5c8b0 	addiu	s5,s5,-14160
    88b4:	8e110258 	lw	s1,600(s0)
    88b8:	1840000e 	blez	v0,0x88f4
    88bc:	a602026a 	sh	v0,618(s0)
    88c0:	12200024 	beqz	s1,0x8954
    88c4:	00000000 	nop
    88c8:	02208021 	move	s0,s1
    88cc:	9622026a 	lhu	v0,618(s1)
    88d0:	8f838130 	lw	v1,-32464(gp)
    88d4:	8e110258 	lw	s1,600(s0)
    88d8:	00621021 	addu	v0,v1,v0
    88dc:	00521023 	subu	v0,v0,s2
    88e0:	2442ffff 	addiu	v0,v0,-1
    88e4:	00021400 	sll	v0,v0,0x10
    88e8:	00021403 	sra	v0,v0,0x10
    88ec:	1c40fff4 	bgtz	v0,0x88c0
    88f0:	a602026a 	sh	v0,618(s0)
    88f4:	8f828078 	lw	v0,-32648(gp)
    88f8:	00000000 	nop
    88fc:	1440004b 	bnez	v0,0x8a2c
    8900:	02a02021 	move	a0,s5
    8904:	27848124 	addiu	a0,gp,-32476
    8908:	27858128 	addiu	a1,gp,-32472
    890c:	0c001792 	jal	0x5e48
    8910:	02003021 	move	a2,s0
    8914:	9202026d 	lbu	v0,621(s0)
    8918:	00000000 	nop
    891c:	2c420004 	sltiu	v0,v0,4
    8920:	1040002a 	beqz	v0,0x89cc
    8924:	00000000 	nop
    8928:	8e020260 	lw	v0,608(s0)
    892c:	00000000 	nop
    8930:	8c420008 	lw	v0,8(v0)
    8934:	00000000 	nop
    8938:	2c420007 	sltiu	v0,v0,7
    893c:	1440006b 	bnez	v0,0x8aec
    8940:	00000000 	nop
    8944:	0c001804 	jal	0x6010
    8948:	02002021 	move	a0,s0
    894c:	1620ffde 	bnez	s1,0x88c8
    8950:	00000000 	nop
    8954:	8f828134 	lw	v0,-32460(gp)
    8958:	00000000 	nop
    895c:	02621023 	subu	v0,s3,v0
    8960:	2c42005f 	sltiu	v0,v0,95
    8964:	14400024 	bnez	v0,0x89f8
    8968:	00000000 	nop
    896c:	8f84812c 	lw	a0,-32468(gp)
    8970:	00000000 	nop
    8974:	1080001f 	beqz	a0,0x89f4
    8978:	2411000f 	li	s1,15
    897c:	24120007 	li	s2,7
    8980:	8c820020 	lw	v0,32(a0)
    8984:	8c900000 	lw	s0,0(a0)
    8988:	1040000c 	beqz	v0,0x89bc
    898c:	2442ffff 	addiu	v0,v0,-1
    8990:	1440000a 	bnez	v0,0x89bc
    8994:	ac820020 	sw	v0,32(a0)
    8998:	8c820008 	lw	v0,8(a0)
    899c:	00000000 	nop
    89a0:	2c430006 	sltiu	v1,v0,6
    89a4:	1460004d 	bnez	v1,0x8adc
    89a8:	ac910020 	sw	s1,32(a0)
    89ac:	1052002a 	beq	v0,s2,0x8a58
    89b0:	00000000 	nop
    89b4:	0c001846 	jal	0x6118
    89b8:	00000000 	nop
    89bc:	1200000d 	beqz	s0,0x89f4
    89c0:	02002021 	move	a0,s0
    89c4:	08002260 	j	0x8980
    89c8:	00000000 	nop
    89cc:	8e040260 	lw	a0,608(s0)
    89d0:	00000000 	nop
    89d4:	8c820008 	lw	v0,8(a0)
    89d8:	00000000 	nop
    89dc:	1454ffd9 	bne	v0,s4,0x8944
    89e0:	00000000 	nop
    89e4:	0c002134 	jal	0x84d0
    89e8:	00000000 	nop
    89ec:	08002251 	j	0x8944
    89f0:	00000000 	nop
    89f4:	af938134 	sw	s3,-32460(gp)
    89f8:	8f848120 	lw	a0,-32480(gp)
    89fc:	0c0004d8 	jal	0x1360
    8a00:	00000000 	nop
    8a04:	8fbf0034 	lw	ra,52(sp)
    8a08:	af938130 	sw	s3,-32464(gp)
    8a0c:	8fb50030 	lw	s5,48(sp)
    8a10:	8fb4002c 	lw	s4,44(sp)
    8a14:	8fb30028 	lw	s3,40(sp)
    8a18:	8fb20024 	lw	s2,36(sp)
    8a1c:	8fb10020 	lw	s1,32(sp)
    8a20:	8fb0001c 	lw	s0,28(sp)
    8a24:	03e00008 	jr	ra
    8a28:	27bd0038 	addiu	sp,sp,56
    8a2c:	96020268 	lhu	v0,616(s0)
    8a30:	8e060260 	lw	a2,608(s0)
    8a34:	2442ffca 	addiu	v0,v0,-54
    8a38:	9207026d 	lbu	a3,621(s0)
    8a3c:	afa20010 	sw	v0,16(sp)
    8a40:	8cc20008 	lw	v0,8(a2)
    8a44:	02002821 	move	a1,s0
    8a48:	0c000d18 	jal	0x3460
    8a4c:	afa20014 	sw	v0,20(sp)
    8a50:	08002242 	j	0x8908
    8a54:	27848124 	addiu	a0,gp,-32476
    8a58:	8c820004 	lw	v0,4(a0)
    8a5c:	00000000 	nop
    8a60:	10400026 	beqz	v0,0x8afc
    8a64:	00000000 	nop
    8a68:	ac500000 	sw	s0,0(v0)
    8a6c:	8c830000 	lw	v1,0(a0)
    8a70:	00000000 	nop
    8a74:	10600002 	beqz	v1,0x8a80
    8a78:	00000000 	nop
    8a7c:	ac620004 	sw	v0,4(v1)
    8a80:	0c00036a 	jal	0xda8
    8a84:	00000000 	nop
    8a88:	0800226f 	j	0x89bc
    8a8c:	00000000 	nop
    8a90:	8f828114 	lw	v0,-32492(gp)
    8a94:	00000000 	nop
    8a98:	14600002 	bnez	v1,0x8aa4
    8a9c:	0043001b 	divu	zero,v0,v1
    8aa0:	0007000d 	break	0x7
    8aa4:	00001810 	mfhi	v1
    8aa8:	1460ff6a 	bnez	v1,0x8854
    8aac:	00000000 	nop
    8ab0:	8f858118 	lw	a1,-32488(gp)
    8ab4:	00000000 	nop
    8ab8:	28a20063 	slti	v0,a1,99
    8abc:	14400018 	bnez	v0,0x8b20
    8ac0:	00000000 	nop
    8ac4:	3c040001 	lui	a0,0x1
    8ac8:	0c000d18 	jal	0x3460
    8acc:	2484ce68 	addiu	a0,a0,-12696
    8ad0:	8f828114 	lw	v0,-32492(gp)
    8ad4:	08002215 	j	0x8854
    8ad8:	00000000 	nop
    8adc:	0c002134 	jal	0x84d0
    8ae0:	00000000 	nop
    8ae4:	0800226f 	j	0x89bc
    8ae8:	00000000 	nop
    8aec:	0c001900 	jal	0x6400
    8af0:	02002021 	move	a0,s0
    8af4:	08002230 	j	0x88c0
    8af8:	00000000 	nop
    8afc:	af90812c 	sw	s0,-32468(gp)
    8b00:	0800229d 	j	0x8a74
    8b04:	02001821 	move	v1,s0
    8b08:	00002021 	move	a0,zero
    8b0c:	24050190 	li	a1,400
    8b10:	0c001a37 	jal	0x68dc
    8b14:	24060001 	li	a2,1
    8b18:	0800221b 	j	0x886c
    8b1c:	00000000 	nop
    8b20:	3c040001 	lui	a0,0x1
    8b24:	0c000d18 	jal	0x3460
    8b28:	2484ce6c 	addiu	a0,a0,-12692
    8b2c:	08002214 	j	0x8850
    8b30:	00000000 	nop
    8b34:	27bdffb8 	addiu	sp,sp,-72
    8b38:	afb20030 	sw	s2,48(sp)
    8b3c:	27b20010 	addiu	s2,sp,16
    8b40:	afbf0044 	sw	ra,68(sp)
    8b44:	afb60040 	sw	s6,64(sp)
    8b48:	afb5003c 	sw	s5,60(sp)
    8b4c:	afb40038 	sw	s4,56(sp)
    8b50:	afb1002c 	sw	s1,44(sp)
    8b54:	afb00028 	sw	s0,40(sp)
    8b58:	afb30034 	sw	s3,52(sp)
    8b5c:	0c00016a 	jal	0x5a8
    8b60:	3c160001 	lui	s6,0x1
    8b64:	3c150001 	lui	s5,0x1
    8b68:	02402021 	move	a0,s2
    8b6c:	00002821 	move	a1,zero
    8b70:	24060010 	li	a2,16
    8b74:	00408021 	move	s0,v0
    8b78:	0c00092b 	jal	0x24ac
    8b7c:	00008821 	move	s1,zero
    8b80:	24140001 	li	s4,1
    8b84:	26d6c884 	addiu	s6,s6,-14204
    8b88:	26b5cdc0 	addiu	s5,s5,-12864
    8b8c:	24040007 	li	a0,7
    8b90:	0c000e84 	jal	0x3a10
    8b94:	00002821 	move	a1,zero
    8b98:	8f84814c 	lw	a0,-32436(gp)
    8b9c:	02402821 	move	a1,s2
    8ba0:	0c000595 	jal	0x1654
    8ba4:	2406000a 	li	a2,10
    8ba8:	14400007 	bnez	v0,0x8bc8
    8bac:	00000000 	nop
    8bb0:	8fa20010 	lw	v0,16(sp)
    8bb4:	8fb30014 	lw	s3,20(sp)
    8bb8:	10400031 	beqz	v0,0x8c80
    8bbc:	24040007 	li	a0,7
    8bc0:	1054000e 	beq	v0,s4,0x8bfc
    8bc4:	00000000 	nop
    8bc8:	12200018 	beqz	s1,0x8c2c
    8bcc:	00000000 	nop
    8bd0:	0c00016a 	jal	0x5a8
    8bd4:	00000000 	nop
    8bd8:	00501823 	subu	v1,v0,s0
    8bdc:	2c630065 	sltiu	v1,v1,101
    8be0:	1460ffeb 	bnez	v1,0x8b90
    8be4:	24040007 	li	a0,7
    8be8:	0c002200 	jal	0x8800
    8bec:	afa20020 	sw	v0,32(sp)
    8bf0:	8fa20020 	lw	v0,32(sp)
    8bf4:	080022e3 	j	0x8b8c
    8bf8:	00408021 	move	s0,v0
    8bfc:	0c000e84 	jal	0x3a10
    8c00:	24050002 	li	a1,2
    8c04:	12710007 	beq	s3,s1,0x8c24
    8c08:	00000000 	nop
    8c0c:	0c000842 	jal	0x2108
    8c10:	00000000 	nop
    8c14:	02c02021 	move	a0,s6
    8c18:	02a02821 	move	a1,s5
    8c1c:	0c000dc6 	jal	0x3718
    8c20:	24060458 	li	a2,1112
    8c24:	0c001821 	jal	0x6084
    8c28:	02602021 	move	a0,s3
    8c2c:	8f848120 	lw	a0,-32480(gp)
    8c30:	0c0004b2 	jal	0x12c8
    8c34:	00000000 	nop
    8c38:	8f918148 	lw	s1,-32440(gp)
    8c3c:	00000000 	nop
    8c40:	1220001b 	beqz	s1,0x8cb0
    8c44:	02203021 	move	a2,s1
    8c48:	27858148 	addiu	a1,gp,-32440
    8c4c:	0c001792 	jal	0x5e48
    8c50:	27848144 	addiu	a0,gp,-32444
    8c54:	8f848120 	lw	a0,-32480(gp)
    8c58:	0c0004d8 	jal	0x1360
    8c5c:	00000000 	nop
    8c60:	24050004 	li	a1,4
    8c64:	0c000e84 	jal	0x3a10
    8c68:	24040007 	li	a0,7
    8c6c:	96250268 	lhu	a1,616(s1)
    8c70:	0c000e7f 	jal	0x39fc
    8c74:	02202021 	move	a0,s1
    8c78:	080022f4 	j	0x8bd0
    8c7c:	00000000 	nop
    8c80:	0c000e84 	jal	0x3a10
    8c84:	24050001 	li	a1,1
    8c88:	97a5001a 	lhu	a1,26(sp)
    8c8c:	02602021 	move	a0,s3
    8c90:	0c001b48 	jal	0x6d20
    8c94:	a6650268 	sh	a1,616(s3)
    8c98:	1440ffcb 	bnez	v0,0x8bc8
    8c9c:	00000000 	nop
    8ca0:	0c001804 	jal	0x6010
    8ca4:	02602021 	move	a0,s3
    8ca8:	080022f2 	j	0x8bc8
    8cac:	00000000 	nop
    8cb0:	8f848120 	lw	a0,-32480(gp)
    8cb4:	0c0004d8 	jal	0x1360
    8cb8:	00000000 	nop
    8cbc:	080022f4 	j	0x8bd0
    8cc0:	00000000 	nop
    8cc4:	27bdff08 	addiu	sp,sp,-248
    8cc8:	afb200e4 	sw	s2,228(sp)
    8ccc:	3c070001 	lui	a3,0x1
    8cd0:	00a09021 	move	s2,a1
    8cd4:	8f858110 	lw	a1,-32496(gp)
    8cd8:	24e7855c 	addiu	a3,a3,-31396
    8cdc:	afb300e8 	sw	s3,232(sp)
    8ce0:	afb100e0 	sw	s1,224(sp)
    8ce4:	afb000dc 	sw	s0,220(sp)
    8ce8:	00809821 	move	s3,a0
    8cec:	00c08821 	move	s1,a2
    8cf0:	00002021 	move	a0,zero
    8cf4:	24060035 	li	a2,53
    8cf8:	27b00010 	addiu	s0,sp,16
    8cfc:	afbf00f4 	sw	ra,244(sp)
    8d00:	afb500f0 	sw	s5,240(sp)
    8d04:	0c001f21 	jal	0x7c84
    8d08:	afb400ec 	sw	s4,236(sp)
    8d0c:	02002021 	move	a0,s0
    8d10:	00002821 	move	a1,zero
    8d14:	240600c8 	li	a2,200
    8d18:	24150001 	li	s5,1
    8d1c:	0c00092b 	jal	0x24ac
    8d20:	0040a021 	move	s4,v0
    8d24:	02602821 	move	a1,s3
    8d28:	24060064 	li	a2,100
    8d2c:	27a4001d 	addiu	a0,sp,29
    8d30:	a3b50011 	sb	s5,17(sp)
    8d34:	a3b50012 	sb	s5,18(sp)
    8d38:	0c000867 	jal	0x219c
    8d3c:	a3b50015 	sb	s5,21(sp)
    8d40:	24030001 	li	v1,1
    8d44:	a3b5001c 	sb	s5,28(sp)
    8d48:	27a7001c 	addiu	a3,sp,28
    8d4c:	2405002e 	li	a1,46
    8d50:	10600013 	beqz	v1,0x8da0
    8d54:	24060064 	li	a2,100
    8d58:	24e80001 	addiu	t0,a3,1
    8d5c:	01001021 	move	v0,t0
    8d60:	0800235f 	j	0x8d7c
    8d64:	00002021 	move	a0,zero
    8d68:	10600008 	beqz	v1,0x8d8c
    8d6c:	00000000 	nop
    8d70:	24840001 	addiu	a0,a0,1
    8d74:	1086fff9 	beq	a0,a2,0x8d5c
    8d78:	24420001 	addiu	v0,v0,1
    8d7c:	90430000 	lbu	v1,0(v0)
    8d80:	00000000 	nop
    8d84:	1465fff8 	bne	v1,a1,0x8d68
    8d88:	00000000 	nop
    8d8c:	a0e40000 	sb	a0,0(a3)
    8d90:	90430000 	lbu	v1,0(v0)
    8d94:	00000000 	nop
    8d98:	1460ffef 	bnez	v1,0x8d58
    8d9c:	00403821 	move	a3,v0
    8da0:	24e70001 	addiu	a3,a3,1
    8da4:	00f03023 	subu	a2,a3,s0
    8da8:	24c60004 	addiu	a2,a2,4
    8dac:	24020001 	li	v0,1
    8db0:	28c3003c 	slti	v1,a2,60
    8db4:	a0e20001 	sb	v0,1(a3)
    8db8:	10600002 	beqz	v1,0x8dc4
    8dbc:	a0e20003 	sb	v0,3(a3)
    8dc0:	2406003c 	li	a2,60
    8dc4:	ae92009c 	sw	s2,156(s4)
    8dc8:	ae9100a0 	sw	s1,160(s4)
    8dcc:	ae8000a8 	sw	zero,168(s4)
    8dd0:	02802021 	move	a0,s4
    8dd4:	0c001ffd 	jal	0x7ff4
    8dd8:	02002821 	move	a1,s0
    8ddc:	8fbf00f4 	lw	ra,244(sp)
    8de0:	8fb500f0 	lw	s5,240(sp)
    8de4:	8fb400ec 	lw	s4,236(sp)
    8de8:	8fb300e8 	lw	s3,232(sp)
    8dec:	8fb200e4 	lw	s2,228(sp)
    8df0:	8fb100e0 	lw	s1,224(sp)
    8df4:	8fb000dc 	lw	s0,220(sp)
    8df8:	03e00008 	jr	ra
    8dfc:	27bd00f8 	addiu	sp,sp,248
    8e00:	27bdffe0 	addiu	sp,sp,-32
    8e04:	afb10018 	sw	s1,24(sp)
    8e08:	3c110001 	lui	s1,0x1
    8e0c:	afb00014 	sw	s0,20(sp)
    8e10:	00808021 	move	s0,a0
    8e14:	afbf001c 	sw	ra,28(sp)
    8e18:	0c0008e0 	jal	0x2380
    8e1c:	2624cea8 	addiu	a0,s1,-12632
    8e20:	00403021 	move	a2,v0
    8e24:	02002021 	move	a0,s0
    8e28:	0c001ffd 	jal	0x7ff4
    8e2c:	2625cea8 	addiu	a1,s1,-12632
    8e30:	02002021 	move	a0,s0
    8e34:	8fbf001c 	lw	ra,28(sp)
    8e38:	8fb10018 	lw	s1,24(sp)
    8e3c:	8fb00014 	lw	s0,20(sp)
    8e40:	08002134 	j	0x84d0
    8e44:	27bd0020 	addiu	sp,sp,32
    8e48:	27bdfd18 	addiu	sp,sp,-744
    8e4c:	afb002c0 	sw	s0,704(sp)
    8e50:	afbf02e4 	sw	ra,740(sp)
    8e54:	afbe02e0 	sw	s8,736(sp)
    8e58:	afb702dc 	sw	s7,732(sp)
    8e5c:	afb602d8 	sw	s6,728(sp)
    8e60:	afb502d4 	sw	s5,724(sp)
    8e64:	afb402d0 	sw	s4,720(sp)
    8e68:	afb302cc 	sw	s3,716(sp)
    8e6c:	afb202c8 	sw	s2,712(sp)
    8e70:	afb102c4 	sw	s1,708(sp)
    8e74:	1080000a 	beqz	a0,0x8ea0
    8e78:	00808021 	move	s0,a0
    8e7c:	3c030001 	lui	v1,0x1
    8e80:	8c820098 	lw	v0,152(a0)
    8e84:	24638e48 	addiu	v1,v1,-29112
    8e88:	10430011 	beq	v0,v1,0x8ed0
    8e8c:	27b10060 	addiu	s1,sp,96
    8e90:	1040000f 	beqz	v0,0x8ed0
    8e94:	00000000 	nop
    8e98:	0040f809 	jalr	v0
    8e9c:	00000000 	nop
    8ea0:	8fbf02e4 	lw	ra,740(sp)
    8ea4:	8fbe02e0 	lw	s8,736(sp)
    8ea8:	8fb702dc 	lw	s7,732(sp)
    8eac:	8fb602d8 	lw	s6,728(sp)
    8eb0:	8fb502d4 	lw	s5,724(sp)
    8eb4:	8fb402d0 	lw	s4,720(sp)
    8eb8:	8fb302cc 	lw	s3,716(sp)
    8ebc:	8fb202c8 	lw	s2,712(sp)
    8ec0:	8fb102c4 	lw	s1,708(sp)
    8ec4:	8fb002c0 	lw	s0,704(sp)
    8ec8:	03e00008 	jr	ra
    8ecc:	27bd02e8 	addiu	sp,sp,744
    8ed0:	02002021 	move	a0,s0
    8ed4:	02202821 	move	a1,s1
    8ed8:	0c0020af 	jal	0x82bc
    8edc:	24060257 	li	a2,599
    8ee0:	1040ffef 	beqz	v0,0x8ea0
    8ee4:	afa202b8 	sw	v0,696(sp)
    8ee8:	27a30010 	addiu	v1,sp,16
    8eec:	00621021 	addu	v0,v1,v0
    8ef0:	3c050001 	lui	a1,0x1
    8ef4:	02202021 	move	a0,s1
    8ef8:	24a5cefc 	addiu	a1,a1,-12548
    8efc:	24060005 	li	a2,5
    8f00:	0c0008b2 	jal	0x22c8
    8f04:	a0400050 	sb	zero,80(v0)
    8f08:	1440ffe5 	bnez	v0,0x8ea0
    8f0c:	2403ffff 	li	v1,-1
    8f10:	8f82815c 	lw	v0,-32420(gp)
    8f14:	00000000 	nop
    8f18:	8c540004 	lw	s4,4(v0)
    8f1c:	00000000 	nop
    8f20:	12830038 	beq	s4,v1,0x9004
    8f24:	27b50064 	addiu	s5,sp,100
    8f28:	2412000c 	li	s2,12
    8f2c:	0000b821 	move	s7,zero
    8f30:	080023d6 	j	0x8f58
    8f34:	241effff 	li	s8,-1
    8f38:	8f82815c 	lw	v0,-32420(gp)
    8f3c:	00000000 	nop
    8f40:	00521021 	addu	v0,v0,s2
    8f44:	8c540004 	lw	s4,4(v0)
    8f48:	00000000 	nop
    8f4c:	129e002d 	beq	s4,s8,0x9004
    8f50:	0240b821 	move	s7,s2
    8f54:	00609021 	move	s2,v1
    8f58:	8c530000 	lw	s3,0(v0)
    8f5c:	8c560008 	lw	s6,8(v0)
    8f60:	0c0008e0 	jal	0x2380
    8f64:	02602021 	move	a0,s3
    8f68:	00403021 	move	a2,v0
    8f6c:	02a02021 	move	a0,s5
    8f70:	0c0008b2 	jal	0x22c8
    8f74:	02602821 	move	a1,s3
    8f78:	1440ffef 	bnez	v0,0x8f38
    8f7c:	2643000c 	addiu	v1,s2,12
    8f80:	2402fffe 	li	v0,-2
    8f84:	1282009b 	beq	s4,v0,0x91f4
    8f88:	02002021 	move	a0,s0
    8f8c:	1280002a 	beqz	s4,0x9038
    8f90:	00000000 	nop
    8f94:	3c050001 	lui	a1,0x1
    8f98:	02602021 	move	a0,s3
    8f9c:	0c0008c1 	jal	0x2304
    8fa0:	24a5cf2c 	addiu	a1,a1,-12500
    8fa4:	10400028 	beqz	v0,0x9048
    8fa8:	3c020001 	lui	v0,0x1
    8fac:	2442d0f4 	addiu	v0,v0,-12044
    8fb0:	00009021 	move	s2,zero
    8fb4:	00402821 	move	a1,v0
    8fb8:	02803021 	move	a2,s4
    8fbc:	0c0009c7 	jal	0x271c
    8fc0:	02202021 	move	a0,s1
    8fc4:	0c0008e0 	jal	0x2380
    8fc8:	02202021 	move	a0,s1
    8fcc:	00403021 	move	a2,v0
    8fd0:	02002021 	move	a0,s0
    8fd4:	0c001ffd 	jal	0x7ff4
    8fd8:	02202821 	move	a1,s1
    8fdc:	02002021 	move	a0,s0
    8fe0:	02c02821 	move	a1,s6
    8fe4:	0c001ffd 	jal	0x7ff4
    8fe8:	02803021 	move	a2,s4
    8fec:	16400040 	bnez	s2,0x90f0
    8ff0:	00000000 	nop
    8ff4:	0c002134 	jal	0x84d0
    8ff8:	02002021 	move	a0,s0
    8ffc:	080023a8 	j	0x8ea0
    9000:	00000000 	nop
    9004:	8f828160 	lw	v0,-32416(gp)
    9008:	00000000 	nop
    900c:	14400045 	bnez	v0,0x9124
    9010:	26330005 	addiu	s3,s1,5
    9014:	3c110001 	lui	s1,0x1
    9018:	0c0008e0 	jal	0x2380
    901c:	2624d1c4 	addiu	a0,s1,-11836
    9020:	00403021 	move	a2,v0
    9024:	02002021 	move	a0,s0
    9028:	0c001ffd 	jal	0x7ff4
    902c:	2625d1c4 	addiu	a1,s1,-11836
    9030:	080023fd 	j	0x8ff4
    9034:	00000000 	nop
    9038:	0c0008e0 	jal	0x2380
    903c:	02c02021 	move	a0,s6
    9040:	080023e5 	j	0x8f94
    9044:	0040a021 	move	s4,v0
    9048:	3c050001 	lui	a1,0x1
    904c:	02602021 	move	a0,s3
    9050:	0c0008c1 	jal	0x2304
    9054:	24a5cf1c 	addiu	a1,a1,-12516
    9058:	10400087 	beqz	v0,0x9278
    905c:	02602021 	move	a0,s3
    9060:	8f82815c 	lw	v0,-32420(gp)
    9064:	00000000 	nop
    9068:	8c520008 	lw	s2,8(v0)
    906c:	00000000 	nop
    9070:	12400098 	beqz	s2,0x92d4
    9074:	3c020001 	lui	v0,0x1
    9078:	0c0008e0 	jal	0x2380
    907c:	02402021 	move	a0,s2
    9080:	00409821 	move	s3,v0
    9084:	8f82815c 	lw	v0,-32420(gp)
    9088:	00000000 	nop
    908c:	8c440014 	lw	a0,20(v0)
    9090:	0c0008e0 	jal	0x2380
    9094:	00000000 	nop
    9098:	02621021 	addu	v0,s3,v0
    909c:	3c050001 	lui	a1,0x1
    90a0:	24a5d0f4 	addiu	a1,a1,-12044
    90a4:	00543021 	addu	a2,v0,s4
    90a8:	0c0009c7 	jal	0x271c
    90ac:	02202021 	move	a0,s1
    90b0:	0c0008e0 	jal	0x2380
    90b4:	02202021 	move	a0,s1
    90b8:	00403021 	move	a2,v0
    90bc:	02202821 	move	a1,s1
    90c0:	0c001ffd 	jal	0x7ff4
    90c4:	02002021 	move	a0,s0
    90c8:	0c0008e0 	jal	0x2380
    90cc:	02402021 	move	a0,s2
    90d0:	00403021 	move	a2,v0
    90d4:	02002021 	move	a0,s0
    90d8:	0c001ffd 	jal	0x7ff4
    90dc:	02402821 	move	a1,s2
    90e0:	02002021 	move	a0,s0
    90e4:	02c02821 	move	a1,s6
    90e8:	0c001ffd 	jal	0x7ff4
    90ec:	02803021 	move	a2,s4
    90f0:	8f82815c 	lw	v0,-32420(gp)
    90f4:	00000000 	nop
    90f8:	8c450014 	lw	a1,20(v0)
    90fc:	00000000 	nop
    9100:	00a02021 	move	a0,a1
    9104:	0c0008e0 	jal	0x2380
    9108:	afa502bc 	sw	a1,700(sp)
    910c:	8fa502bc 	lw	a1,700(sp)
    9110:	02002021 	move	a0,s0
    9114:	0c001ffd 	jal	0x7ff4
    9118:	00403021 	move	a2,v0
    911c:	080023fd 	j	0x8ff4
    9120:	00000000 	nop
    9124:	3c050001 	lui	a1,0x1
    9128:	02602021 	move	a0,s3
    912c:	0c0008c1 	jal	0x2304
    9130:	24a5d2e4 	addiu	a1,a1,-11548
    9134:	10400002 	beqz	v0,0x9140
    9138:	00000000 	nop
    913c:	a0400000 	sb	zero,0(v0)
    9140:	3c050001 	lui	a1,0x1
    9144:	27a40010 	addiu	a0,sp,16
    9148:	0c00085e 	jal	0x2178
    914c:	24a5cf04 	addiu	a1,a1,-12540
    9150:	3c140001 	lui	s4,0x1
    9154:	27a40010 	addiu	a0,sp,16
    9158:	02602821 	move	a1,s3
    915c:	0c00088b 	jal	0x222c
    9160:	2406003c 	li	a2,60
    9164:	27a40010 	addiu	a0,sp,16
    9168:	0c003027 	jal	0xc09c
    916c:	2685cf0c 	addiu	a1,s4,-12532
    9170:	10400032 	beqz	v0,0x923c
    9174:	00409021 	move	s2,v0
    9178:	3c050001 	lui	a1,0x1
    917c:	02602021 	move	a0,s3
    9180:	0c0008c1 	jal	0x2304
    9184:	24a5cf1c 	addiu	a1,a1,-12516
    9188:	1040001f 	beqz	v0,0x9208
    918c:	02002021 	move	a0,s0
    9190:	3c050001 	lui	a1,0x1
    9194:	24a5d060 	addiu	a1,a1,-12192
    9198:	0c001ffd 	jal	0x7ff4
    919c:	2406002c 	li	a2,44
    91a0:	02202021 	move	a0,s1
    91a4:	24050001 	li	a1,1
    91a8:	24060258 	li	a2,600
    91ac:	0c002e04 	jal	0xb810
    91b0:	02403821 	move	a3,s2
    91b4:	00403021 	move	a2,v0
    91b8:	02002021 	move	a0,s0
    91bc:	10400005 	beqz	v0,0x91d4
    91c0:	02202821 	move	a1,s1
    91c4:	0c001ffd 	jal	0x7ff4
    91c8:	00000000 	nop
    91cc:	08002469 	j	0x91a4
    91d0:	02202021 	move	a0,s1
    91d4:	0c002f93 	jal	0xbe4c
    91d8:	02402021 	move	a0,s2
    91dc:	0c001fe2 	jal	0x7f88
    91e0:	02002021 	move	a0,s0
    91e4:	0c002134 	jal	0x84d0
    91e8:	02002021 	move	a0,s0
    91ec:	080023a8 	j	0x8ea0
    91f0:	00000000 	nop
    91f4:	8fa602b8 	lw	a2,696(sp)
    91f8:	02c0f809 	jalr	s6
    91fc:	02202821 	move	a1,s1
    9200:	080023a8 	j	0x8ea0
    9204:	00000000 	nop
    9208:	3c050001 	lui	a1,0x1
    920c:	02602021 	move	a0,s3
    9210:	0c0008c1 	jal	0x2304
    9214:	24a5cf24 	addiu	a1,a1,-12508
    9218:	10400027 	beqz	v0,0x92b8
    921c:	00000000 	nop
    9220:	3c050001 	lui	a1,0x1
    9224:	02002021 	move	a0,s0
    9228:	24a5d090 	addiu	a1,a1,-12144
    922c:	0c001ffd 	jal	0x7ff4
    9230:	2406002d 	li	a2,45
    9234:	08002469 	j	0x91a4
    9238:	02202021 	move	a0,s1
    923c:	3c050001 	lui	a1,0x1
    9240:	27a40010 	addiu	a0,sp,16
    9244:	0c00085e 	jal	0x2178
    9248:	24a5cf10 	addiu	a1,a1,-12528
    924c:	27a40010 	addiu	a0,sp,16
    9250:	02602821 	move	a1,s3
    9254:	0c00088b 	jal	0x222c
    9258:	2406003c 	li	a2,60
    925c:	27a40010 	addiu	a0,sp,16
    9260:	0c003027 	jal	0xc09c
    9264:	2685cf0c 	addiu	a1,s4,-12532
    9268:	1040ff6a 	beqz	v0,0x9014
    926c:	00409021 	move	s2,v0
    9270:	0800245f 	j	0x917c
    9274:	3c050001 	lui	a1,0x1
    9278:	3c050001 	lui	a1,0x1
    927c:	0c0008a8 	jal	0x22a0
    9280:	24a5cf34 	addiu	a1,a1,-12492
    9284:	1040ff76 	beqz	v0,0x9060
    9288:	00000000 	nop
    928c:	8f82815c 	lw	v0,-32420(gp)
    9290:	3c050001 	lui	a1,0x1
    9294:	0057b821 	addu	s7,v0,s7
    9298:	8ee40000 	lw	a0,0(s7)
    929c:	0c0008c1 	jal	0x2304
    92a0:	24a5cf24 	addiu	a1,a1,-12508
    92a4:	1040000e 	beqz	v0,0x92e0
    92a8:	00000000 	nop
    92ac:	3c020001 	lui	v0,0x1
    92b0:	080023ec 	j	0x8fb0
    92b4:	2442d138 	addiu	v0,v0,-11976
    92b8:	3c050001 	lui	a1,0x1
    92bc:	02002021 	move	a0,s0
    92c0:	24a5d0c0 	addiu	a1,a1,-12096
    92c4:	0c001ffd 	jal	0x7ff4
    92c8:	24060030 	li	a2,48
    92cc:	08002469 	j	0x91a4
    92d0:	02202021 	move	a0,s1
    92d4:	2442d0f4 	addiu	v0,v0,-12044
    92d8:	080023ed 	j	0x8fb4
    92dc:	24120001 	li	s2,1
    92e0:	3c020001 	lui	v0,0x1
    92e4:	080023ec 	j	0x8fb0
    92e8:	2442d17c 	addiu	v0,v0,-11908
    92ec:	27bdffe8 	addiu	sp,sp,-24
    92f0:	afb00010 	sw	s0,16(sp)
    92f4:	3c100001 	lui	s0,0x1
    92f8:	26078e48 	addiu	a3,s0,-29112
    92fc:	af84815c 	sw	a0,-32420(gp)
    9300:	af858160 	sw	a1,-32416(gp)
    9304:	24040001 	li	a0,1
    9308:	00002821 	move	a1,zero
    930c:	afbf0014 	sw	ra,20(sp)
    9310:	0c001f21 	jal	0x7c84
    9314:	24060050 	li	a2,80
    9318:	26078e48 	addiu	a3,s0,-29112
    931c:	8fbf0014 	lw	ra,20(sp)
    9320:	8fb00010 	lw	s0,16(sp)
    9324:	24040001 	li	a0,1
    9328:	00002821 	move	a1,zero
    932c:	24061f90 	li	a2,8080
    9330:	08001f21 	j	0x7c84
    9334:	27bd0018 	addiu	sp,sp,24
    9338:	3c040001 	lui	a0,0x1
    933c:	2484d018 	addiu	a0,a0,-12264
    9340:	080024bb 	j	0x92ec
    9344:	24050001 	li	a1,1
    9348:	27bdffd8 	addiu	sp,sp,-40
    934c:	afbf0024 	sw	ra,36(sp)
    9350:	0c00016a 	jal	0x5a8
    9354:	afa40018 	sw	a0,24(sp)
    9358:	2406005f 	li	a2,95
    935c:	14c00002 	bnez	a2,0x9368
    9360:	0046001b 	divu	zero,v0,a2
    9364:	0007000d 	break	0x7
    9368:	24070e10 	li	a3,3600
    936c:	2403003c 	li	v1,60
    9370:	3c090001 	lui	t1,0x1
    9374:	25295180 	addiu	t1,t1,20864
    9378:	24080018 	li	t0,24
    937c:	8fa40018 	lw	a0,24(sp)
    9380:	3c050001 	lui	a1,0x1
    9384:	24a5d204 	addiu	a1,a1,-11772
    9388:	00003012 	mflo	a2
	...
    9394:	14e00002 	bnez	a3,0x93a0
    9398:	00c7001a 	div	zero,a2,a3
    939c:	0007000d 	break	0x7
    93a0:	00003812 	mflo	a3
	...
    93ac:	14600002 	bnez	v1,0x93b8
    93b0:	00c3001a 	div	zero,a2,v1
    93b4:	0007000d 	break	0x7
    93b8:	00005010 	mfhi	t2
    93bc:	afaa0014 	sw	t2,20(sp)
    93c0:	00001012 	mflo	v0
	...
    93cc:	15200002 	bnez	t1,0x93d8
    93d0:	00c9001a 	div	zero,a2,t1
    93d4:	0007000d 	break	0x7
    93d8:	00003012 	mflo	a2
	...
    93e4:	15000002 	bnez	t0,0x93f0
    93e8:	00e8001a 	div	zero,a3,t0
    93ec:	0007000d 	break	0x7
    93f0:	00003810 	mfhi	a3
	...
    93fc:	14600002 	bnez	v1,0x9408
    9400:	0043001a 	div	zero,v0,v1
    9404:	0007000d 	break	0x7
    9408:	00001010 	mfhi	v0
    940c:	0c0021b0 	jal	0x86c0
    9410:	afa20010 	sw	v0,16(sp)
    9414:	8fbf0024 	lw	ra,36(sp)
    9418:	00000000 	nop
    941c:	03e00008 	jr	ra
    9420:	27bd0028 	addiu	sp,sp,40
    9424:	27bdffe0 	addiu	sp,sp,-32
    9428:	afb10018 	sw	s1,24(sp)
    942c:	3c050001 	lui	a1,0x1
    9430:	00808821 	move	s1,a0
    9434:	3c040001 	lui	a0,0x1
    9438:	24a5d21c 	addiu	a1,a1,-11748
    943c:	2484d238 	addiu	a0,a0,-11720
    9440:	afbf001c 	sw	ra,28(sp)
    9444:	0c003027 	jal	0xc09c
    9448:	afb00014 	sw	s0,20(sp)
    944c:	3c040001 	lui	a0,0x1
    9450:	00408021 	move	s0,v0
    9454:	24050001 	li	a1,1
    9458:	2406000c 	li	a2,12
    945c:	00403821 	move	a3,v0
    9460:	0c002f01 	jal	0xbc04
    9464:	2484d220 	addiu	a0,a0,-11744
    9468:	0c002f93 	jal	0xbe4c
    946c:	02002021 	move	a0,s0
    9470:	3c050001 	lui	a1,0x1
    9474:	02202021 	move	a0,s1
    9478:	8fbf001c 	lw	ra,28(sp)
    947c:	8fb10018 	lw	s1,24(sp)
    9480:	8fb00014 	lw	s0,20(sp)
    9484:	24a5d230 	addiu	a1,a1,-11728
    9488:	080021b0 	j	0x86c0
    948c:	27bd0020 	addiu	sp,sp,32
    9490:	27bdffd8 	addiu	sp,sp,-40
    9494:	afb10020 	sw	s1,32(sp)
    9498:	8f848164 	lw	a0,-32412(gp)
    949c:	00a08821 	move	s1,a1
    94a0:	3c050001 	lui	a1,0x1
    94a4:	24a5d244 	addiu	a1,a1,-11708
    94a8:	afa60010 	sw	a2,16(sp)
    94ac:	afbf0024 	sw	ra,36(sp)
    94b0:	0c0021b0 	jal	0x86c0
    94b4:	afb0001c 	sw	s0,28(sp)
    94b8:	3c040002 	lui	a0,0x2
    94bc:	3c050001 	lui	a1,0x1
    94c0:	2484dd9c 	addiu	a0,a0,-8804
    94c4:	0c003027 	jal	0xc09c
    94c8:	24a5d21c 	addiu	a1,a1,-11748
    94cc:	8fa60010 	lw	a2,16(sp)
    94d0:	10400007 	beqz	v0,0x94f0
    94d4:	00408021 	move	s0,v0
    94d8:	02202021 	move	a0,s1
    94dc:	24050001 	li	a1,1
    94e0:	0c002f01 	jal	0xbc04
    94e4:	00403821 	move	a3,v0
    94e8:	0c002f93 	jal	0xbe4c
    94ec:	02002021 	move	a0,s0
    94f0:	8f848168 	lw	a0,-32408(gp)
    94f4:	00000000 	nop
    94f8:	10800003 	beqz	a0,0x9508
    94fc:	00000000 	nop
    9500:	0c00036a 	jal	0xda8
    9504:	00000000 	nop
    9508:	8fbf0024 	lw	ra,36(sp)
    950c:	8fb10020 	lw	s1,32(sp)
    9510:	8fb0001c 	lw	s0,28(sp)
    9514:	af808168 	sw	zero,-32408(gp)
    9518:	03e00008 	jr	ra
    951c:	27bd0028 	addiu	sp,sp,40
    9520:	8ca40004 	lw	a0,4(a1)
    9524:	08002fd5 	j	0xbf54
    9528:	00000000 	nop
    952c:	27bdff88 	addiu	sp,sp,-120
    9530:	afb20070 	sw	s2,112(sp)
    9534:	afb1006c 	sw	s1,108(sp)
    9538:	00a09021 	move	s2,a1
    953c:	27b10018 	addiu	s1,sp,24
    9540:	afb00068 	sw	s0,104(sp)
    9544:	00063c02 	srl	a3,a2,0x10
    9548:	00c08021 	move	s0,a2
    954c:	00061a02 	srl	v1,a2,0x8
    9550:	3c050001 	lui	a1,0x1
    9554:	306300ff 	andi	v1,v1,0xff
    9558:	00063602 	srl	a2,a2,0x18
    955c:	30e700ff 	andi	a3,a3,0xff
    9560:	320200ff 	andi	v0,s0,0xff
    9564:	02202021 	move	a0,s1
    9568:	24a5d254 	addiu	a1,a1,-11692
    956c:	afbf0074 	sw	ra,116(sp)
    9570:	afa30010 	sw	v1,16(sp)
    9574:	0c0009c7 	jal	0x271c
    9578:	afa20014 	sw	v0,20(sp)
    957c:	02402021 	move	a0,s2
    9580:	0c0021b0 	jal	0x86c0
    9584:	02202821 	move	a1,s1
    9588:	3c070001 	lui	a3,0x1
    958c:	02002821 	move	a1,s0
    9590:	24040002 	li	a0,2
    9594:	00003021 	move	a2,zero
    9598:	0c001f21 	jal	0x7c84
    959c:	24e796dc 	addiu	a3,a3,-26916
    95a0:	ac5200a0 	sw	s2,160(v0)
    95a4:	00402021 	move	a0,v0
    95a8:	02202821 	move	a1,s1
    95ac:	24020041 	li	v0,65
    95b0:	24060001 	li	a2,1
    95b4:	0c001ffd 	jal	0x7ff4
    95b8:	a3a20018 	sb	v0,24(sp)
    95bc:	8fbf0074 	lw	ra,116(sp)
    95c0:	8fb20070 	lw	s2,112(sp)
    95c4:	8fb1006c 	lw	s1,108(sp)
    95c8:	8fb00068 	lw	s0,104(sp)
    95cc:	03e00008 	jr	ra
    95d0:	27bd0078 	addiu	sp,sp,120
    95d4:	27bdffd0 	addiu	sp,sp,-48
    95d8:	8ca20004 	lw	v0,4(a1)
    95dc:	afb00028 	sw	s0,40(sp)
    95e0:	afbf002c 	sw	ra,44(sp)
    95e4:	90430000 	lbu	v1,0(v0)
    95e8:	00000000 	nop
    95ec:	2463ffd0 	addiu	v1,v1,-48
    95f0:	306300ff 	andi	v1,v1,0xff
    95f4:	2c63000a 	sltiu	v1,v1,10
    95f8:	1460000e 	bnez	v1,0x9634
    95fc:	00808021 	move	s0,a0
    9600:	3c050001 	lui	a1,0x1
    9604:	00402021 	move	a0,v0
    9608:	02003021 	move	a2,s0
    960c:	0c002331 	jal	0x8cc4
    9610:	24a5952c 	addiu	a1,a1,-27348
    9614:	3c050001 	lui	a1,0x1
    9618:	02002021 	move	a0,s0
    961c:	0c0021b0 	jal	0x86c0
    9620:	24a5d274 	addiu	a1,a1,-11660
    9624:	8fbf002c 	lw	ra,44(sp)
    9628:	8fb00028 	lw	s0,40(sp)
    962c:	03e00008 	jr	ra
    9630:	27bd0030 	addiu	sp,sp,48
    9634:	00402021 	move	a0,v0
    9638:	3c050001 	lui	a1,0x1
    963c:	27a20020 	addiu	v0,sp,32
    9640:	27a60018 	addiu	a2,sp,24
    9644:	27a7001c 	addiu	a3,sp,28
    9648:	afa20010 	sw	v0,16(sp)
    964c:	24a5d268 	addiu	a1,a1,-11672
    9650:	27a20024 	addiu	v0,sp,36
    9654:	0c000ac9 	jal	0x2b24
    9658:	afa20014 	sw	v0,20(sp)
    965c:	8fa30018 	lw	v1,24(sp)
    9660:	8fa2001c 	lw	v0,28(sp)
    9664:	00031e00 	sll	v1,v1,0x18
    9668:	00021400 	sll	v0,v0,0x10
    966c:	00621025 	or	v0,v1,v0
    9670:	8fa30024 	lw	v1,36(sp)
    9674:	02002021 	move	a0,s0
    9678:	00431025 	or	v0,v0,v1
    967c:	8fa30020 	lw	v1,32(sp)
    9680:	02002821 	move	a1,s0
    9684:	00031a00 	sll	v1,v1,0x8
    9688:	00431025 	or	v0,v0,v1
    968c:	00403021 	move	a2,v0
    9690:	0c00254b 	jal	0x952c
    9694:	afa20018 	sw	v0,24(sp)
    9698:	8fbf002c 	lw	ra,44(sp)
    969c:	8fb00028 	lw	s0,40(sp)
    96a0:	03e00008 	jr	ra
    96a4:	27bd0030 	addiu	sp,sp,48
    96a8:	27bdffe8 	addiu	sp,sp,-24
    96ac:	afb00010 	sw	s0,16(sp)
    96b0:	00808021 	move	s0,a0
    96b4:	8ca40000 	lw	a0,0(a1)
    96b8:	afbf0014 	sw	ra,20(sp)
    96bc:	0c00036a 	jal	0xda8
    96c0:	00000000 	nop
    96c4:	ae0000a0 	sw	zero,160(s0)
    96c8:	02002021 	move	a0,s0
    96cc:	8fbf0014 	lw	ra,20(sp)
    96d0:	8fb00010 	lw	s0,16(sp)
    96d4:	08002134 	j	0x84d0
    96d8:	27bd0018 	addiu	sp,sp,24
    96dc:	27bdffe8 	addiu	sp,sp,-24
    96e0:	afb00010 	sw	s0,16(sp)
    96e4:	8c9000a0 	lw	s0,160(a0)
    96e8:	afbf0014 	sw	ra,20(sp)
    96ec:	0c002134 	jal	0x84d0
    96f0:	00000000 	nop
    96f4:	12000007 	beqz	s0,0x9714
    96f8:	3c050001 	lui	a1,0x1
    96fc:	02002021 	move	a0,s0
    9700:	8fbf0014 	lw	ra,20(sp)
    9704:	8fb00010 	lw	s0,16(sp)
    9708:	24a5d288 	addiu	a1,a1,-11640
    970c:	080021b0 	j	0x86c0
    9710:	27bd0018 	addiu	sp,sp,24
    9714:	3c040001 	lui	a0,0x1
    9718:	8fbf0014 	lw	ra,20(sp)
    971c:	8fb00010 	lw	s0,16(sp)
    9720:	2484d294 	addiu	a0,a0,-11628
    9724:	08000d18 	j	0x3460
    9728:	27bd0018 	addiu	sp,sp,24
    972c:	8ca40004 	lw	a0,4(a1)
    9730:	080030bf 	j	0xc2fc
    9734:	00000000 	nop
    9738:	27bdffd8 	addiu	sp,sp,-40
    973c:	8ca2000c 	lw	v0,12(a1)
    9740:	afb10020 	sw	s1,32(sp)
    9744:	afbf0024 	sw	ra,36(sp)
    9748:	afb0001c 	sw	s0,28(sp)
    974c:	80420000 	lb	v0,0(v0)
    9750:	00000000 	nop
    9754:	1040001d 	beqz	v0,0x97cc
    9758:	00808821 	move	s1,a0
    975c:	8ca40004 	lw	a0,4(a1)
    9760:	0c000988 	jal	0x2620
    9764:	afa50010 	sw	a1,16(sp)
    9768:	8fa50010 	lw	a1,16(sp)
    976c:	00403021 	move	a2,v0
    9770:	8ca20008 	lw	v0,8(a1)
    9774:	8ca4000c 	lw	a0,12(a1)
    9778:	80500000 	lb	s0,0(v0)
    977c:	0c000988 	jal	0x2620
    9780:	afa60010 	sw	a2,16(sp)
    9784:	2403002b 	li	v1,43
    9788:	8fa60010 	lw	a2,16(sp)
    978c:	12030016 	beq	s0,v1,0x97e8
    9790:	2403002d 	li	v1,45
    9794:	12030025 	beq	s0,v1,0x982c
    9798:	2403002a 	li	v1,42
    979c:	1203002c 	beq	s0,v1,0x9850
    97a0:	2403002f 	li	v1,47
    97a4:	12030019 	beq	s0,v1,0x980c
    97a8:	00000000 	nop
    97ac:	3c050001 	lui	a1,0x1
    97b0:	02202021 	move	a0,s1
    97b4:	8fbf0024 	lw	ra,36(sp)
    97b8:	8fb10020 	lw	s1,32(sp)
    97bc:	8fb0001c 	lw	s0,28(sp)
    97c0:	24a5d58c 	addiu	a1,a1,-10868
    97c4:	080021b0 	j	0x86c0
    97c8:	27bd0028 	addiu	sp,sp,40
    97cc:	3c050001 	lui	a1,0x1
    97d0:	8fbf0024 	lw	ra,36(sp)
    97d4:	8fb10020 	lw	s1,32(sp)
    97d8:	8fb0001c 	lw	s0,28(sp)
    97dc:	24a5d2a0 	addiu	a1,a1,-11616
    97e0:	080021b0 	j	0x86c0
    97e4:	27bd0028 	addiu	sp,sp,40
    97e8:	3c050001 	lui	a1,0x1
    97ec:	02202021 	move	a0,s1
    97f0:	8fbf0024 	lw	ra,36(sp)
    97f4:	8fb10020 	lw	s1,32(sp)
    97f8:	8fb0001c 	lw	s0,28(sp)
    97fc:	00c23021 	addu	a2,a2,v0
    9800:	24a5d58c 	addiu	a1,a1,-10868
    9804:	080021b0 	j	0x86c0
    9808:	27bd0028 	addiu	sp,sp,40
    980c:	1040ffe7 	beqz	v0,0x97ac
    9810:	3c050001 	lui	a1,0x1
    9814:	14400002 	bnez	v0,0x9820
    9818:	00c2001a 	div	zero,a2,v0
    981c:	0007000d 	break	0x7
    9820:	00003012 	mflo	a2
    9824:	080025ed 	j	0x97b4
    9828:	02202021 	move	a0,s1
    982c:	3c050001 	lui	a1,0x1
    9830:	02202021 	move	a0,s1
    9834:	8fbf0024 	lw	ra,36(sp)
    9838:	8fb10020 	lw	s1,32(sp)
    983c:	8fb0001c 	lw	s0,28(sp)
    9840:	00c23023 	subu	a2,a2,v0
    9844:	24a5d58c 	addiu	a1,a1,-10868
    9848:	080021b0 	j	0x86c0
    984c:	27bd0028 	addiu	sp,sp,40
    9850:	00c20018 	mult	a2,v0
    9854:	00003012 	mflo	a2
    9858:	080025ec 	j	0x97b0
    985c:	3c050001 	lui	a1,0x1
    9860:	27bdfea8 	addiu	sp,sp,-344
    9864:	afb40140 	sw	s4,320(sp)
    9868:	0080a021 	move	s4,a0
    986c:	8ca40004 	lw	a0,4(a1)
    9870:	3c050001 	lui	a1,0x1
    9874:	24a5c8b0 	addiu	a1,a1,-14160
    9878:	afb50144 	sw	s5,324(sp)
    987c:	afbf0154 	sw	ra,340(sp)
    9880:	afbe0150 	sw	s8,336(sp)
    9884:	afb7014c 	sw	s7,332(sp)
    9888:	afb60148 	sw	s6,328(sp)
    988c:	afb3013c 	sw	s3,316(sp)
    9890:	afb20138 	sw	s2,312(sp)
    9894:	afb10134 	sw	s1,308(sp)
    9898:	0c003027 	jal	0xc09c
    989c:	afb00130 	sw	s0,304(sp)
    98a0:	10400032 	beqz	v0,0x996c
    98a4:	0040a821 	move	s5,v0
    98a8:	3c1e0001 	lui	s8,0x1
    98ac:	3c160001 	lui	s6,0x1
    98b0:	00008021 	move	s0,zero
    98b4:	27b20060 	addiu	s2,sp,96
    98b8:	27b10010 	addiu	s1,sp,16
    98bc:	27ded2cc 	addiu	s8,s8,-11572
    98c0:	24130014 	li	s3,20
    98c4:	24170050 	li	s7,80
    98c8:	08002654 	j	0x9950
    98cc:	26d6cba0 	addiu	s6,s6,-13408
    98d0:	0c0030d1 	jal	0xc344
    98d4:	00000000 	nop
    98d8:	00403821 	move	a3,v0
    98dc:	02202021 	move	a0,s1
    98e0:	03c02821 	move	a1,s8
    98e4:	0c0009c7 	jal	0x271c
    98e8:	02403021 	move	a2,s2
    98ec:	0c0008e0 	jal	0x2380
    98f0:	02202021 	move	a0,s1
    98f4:	16600002 	bnez	s3,0x9900
    98f8:	0053001a 	div	zero,v0,s3
    98fc:	0007000d 	break	0x7
    9900:	00001810 	mfhi	v1
    9904:	00431023 	subu	v0,v0,v1
    9908:	02028021 	addu	s0,s0,v0
    990c:	02222021 	addu	a0,s1,v0
    9910:	2a030051 	slti	v1,s0,81
    9914:	1217000a 	beq	s0,s7,0x9940
    9918:	a0800000 	sb	zero,0(a0)
    991c:	3c050001 	lui	a1,0x1
    9920:	02802021 	move	a0,s4
    9924:	14600007 	bnez	v1,0x9944
    9928:	24a5d2c8 	addiu	a1,a1,-11576
    992c:	0c0021b0 	jal	0x86c0
    9930:	afa20128 	sw	v0,296(sp)
    9934:	8fa20128 	lw	v0,296(sp)
    9938:	00000000 	nop
    993c:	00408021 	move	s0,v0
    9940:	02802021 	move	a0,s4
    9944:	02c02821 	move	a1,s6
    9948:	0c0021b0 	jal	0x86c0
    994c:	02203021 	move	a2,s1
    9950:	02a02021 	move	a0,s5
    9954:	0c0030d4 	jal	0xc350
    9958:	02402821 	move	a1,s2
    995c:	1040ffdc 	beqz	v0,0x98d0
    9960:	02402021 	move	a0,s2
    9964:	0c002f93 	jal	0xbe4c
    9968:	02a02021 	move	a0,s5
    996c:	8fbf0154 	lw	ra,340(sp)
    9970:	8fbe0150 	lw	s8,336(sp)
    9974:	8fb7014c 	lw	s7,332(sp)
    9978:	8fb60148 	lw	s6,328(sp)
    997c:	8fb50144 	lw	s5,324(sp)
    9980:	8fb40140 	lw	s4,320(sp)
    9984:	8fb3013c 	lw	s3,316(sp)
    9988:	8fb20138 	lw	s2,312(sp)
    998c:	8fb10134 	lw	s1,308(sp)
    9990:	8fb00130 	lw	s0,304(sp)
    9994:	03e00008 	jr	ra
    9998:	27bd0158 	addiu	sp,sp,344
    999c:	27bdff10 	addiu	sp,sp,-240
    99a0:	afb200e0 	sw	s2,224(sp)
    99a4:	3c050001 	lui	a1,0x1
    99a8:	27b20010 	addiu	s2,sp,16
    99ac:	afb400e8 	sw	s4,232(sp)
    99b0:	24a5d2e8 	addiu	a1,a1,-11544
    99b4:	0080a021 	move	s4,a0
    99b8:	02402021 	move	a0,s2
    99bc:	afbf00ec 	sw	ra,236(sp)
    99c0:	afb300e4 	sw	s3,228(sp)
    99c4:	afb100dc 	sw	s1,220(sp)
    99c8:	0c00085e 	jal	0x2178
    99cc:	afb000d8 	sw	s0,216(sp)
    99d0:	8f82816c 	lw	v0,-32404(gp)
    99d4:	00000000 	nop
    99d8:	8c440000 	lw	a0,0(v0)
    99dc:	00000000 	nop
    99e0:	1080001d 	beqz	a0,0x9a58
    99e4:	00401821 	move	v1,v0
    99e8:	3c130001 	lui	s3,0x1
    99ec:	00008821 	move	s1,zero
    99f0:	00008021 	move	s0,zero
    99f4:	0800268b 	j	0x9a2c
    99f8:	2673d2f4 	addiu	s3,s3,-11532
    99fc:	00518821 	addu	s1,v0,s1
    9a00:	8e250000 	lw	a1,0(s1)
    9a04:	0c000877 	jal	0x21dc
    9a08:	02402021 	move	a0,s2
    9a0c:	8f82816c 	lw	v0,-32404(gp)
    9a10:	26100001 	addiu	s0,s0,1
    9a14:	001088c0 	sll	s1,s0,0x3
    9a18:	00511821 	addu	v1,v0,s1
    9a1c:	8c640000 	lw	a0,0(v1)
    9a20:	00000000 	nop
    9a24:	1080000d 	beqz	a0,0x9a5c
    9a28:	02802021 	move	a0,s4
    9a2c:	8c630004 	lw	v1,4(v1)
    9a30:	00000000 	nop
    9a34:	1060fff6 	beqz	v1,0x9a10
    9a38:	00000000 	nop
    9a3c:	1200ffef 	beqz	s0,0x99fc
    9a40:	02402021 	move	a0,s2
    9a44:	0c000877 	jal	0x21dc
    9a48:	02602821 	move	a1,s3
    9a4c:	8f82816c 	lw	v0,-32404(gp)
    9a50:	08002680 	j	0x9a00
    9a54:	00518821 	addu	s1,v0,s1
    9a58:	02802021 	move	a0,s4
    9a5c:	0c0021b0 	jal	0x86c0
    9a60:	02402821 	move	a1,s2
    9a64:	8fbf00ec 	lw	ra,236(sp)
    9a68:	8fb400e8 	lw	s4,232(sp)
    9a6c:	8fb300e4 	lw	s3,228(sp)
    9a70:	8fb200e0 	lw	s2,224(sp)
    9a74:	8fb100dc 	lw	s1,220(sp)
    9a78:	8fb000d8 	lw	s0,216(sp)
    9a7c:	03e00008 	jr	ra
    9a80:	27bd00f0 	addiu	sp,sp,240
    9a84:	27bdffb0 	addiu	sp,sp,-80
    9a88:	afb00028 	sw	s0,40(sp)
    9a8c:	00808021 	move	s0,a0
    9a90:	8ca40004 	lw	a0,4(a1)
    9a94:	3c050001 	lui	a1,0x1
    9a98:	24a5c8b0 	addiu	a1,a1,-14160
    9a9c:	afb60040 	sw	s6,64(sp)
    9aa0:	afbf004c 	sw	ra,76(sp)
    9aa4:	afbe0048 	sw	s8,72(sp)
    9aa8:	afb70044 	sw	s7,68(sp)
    9aac:	afb5003c 	sw	s5,60(sp)
    9ab0:	afb40038 	sw	s4,56(sp)
    9ab4:	afb30034 	sw	s3,52(sp)
    9ab8:	afb20030 	sw	s2,48(sp)
    9abc:	0c003027 	jal	0xc09c
    9ac0:	afb1002c 	sw	s1,44(sp)
    9ac4:	10400060 	beqz	v0,0x9c48
    9ac8:	0040b021 	move	s6,v0
    9acc:	3c140001 	lui	s4,0x1
    9ad0:	3c130001 	lui	s3,0x1
    9ad4:	3c120001 	lui	s2,0x1
    9ad8:	3c1e0001 	lui	s8,0x1
    9adc:	0000a821 	move	s5,zero
    9ae0:	27b10010 	addiu	s1,sp,16
    9ae4:	2694d310 	addiu	s4,s4,-11504
    9ae8:	2673d30c 	addiu	s3,s3,-11508
    9aec:	2652d300 	addiu	s2,s2,-11520
    9af0:	27ded2c8 	addiu	s8,s8,-11576
    9af4:	3c170100 	lui	s7,0x100
    9af8:	02202021 	move	a0,s1
    9afc:	24050001 	li	a1,1
    9b00:	24060010 	li	a2,16
    9b04:	0c002e04 	jal	0xb810
    9b08:	02c03821 	move	a3,s6
    9b0c:	1040004c 	beqz	v0,0x9c40
    9b10:	afa20020 	sw	v0,32(sp)
    9b14:	3c050001 	lui	a1,0x1
    9b18:	02002021 	move	a0,s0
    9b1c:	24a5d2f8 	addiu	a1,a1,-11528
    9b20:	0c0021b0 	jal	0x86c0
    9b24:	02a03021 	move	a2,s5
    9b28:	8fa20020 	lw	v0,32(sp)
    9b2c:	00000000 	nop
    9b30:	18400051 	blez	v0,0x9c78
    9b34:	00001821 	move	v1,zero
    9b38:	02231021 	addu	v0,s1,v1
    9b3c:	90460000 	lbu	a2,0(v0)
    9b40:	24630001 	addiu	v1,v1,1
    9b44:	02002021 	move	a0,s0
    9b48:	02402821 	move	a1,s2
    9b4c:	0c0021b0 	jal	0x86c0
    9b50:	afa30024 	sw	v1,36(sp)
    9b54:	8fa30024 	lw	v1,36(sp)
    9b58:	8fa40020 	lw	a0,32(sp)
    9b5c:	00000000 	nop
    9b60:	0064102a 	slt	v0,v1,a0
    9b64:	1440fff5 	bnez	v0,0x9b3c
    9b68:	02231021 	addu	v0,s1,v1
    9b6c:	28820010 	slti	v0,a0,16
    9b70:	1040001b 	beqz	v0,0x9be0
    9b74:	00001821 	move	v1,zero
    9b78:	8fa20020 	lw	v0,32(sp)
    9b7c:	3c050001 	lui	a1,0x1
    9b80:	24420001 	addiu	v0,v0,1
    9b84:	02002021 	move	a0,s0
    9b88:	24a5d308 	addiu	a1,a1,-11512
    9b8c:	0c0021b0 	jal	0x86c0
    9b90:	afa20024 	sw	v0,36(sp)
    9b94:	8fa20024 	lw	v0,36(sp)
    9b98:	00000000 	nop
    9b9c:	28430010 	slti	v1,v0,16
    9ba0:	1460fff7 	bnez	v1,0x9b80
    9ba4:	3c050001 	lui	a1,0x1
    9ba8:	8fa20020 	lw	v0,32(sp)
    9bac:	00000000 	nop
    9bb0:	1840001d 	blez	v0,0x9c28
    9bb4:	00001821 	move	v1,zero
    9bb8:	080026f9 	j	0x9be4
    9bbc:	02231021 	addu	v0,s1,v1
    9bc0:	0c0021b0 	jal	0x86c0
    9bc4:	afa30024 	sw	v1,36(sp)
    9bc8:	8fa30024 	lw	v1,36(sp)
    9bcc:	8fa40020 	lw	a0,32(sp)
    9bd0:	24630001 	addiu	v1,v1,1
    9bd4:	0064102a 	slt	v0,v1,a0
    9bd8:	10400013 	beqz	v0,0x9c28
    9bdc:	00000000 	nop
    9be0:	02231021 	addu	v0,s1,v1
    9be4:	90460000 	lbu	a2,0(v0)
    9be8:	02002021 	move	a0,s0
    9bec:	24c2ffe0 	addiu	v0,a2,-32
    9bf0:	304200ff 	andi	v0,v0,0xff
    9bf4:	2c42005f 	sltiu	v0,v0,95
    9bf8:	1440fff1 	bnez	v0,0x9bc0
    9bfc:	02602821 	move	a1,s3
    9c00:	02002021 	move	a0,s0
    9c04:	02802821 	move	a1,s4
    9c08:	0c0021b0 	jal	0x86c0
    9c0c:	afa30024 	sw	v1,36(sp)
    9c10:	8fa30024 	lw	v1,36(sp)
    9c14:	8fa40020 	lw	a0,32(sp)
    9c18:	24630001 	addiu	v1,v1,1
    9c1c:	0064102a 	slt	v0,v1,a0
    9c20:	1440fff0 	bnez	v0,0x9be4
    9c24:	02231021 	addu	v0,s1,v1
    9c28:	26b50010 	addiu	s5,s5,16
    9c2c:	02002021 	move	a0,s0
    9c30:	0c0021b0 	jal	0x86c0
    9c34:	03c02821 	move	a1,s8
    9c38:	16b7ffb0 	bne	s5,s7,0x9afc
    9c3c:	02202021 	move	a0,s1
    9c40:	0c002f93 	jal	0xbe4c
    9c44:	02c02021 	move	a0,s6
    9c48:	8fbf004c 	lw	ra,76(sp)
    9c4c:	8fbe0048 	lw	s8,72(sp)
    9c50:	8fb70044 	lw	s7,68(sp)
    9c54:	8fb60040 	lw	s6,64(sp)
    9c58:	8fb5003c 	lw	s5,60(sp)
    9c5c:	8fb40038 	lw	s4,56(sp)
    9c60:	8fb30034 	lw	s3,52(sp)
    9c64:	8fb20030 	lw	s2,48(sp)
    9c68:	8fb1002c 	lw	s1,44(sp)
    9c6c:	8fb00028 	lw	s0,40(sp)
    9c70:	03e00008 	jr	ra
    9c74:	27bd0050 	addiu	sp,sp,80
    9c78:	080026df 	j	0x9b7c
    9c7c:	00001021 	move	v0,zero
    9c80:	27bdff18 	addiu	sp,sp,-232
    9c84:	afb000d8 	sw	s0,216(sp)
    9c88:	8ca40004 	lw	a0,4(a1)
    9c8c:	00a08021 	move	s0,a1
    9c90:	3c050001 	lui	a1,0x1
    9c94:	24a5c8b0 	addiu	a1,a1,-14160
    9c98:	afb100dc 	sw	s1,220(sp)
    9c9c:	afbf00e4 	sw	ra,228(sp)
    9ca0:	0c003027 	jal	0xc09c
    9ca4:	afb200e0 	sw	s2,224(sp)
    9ca8:	10400019 	beqz	v0,0x9d10
    9cac:	00408821 	move	s1,v0
    9cb0:	8e040008 	lw	a0,8(s0)
    9cb4:	3c050001 	lui	a1,0x1
    9cb8:	0c003027 	jal	0xc09c
    9cbc:	24a5d21c 	addiu	a1,a1,-11748
    9cc0:	10400011 	beqz	v0,0x9d08
    9cc4:	00409021 	move	s2,v0
    9cc8:	08002736 	j	0x9cd8
    9ccc:	27b00010 	addiu	s0,sp,16
    9cd0:	0c002f01 	jal	0xbc04
    9cd4:	00000000 	nop
    9cd8:	02002021 	move	a0,s0
    9cdc:	02203821 	move	a3,s1
    9ce0:	24050001 	li	a1,1
    9ce4:	0c002e04 	jal	0xb810
    9ce8:	240600c8 	li	a2,200
    9cec:	00403021 	move	a2,v0
    9cf0:	02002021 	move	a0,s0
    9cf4:	24050001 	li	a1,1
    9cf8:	1440fff5 	bnez	v0,0x9cd0
    9cfc:	02403821 	move	a3,s2
    9d00:	0c002f93 	jal	0xbe4c
    9d04:	02402021 	move	a0,s2
    9d08:	0c002f93 	jal	0xbe4c
    9d0c:	02202021 	move	a0,s1
    9d10:	8fbf00e4 	lw	ra,228(sp)
    9d14:	8fb200e0 	lw	s2,224(sp)
    9d18:	8fb100dc 	lw	s1,220(sp)
    9d1c:	8fb000d8 	lw	s0,216(sp)
    9d20:	03e00008 	jr	ra
    9d24:	27bd00e8 	addiu	sp,sp,232
    9d28:	27bdff18 	addiu	sp,sp,-232
    9d2c:	afb200e0 	sw	s2,224(sp)
    9d30:	00809021 	move	s2,a0
    9d34:	8ca40004 	lw	a0,4(a1)
    9d38:	3c050001 	lui	a1,0x1
    9d3c:	24a5c8b0 	addiu	a1,a1,-14160
    9d40:	afb100dc 	sw	s1,220(sp)
    9d44:	afbf00e4 	sw	ra,228(sp)
    9d48:	0c003027 	jal	0xc09c
    9d4c:	afb000d8 	sw	s0,216(sp)
    9d50:	10400010 	beqz	v0,0x9d94
    9d54:	00408821 	move	s1,v0
    9d58:	0800275a 	j	0x9d68
    9d5c:	27b00010 	addiu	s0,sp,16
    9d60:	0c001ffd 	jal	0x7ff4
    9d64:	00000000 	nop
    9d68:	02002021 	move	a0,s0
    9d6c:	24050001 	li	a1,1
    9d70:	240600c8 	li	a2,200
    9d74:	0c002e04 	jal	0xb810
    9d78:	02203821 	move	a3,s1
    9d7c:	00403021 	move	a2,v0
    9d80:	02402021 	move	a0,s2
    9d84:	1440fff6 	bnez	v0,0x9d60
    9d88:	02002821 	move	a1,s0
    9d8c:	0c002f93 	jal	0xbe4c
    9d90:	02202021 	move	a0,s1
    9d94:	8fbf00e4 	lw	ra,228(sp)
    9d98:	8fb200e0 	lw	s2,224(sp)
    9d9c:	8fb100dc 	lw	s1,220(sp)
    9da0:	8fb000d8 	lw	s0,216(sp)
    9da4:	03e00008 	jr	ra
    9da8:	27bd00e8 	addiu	sp,sp,232
    9dac:	27bdfef8 	addiu	sp,sp,-264
    9db0:	8ca20004 	lw	v0,4(a1)
    9db4:	afb400f0 	sw	s4,240(sp)
    9db8:	afb200e8 	sw	s2,232(sp)
    9dbc:	afbf0104 	sw	ra,260(sp)
    9dc0:	afbe0100 	sw	s8,256(sp)
    9dc4:	afb700fc 	sw	s7,252(sp)
    9dc8:	afb600f8 	sw	s6,248(sp)
    9dcc:	afb500f4 	sw	s5,244(sp)
    9dd0:	afb300ec 	sw	s3,236(sp)
    9dd4:	afb100e4 	sw	s1,228(sp)
    9dd8:	afb000e0 	sw	s0,224(sp)
    9ddc:	80420000 	lb	v0,0(v0)
    9de0:	00809021 	move	s2,a0
    9de4:	10400007 	beqz	v0,0x9e04
    9de8:	24b40004 	addiu	s4,a1,4
    9dec:	8ca40008 	lw	a0,8(a1)
    9df0:	00000000 	nop
    9df4:	80820000 	lb	v0,0(a0)
    9df8:	00000000 	nop
    9dfc:	14400011 	bnez	v0,0x9e44
    9e00:	00000000 	nop
    9e04:	3c050001 	lui	a1,0x1
    9e08:	02402021 	move	a0,s2
    9e0c:	0c0021b0 	jal	0x86c0
    9e10:	24a5d314 	addiu	a1,a1,-11500
    9e14:	8fbf0104 	lw	ra,260(sp)
    9e18:	8fbe0100 	lw	s8,256(sp)
    9e1c:	8fb700fc 	lw	s7,252(sp)
    9e20:	8fb600f8 	lw	s6,248(sp)
    9e24:	8fb500f4 	lw	s5,244(sp)
    9e28:	8fb400f0 	lw	s4,240(sp)
    9e2c:	8fb300ec 	lw	s3,236(sp)
    9e30:	8fb200e8 	lw	s2,232(sp)
    9e34:	8fb100e4 	lw	s1,228(sp)
    9e38:	8fb000e0 	lw	s0,224(sp)
    9e3c:	03e00008 	jr	ra
    9e40:	27bd0108 	addiu	sp,sp,264
    9e44:	3c050001 	lui	a1,0x1
    9e48:	0c003027 	jal	0xc09c
    9e4c:	24a5c8b0 	addiu	a1,a1,-14160
    9e50:	1040fff0 	beqz	v0,0x9e14
    9e54:	00409821 	move	s3,v0
    9e58:	3c150001 	lui	s5,0x1
    9e5c:	3c170001 	lui	s7,0x1
    9e60:	00008821 	move	s1,zero
    9e64:	27b00010 	addiu	s0,sp,16
    9e68:	241600c7 	li	s6,199
    9e6c:	26b5d330 	addiu	s5,s5,-11472
    9e70:	241e000a 	li	s8,10
    9e74:	26f7d334 	addiu	s7,s7,-11468
    9e78:	02112021 	addu	a0,s0,s1
    9e7c:	24050001 	li	a1,1
    9e80:	02d13023 	subu	a2,s6,s1
    9e84:	0c002e04 	jal	0xb810
    9e88:	02603821 	move	a3,s3
    9e8c:	00511021 	addu	v0,v0,s1
    9e90:	02002021 	move	a0,s0
    9e94:	02a02821 	move	a1,s5
    9e98:	10400024 	beqz	v0,0x9f2c
    9e9c:	02021821 	addu	v1,s0,v0
    9ea0:	0c0008c1 	jal	0x2304
    9ea4:	a0600000 	sb	zero,0(v1)
    9ea8:	10400031 	beqz	v0,0x9f70
    9eac:	00401821 	move	v1,v0
    9eb0:	a0600000 	sb	zero,0(v1)
    9eb4:	24630001 	addiu	v1,v1,1
    9eb8:	80620000 	lb	v0,0(v1)
    9ebc:	00000000 	nop
    9ec0:	105e001e 	beq	v0,s8,0x9f3c
    9ec4:	00000000 	nop
    9ec8:	8e850000 	lw	a1,0(s4)
    9ecc:	02002021 	move	a0,s0
    9ed0:	0c0008c1 	jal	0x2304
    9ed4:	afa300d8 	sw	v1,216(sp)
    9ed8:	02402021 	move	a0,s2
    9edc:	02e02821 	move	a1,s7
    9ee0:	8fa300d8 	lw	v1,216(sp)
    9ee4:	10400005 	beqz	v0,0x9efc
    9ee8:	02003021 	move	a2,s0
    9eec:	0c0021b0 	jal	0x86c0
    9ef0:	00000000 	nop
    9ef4:	8fa300d8 	lw	v1,216(sp)
    9ef8:	00000000 	nop
    9efc:	14600011 	bnez	v1,0x9f44
    9f00:	24050001 	li	a1,1
    9f04:	00008821 	move	s1,zero
    9f08:	02112021 	addu	a0,s0,s1
    9f0c:	02d13023 	subu	a2,s6,s1
    9f10:	0c002e04 	jal	0xb810
    9f14:	02603821 	move	a3,s3
    9f18:	00511021 	addu	v0,v0,s1
    9f1c:	02002021 	move	a0,s0
    9f20:	02a02821 	move	a1,s5
    9f24:	1440ffde 	bnez	v0,0x9ea0
    9f28:	02021821 	addu	v1,s0,v0
    9f2c:	0c002f93 	jal	0xbe4c
    9f30:	02602021 	move	a0,s3
    9f34:	08002785 	j	0x9e14
    9f38:	00000000 	nop
    9f3c:	080027b2 	j	0x9ec8
    9f40:	24630001 	addiu	v1,v1,1
    9f44:	00602021 	move	a0,v1
    9f48:	0c0008e0 	jal	0x2380
    9f4c:	afa300d8 	sw	v1,216(sp)
    9f50:	8fa300d8 	lw	v1,216(sp)
    9f54:	02002021 	move	a0,s0
    9f58:	00602821 	move	a1,v1
    9f5c:	00403021 	move	a2,v0
    9f60:	0c0008e8 	jal	0x23a0
    9f64:	00408821 	move	s1,v0
    9f68:	0800279f 	j	0x9e7c
    9f6c:	02112021 	addu	a0,s0,s1
    9f70:	3c050001 	lui	a1,0x1
    9f74:	02002021 	move	a0,s0
    9f78:	0c0008c1 	jal	0x2304
    9f7c:	24a5d2c8 	addiu	a1,a1,-11576
    9f80:	1040ffd1 	beqz	v0,0x9ec8
    9f84:	00401821 	move	v1,v0
    9f88:	080027ad 	j	0x9eb4
    9f8c:	a0600000 	sb	zero,0(v1)
    9f90:	27bdfdd0 	addiu	sp,sp,-560
    9f94:	afb10220 	sw	s1,544(sp)
    9f98:	27b10010 	addiu	s1,sp,16
    9f9c:	02202821 	move	a1,s1
    9fa0:	24060204 	li	a2,516
    9fa4:	afb20224 	sw	s2,548(sp)
    9fa8:	afb0021c 	sw	s0,540(sp)
    9fac:	afbf022c 	sw	ra,556(sp)
    9fb0:	afb30228 	sw	s3,552(sp)
    9fb4:	0c0020af 	jal	0x82bc
    9fb8:	00809021 	move	s2,a0
    9fbc:	00408021 	move	s0,v0
    9fc0:	28420004 	slti	v0,v0,4
    9fc4:	14400018 	bnez	v0,0xa028
    9fc8:	00000000 	nop
    9fcc:	93a20010 	lbu	v0,16(sp)
    9fd0:	00000000 	nop
    9fd4:	14400014 	bnez	v0,0xa028
    9fd8:	00000000 	nop
    9fdc:	93a30012 	lbu	v1,18(sp)
    9fe0:	93a20013 	lbu	v0,19(sp)
    9fe4:	00031a00 	sll	v1,v1,0x8
    9fe8:	00621825 	or	v1,v1,v0
    9fec:	2463ffff 	addiu	v1,v1,-1
    9ff0:	00039a40 	sll	s3,v1,0x9
    9ff4:	2673fffc 	addiu	s3,s3,-4
    9ff8:	8e4200a8 	lw	v0,168(s2)
    9ffc:	02709821 	addu	s3,s3,s0
    a000:	0053202a 	slt	a0,v0,s3
    a004:	10800004 	beqz	a0,0xa018
    a008:	00000000 	nop
    a00c:	02028021 	addu	s0,s0,v0
    a010:	02138023 	subu	s0,s0,s3
    a014:	00409821 	move	s3,v0
    a018:	93a40011 	lbu	a0,17(sp)
    a01c:	24020003 	li	v0,3
    a020:	10820008 	beq	a0,v0,0xa044
    a024:	2606fffc 	addiu	a2,s0,-4
    a028:	8fbf022c 	lw	ra,556(sp)
    a02c:	8fb30228 	lw	s3,552(sp)
    a030:	8fb20224 	lw	s2,548(sp)
    a034:	8fb10220 	lw	s1,544(sp)
    a038:	8fb0021c 	lw	s0,540(sp)
    a03c:	03e00008 	jr	ra
    a040:	27bd0230 	addiu	sp,sp,560
    a044:	8e4400a0 	lw	a0,160(s2)
    a048:	00031a40 	sll	v1,v1,0x9
    a04c:	00832021 	addu	a0,a0,v1
    a050:	0c0008e8 	jal	0x23a0
    a054:	27a50014 	addiu	a1,sp,20
    a058:	2a100204 	slti	s0,s0,516
    a05c:	24020004 	li	v0,4
    a060:	02402021 	move	a0,s2
    a064:	02202821 	move	a1,s1
    a068:	24060004 	li	a2,4
    a06c:	0c001ffd 	jal	0x7ff4
    a070:	a3a20011 	sb	v0,17(sp)
    a074:	1200ffec 	beqz	s0,0xa028
    a078:	02402021 	move	a0,s2
    a07c:	8e42009c 	lw	v0,156(s2)
    a080:	8e4500a0 	lw	a1,160(s2)
    a084:	0040f809 	jalr	v0
    a088:	02603021 	move	a2,s3
    a08c:	0c002134 	jal	0x84d0
    a090:	02402021 	move	a0,s2
    a094:	0800280a 	j	0xa028
    a098:	00000000 	nop
    a09c:	27bdffe0 	addiu	sp,sp,-32
    a0a0:	afb00010 	sw	s0,16(sp)
    a0a4:	8c9000a0 	lw	s0,160(a0)
    a0a8:	afb20018 	sw	s2,24(sp)
    a0ac:	afb10014 	sw	s1,20(sp)
    a0b0:	afbf001c 	sw	ra,28(sp)
    a0b4:	8c920008 	lw	s2,8(a0)
    a0b8:	12000022 	beqz	s0,0xa144
    a0bc:	00808821 	move	s1,a0
    a0c0:	8e020100 	lw	v0,256(s0)
    a0c4:	8e0600fc 	lw	a2,252(s0)
    a0c8:	8e030104 	lw	v1,260(s0)
    a0cc:	00000000 	nop
    a0d0:	10600022 	beqz	v1,0xa15c
    a0d4:	00c23023 	subu	a2,a2,v0
    a0d8:	8e0500f8 	lw	a1,248(s0)
    a0dc:	0c001ffd 	jal	0x7ff4
    a0e0:	00a22821 	addu	a1,a1,v0
    a0e4:	8e060100 	lw	a2,256(s0)
    a0e8:	8e0300fc 	lw	v1,252(s0)
    a0ec:	00463021 	addu	a2,v0,a2
    a0f0:	10c30005 	beq	a2,v1,0xa108
    a0f4:	ae060100 	sw	a2,256(s0)
    a0f8:	14400012 	bnez	v0,0xa144
    a0fc:	2a520005 	slti	s2,s2,5
    a100:	16400010 	bnez	s2,0xa144
    a104:	00000000 	nop
    a108:	8e0500f8 	lw	a1,248(s0)
    a10c:	8e22009c 	lw	v0,156(s1)
    a110:	00000000 	nop
    a114:	0040f809 	jalr	v0
    a118:	02202021 	move	a0,s1
    a11c:	0c00036a 	jal	0xda8
    a120:	02002021 	move	a0,s0
    a124:	ae2000a0 	sw	zero,160(s1)
    a128:	02202021 	move	a0,s1
    a12c:	8fbf001c 	lw	ra,28(sp)
    a130:	8fb20018 	lw	s2,24(sp)
    a134:	8fb10014 	lw	s1,20(sp)
    a138:	8fb00010 	lw	s0,16(sp)
    a13c:	08002134 	j	0x84d0
    a140:	27bd0020 	addiu	sp,sp,32
    a144:	8fbf001c 	lw	ra,28(sp)
    a148:	8fb20018 	lw	s2,24(sp)
    a14c:	8fb10014 	lw	s1,20(sp)
    a150:	8fb00010 	lw	s0,16(sp)
    a154:	03e00008 	jr	ra
    a158:	27bd0020 	addiu	sp,sp,32
    a15c:	8e0500f8 	lw	a1,248(s0)
    a160:	0c0020af 	jal	0x82bc
    a164:	00a22821 	addu	a1,a1,v0
    a168:	08002839 	j	0xa0e4
    a16c:	00000000 	nop
    a170:	27bdfd80 	addiu	sp,sp,-640
    a174:	afb20270 	sw	s2,624(sp)
    a178:	8c9200a0 	lw	s2,160(a0)
    a17c:	afb40278 	sw	s4,632(sp)
    a180:	afb30274 	sw	s3,628(sp)
    a184:	afbf027c 	sw	ra,636(sp)
    a188:	afb1026c 	sw	s1,620(sp)
    a18c:	afb00268 	sw	s0,616(sp)
    a190:	8c940008 	lw	s4,8(a0)
    a194:	12400014 	beqz	s2,0xa1e8
    a198:	00809821 	move	s3,a0
    a19c:	8e420010 	lw	v0,16(s2)
    a1a0:	00000000 	nop
    a1a4:	14400010 	bnez	v0,0xa1e8
    a1a8:	27b10010 	addiu	s1,sp,16
    a1ac:	02202821 	move	a1,s1
    a1b0:	24060258 	li	a2,600
    a1b4:	0c0020af 	jal	0x82bc
    a1b8:	02602021 	move	a0,s3
    a1bc:	8e470018 	lw	a3,24(s2)
    a1c0:	00408021 	move	s0,v0
    a1c4:	02202021 	move	a0,s1
    a1c8:	24050001 	li	a1,1
    a1cc:	0c002f01 	jal	0xbc04
    a1d0:	00403021 	move	a2,v0
    a1d4:	1600fff6 	bnez	s0,0xa1b0
    a1d8:	02202821 	move	a1,s1
    a1dc:	2a940005 	slti	s4,s4,5
    a1e0:	12800009 	beqz	s4,0xa208
    a1e4:	00000000 	nop
    a1e8:	8fbf027c 	lw	ra,636(sp)
    a1ec:	8fb40278 	lw	s4,632(sp)
    a1f0:	8fb30274 	lw	s3,628(sp)
    a1f4:	8fb20270 	lw	s2,624(sp)
    a1f8:	8fb1026c 	lw	s1,620(sp)
    a1fc:	8fb00268 	lw	s0,616(sp)
    a200:	03e00008 	jr	ra
    a204:	27bd0280 	addiu	sp,sp,640
    a208:	8e440018 	lw	a0,24(s2)
    a20c:	0c002f93 	jal	0xbe4c
    a210:	00000000 	nop
    a214:	8e440000 	lw	a0,0(s2)
    a218:	24020001 	li	v0,1
    a21c:	3c050001 	lui	a1,0x1
    a220:	ae420010 	sw	v0,16(s2)
    a224:	0c0021b0 	jal	0x86c0
    a228:	24a5d338 	addiu	a1,a1,-11464
    a22c:	0c002134 	jal	0x84d0
    a230:	02602021 	move	a0,s3
    a234:	8fbf027c 	lw	ra,636(sp)
    a238:	8fb40278 	lw	s4,632(sp)
    a23c:	8fb30274 	lw	s3,628(sp)
    a240:	8fb20270 	lw	s2,624(sp)
    a244:	8fb1026c 	lw	s1,620(sp)
    a248:	8fb00268 	lw	s0,616(sp)
    a24c:	03e00008 	jr	ra
    a250:	27bd0280 	addiu	sp,sp,640
    a254:	27bdfd68 	addiu	sp,sp,-664
    a258:	afb10284 	sw	s1,644(sp)
    a25c:	27b10024 	addiu	s1,sp,36
    a260:	02202821 	move	a1,s1
    a264:	24060257 	li	a2,599
    a268:	afb3028c 	sw	s3,652(sp)
    a26c:	afb20288 	sw	s2,648(sp)
    a270:	afb00280 	sw	s0,640(sp)
    a274:	afbf0294 	sw	ra,660(sp)
    a278:	afb40290 	sw	s4,656(sp)
    a27c:	8c9300a0 	lw	s3,160(a0)
    a280:	0c0020af 	jal	0x82bc
    a284:	00808021 	move	s0,a0
    a288:	14400009 	bnez	v0,0xa2b0
    a28c:	00409021 	move	s2,v0
    a290:	8fbf0294 	lw	ra,660(sp)
    a294:	8fb40290 	lw	s4,656(sp)
    a298:	8fb3028c 	lw	s3,652(sp)
    a29c:	8fb20288 	lw	s2,648(sp)
    a2a0:	8fb10284 	lw	s1,644(sp)
    a2a4:	8fb00280 	lw	s0,640(sp)
    a2a8:	03e00008 	jr	ra
    a2ac:	27bd0298 	addiu	sp,sp,664
    a2b0:	27a60020 	addiu	a2,sp,32
    a2b4:	00c2a021 	addu	s4,a2,v0
    a2b8:	3c050001 	lui	a1,0x1
    a2bc:	02202021 	move	a0,s1
    a2c0:	24a5d58c 	addiu	a1,a1,-10868
    a2c4:	a2800004 	sb	zero,4(s4)
    a2c8:	0c000ac9 	jal	0x2b24
    a2cc:	2a520003 	slti	s2,s2,3
    a2d0:	1240001c 	beqz	s2,0xa344
    a2d4:	00000000 	nop
    a2d8:	8fa20020 	lw	v0,32(sp)
    a2dc:	00000000 	nop
    a2e0:	2442ff38 	addiu	v0,v0,-200
    a2e4:	2c4200c8 	sltiu	v0,v0,200
    a2e8:	1040ffe9 	beqz	v0,0xa290
    a2ec:	00000000 	nop
    a2f0:	8e0200a8 	lw	v0,168(s0)
    a2f4:	00000000 	nop
    a2f8:	2c430005 	sltiu	v1,v0,5
    a2fc:	14600013 	bnez	v1,0xa34c
    a300:	a3a00024 	sb	zero,36(sp)
    a304:	0c0008e0 	jal	0x2380
    a308:	02202021 	move	a0,s1
    a30c:	00403021 	move	a2,v0
    a310:	02002021 	move	a0,s0
    a314:	0c001ffd 	jal	0x7ff4
    a318:	02202821 	move	a1,s1
    a31c:	0c001fe2 	jal	0x7f88
    a320:	02002021 	move	a0,s0
    a324:	8e0300a8 	lw	v1,168(s0)
    a328:	24020009 	li	v0,9
    a32c:	1462ffd8 	bne	v1,v0,0xa290
    a330:	00000000 	nop
    a334:	0c002134 	jal	0x84d0
    a338:	02002021 	move	a0,s0
    a33c:	080028a4 	j	0xa290
    a340:	00000000 	nop
    a344:	080028b6 	j	0xa2d8
    a348:	a2800002 	sb	zero,2(s4)
    a34c:	3c030001 	lui	v1,0x1
    a350:	00021080 	sll	v0,v0,0x2
    a354:	2463d524 	addiu	v1,v1,-10972
    a358:	00621021 	addu	v0,v1,v0
    a35c:	8c420000 	lw	v0,0(v0)
    a360:	00000000 	nop
    a364:	00400008 	jr	v0
    a368:	00000000 	nop
    a36c:	3c050001 	lui	a1,0x1
    a370:	02202021 	move	a0,s1
    a374:	24a5d350 	addiu	a1,a1,-11440
    a378:	0c0009c7 	jal	0x271c
    a37c:	26660058 	addiu	a2,s3,88
    a380:	24020002 	li	v0,2
    a384:	8fa30020 	lw	v1,32(sp)
    a388:	ae0200a8 	sw	v0,168(s0)
    a38c:	2402014b 	li	v0,331
    a390:	1062ffdc 	beq	v1,v0,0xa304
    a394:	00000000 	nop
    a398:	8e660000 	lw	a2,0(s3)
    a39c:	8e620004 	lw	v0,4(s3)
    a3a0:	00063c02 	srl	a3,a2,0x10
    a3a4:	00064a02 	srl	t1,a2,0x8
    a3a8:	00021a02 	srl	v1,v0,0x8
    a3ac:	3c050001 	lui	a1,0x1
    a3b0:	30c800ff 	andi	t0,a2,0xff
    a3b4:	312900ff 	andi	t1,t1,0xff
    a3b8:	306300ff 	andi	v1,v1,0xff
    a3bc:	304200ff 	andi	v0,v0,0xff
    a3c0:	02202021 	move	a0,s1
    a3c4:	24a5d35c 	addiu	a1,a1,-11428
    a3c8:	00063602 	srl	a2,a2,0x18
    a3cc:	30e700ff 	andi	a3,a3,0xff
    a3d0:	afa90010 	sw	t1,16(sp)
    a3d4:	afa80014 	sw	t0,20(sp)
    a3d8:	afa30018 	sw	v1,24(sp)
    a3dc:	0c0009c7 	jal	0x271c
    a3e0:	afa2001c 	sw	v0,28(sp)
    a3e4:	24020003 	li	v0,3
    a3e8:	080028c1 	j	0xa304
    a3ec:	ae0200a8 	sw	v0,168(s0)
    a3f0:	8e620104 	lw	v0,260(s3)
    a3f4:	00000000 	nop
    a3f8:	14400018 	bnez	v0,0xa45c
    a3fc:	00000000 	nop
    a400:	3c050001 	lui	a1,0x1
    a404:	02202021 	move	a0,s1
    a408:	24a5d378 	addiu	a1,a1,-11400
    a40c:	0c0009c7 	jal	0x271c
    a410:	266600a8 	addiu	a2,s3,168
    a414:	24020004 	li	v0,4
    a418:	080028c1 	j	0xa304
    a41c:	ae0200a8 	sw	v0,168(s0)
    a420:	3c050001 	lui	a1,0x1
    a424:	02202021 	move	a0,s1
    a428:	24a5d344 	addiu	a1,a1,-11452
    a42c:	0c0009c7 	jal	0x271c
    a430:	26660008 	addiu	a2,s3,8
    a434:	24020001 	li	v0,1
    a438:	080028c1 	j	0xa304
    a43c:	ae0200a8 	sw	v0,168(s0)
    a440:	3c050001 	lui	a1,0x1
    a444:	02202021 	move	a0,s1
    a448:	0c0009c7 	jal	0x271c
    a44c:	24a5d390 	addiu	a1,a1,-11376
    a450:	24020009 	li	v0,9
    a454:	080028c1 	j	0xa304
    a458:	ae0200a8 	sw	v0,168(s0)
    a45c:	3c050001 	lui	a1,0x1
    a460:	02202021 	move	a0,s1
    a464:	24a5d384 	addiu	a1,a1,-11388
    a468:	0c0009c7 	jal	0x271c
    a46c:	266600a8 	addiu	a2,s3,168
    a470:	24020004 	li	v0,4
    a474:	080028c1 	j	0xa304
    a478:	ae0200a8 	sw	v0,168(s0)
    a47c:	8c820008 	lw	v0,8(a0)
    a480:	27bdff18 	addiu	sp,sp,-232
    a484:	2c420005 	sltiu	v0,v0,5
    a488:	afb500d4 	sw	s5,212(sp)
    a48c:	afb000c0 	sw	s0,192(sp)
    a490:	afbf00e4 	sw	ra,228(sp)
    a494:	afbe00e0 	sw	s8,224(sp)
    a498:	afb700dc 	sw	s7,220(sp)
    a49c:	afb600d8 	sw	s6,216(sp)
    a4a0:	afb400d0 	sw	s4,208(sp)
    a4a4:	afb300cc 	sw	s3,204(sp)
    a4a8:	afb200c8 	sw	s2,200(sp)
    a4ac:	afb100c4 	sw	s1,196(sp)
    a4b0:	8c9000a0 	lw	s0,160(a0)
    a4b4:	10400091 	beqz	v0,0xa6fc
    a4b8:	0080a821 	move	s5,a0
    a4bc:	27b10058 	addiu	s1,sp,88
    a4c0:	02202821 	move	a1,s1
    a4c4:	0c0020af 	jal	0x82bc
    a4c8:	24060053 	li	a2,83
    a4cc:	12000188 	beqz	s0,0xaaf0
    a4d0:	0040f021 	move	s8,v0
    a4d4:	3c140001 	lui	s4,0x1
    a4d8:	3c020002 	lui	v0,0x2
    a4dc:	3c170002 	lui	s7,0x2
    a4e0:	27b30010 	addiu	s3,sp,16
    a4e4:	2456ddd8 	addiu	s6,v0,-8744
    a4e8:	2694d438 	addiu	s4,s4,-11208
    a4ec:	26f7df90 	addiu	s7,s7,-8304
    a4f0:	13c00082 	beqz	s8,0xa6fc
    a4f4:	00000000 	nop
    a4f8:	027e1021 	addu	v0,s3,s8
    a4fc:	aea0002c 	sw	zero,44(s5)
    a500:	02002021 	move	a0,s0
    a504:	0c0008e0 	jal	0x2380
    a508:	a0400048 	sb	zero,72(v0)
    a50c:	1bc000bd 	blez	s8,0xa804
    a510:	afa200b0 	sw	v0,176(sp)
    a514:	93a20058 	lbu	v0,88(sp)
    a518:	240300ff 	li	v1,255
    a51c:	10430077 	beq	v0,v1,0xa6fc
    a520:	00009021 	move	s2,zero
    a524:	24030008 	li	v1,8
    a528:	104300be 	beq	v0,v1,0xa824
    a52c:	2403001b 	li	v1,27
    a530:	104300dd 	beq	v0,v1,0xa8a8
    a534:	24030044 	li	v1,68
    a538:	14400003 	bnez	v0,0xa548
    a53c:	02721021 	addu	v0,s3,s2
    a540:	2403000a 	li	v1,10
    a544:	a0430048 	sb	v1,72(v0)
    a548:	8fa500b0 	lw	a1,176(sp)
    a54c:	00000000 	nop
    a550:	28a2004c 	slti	v0,a1,76
    a554:	144000c5 	bnez	v0,0xa86c
    a558:	28a2004e 	slti	v0,a1,78
    a55c:	10400007 	beqz	v0,0xa57c
    a560:	02721021 	addu	v0,s3,s2
    a564:	90420048 	lbu	v0,72(v0)
    a568:	2403000d 	li	v1,13
    a56c:	104300bf 	beq	v0,v1,0xa86c
    a570:	2403000a 	li	v1,10
    a574:	104300be 	beq	v0,v1,0xa870
    a578:	02a02021 	move	a0,s5
    a57c:	3c050001 	lui	a1,0x1
    a580:	02002021 	move	a0,s0
    a584:	0c0008c1 	jal	0x2304
    a588:	24a5d394 	addiu	a1,a1,-11372
    a58c:	10400053 	beqz	v0,0xa6dc
    a590:	00000000 	nop
    a594:	a0400000 	sb	zero,0(v0)
    a598:	0c0008e0 	jal	0x2380
    a59c:	02002021 	move	a0,s0
    a5a0:	10400090 	beqz	v0,0xa7e4
    a5a4:	afa200b0 	sw	v0,176(sp)
    a5a8:	8fa300b0 	lw	v1,176(sp)
    a5ac:	00000000 	nop
    a5b0:	28620050 	slti	v0,v1,80
    a5b4:	1440005d 	bnez	v0,0xa72c
    a5b8:	3c050002 	lui	a1,0x2
    a5bc:	27a20030 	addiu	v0,sp,48
    a5c0:	ac540000 	sw	s4,0(v0)
    a5c4:	24420004 	addiu	v0,v0,4
    a5c8:	1622fffd 	bne	s1,v0,0xa5c0
    a5cc:	00000000 	nop
    a5d0:	afb00030 	sw	s0,48(sp)
    a5d4:	82030000 	lb	v1,0(s0)
    a5d8:	00000000 	nop
    a5dc:	10600081 	beqz	v1,0xa7e4
    a5e0:	26020001 	addiu	v0,s0,1
    a5e4:	24050001 	li	a1,1
    a5e8:	24060020 	li	a2,32
    a5ec:	10660078 	beq	v1,a2,0xa7d0
    a5f0:	00051880 	sll	v1,a1,0x2
    a5f4:	80430000 	lb	v1,0(v0)
    a5f8:	00000000 	nop
    a5fc:	10600003 	beqz	v1,0xa60c
    a600:	28a4000a 	slti	a0,a1,10
    a604:	1480fff9 	bnez	a0,0xa5ec
    a608:	24420001 	addiu	v0,v0,1
    a60c:	8fa20030 	lw	v0,48(sp)
    a610:	00000000 	nop
    a614:	80420000 	lb	v0,0(v0)
    a618:	00000000 	nop
    a61c:	10400072 	beqz	v0,0xa7e8
    a620:	3c050001 	lui	a1,0x1
    a624:	8f82816c 	lw	v0,-32404(gp)
    a628:	00000000 	nop
    a62c:	8c450000 	lw	a1,0(v0)
    a630:	00000000 	nop
    a634:	10a0001e 	beqz	a1,0xa6b0
    a638:	00000000 	nop
    a63c:	24030008 	li	v1,8
    a640:	0800299f 	j	0xa67c
    a644:	afa000b0 	sw	zero,176(sp)
    a648:	8f82816c 	lw	v0,-32404(gp)
    a64c:	8fa500b0 	lw	a1,176(sp)
    a650:	00000000 	nop
    a654:	00452021 	addu	a0,v0,a1
    a658:	8c840004 	lw	a0,4(a0)
    a65c:	00000000 	nop
    a660:	148000cb 	bnez	a0,0xa990
    a664:	00431021 	addu	v0,v0,v1
    a668:	8c450000 	lw	a1,0(v0)
    a66c:	24640008 	addiu	a0,v1,8
    a670:	10a0000f 	beqz	a1,0xa6b0
    a674:	afa300b0 	sw	v1,176(sp)
    a678:	00801821 	move	v1,a0
    a67c:	02002021 	move	a0,s0
    a680:	0c0008a8 	jal	0x22a0
    a684:	afa300bc 	sw	v1,188(sp)
    a688:	8fa300bc 	lw	v1,188(sp)
    a68c:	1040ffee 	beqz	v0,0xa648
    a690:	24640008 	addiu	a0,v1,8
    a694:	8f82816c 	lw	v0,-32404(gp)
    a698:	00000000 	nop
    a69c:	00431021 	addu	v0,v0,v1
    a6a0:	8c450000 	lw	a1,0(v0)
    a6a4:	00000000 	nop
    a6a8:	14a0fff3 	bnez	a1,0xa678
    a6ac:	afa300b0 	sw	v1,176(sp)
    a6b0:	8ea20008 	lw	v0,8(s5)
    a6b4:	00000000 	nop
    a6b8:	2c420005 	sltiu	v0,v0,5
    a6bc:	1040000f 	beqz	v0,0xa6fc
    a6c0:	00000000 	nop
    a6c4:	a2000000 	sb	zero,0(s0)
    a6c8:	8ea2002c 	lw	v0,44(s5)
    a6cc:	00000000 	nop
    a6d0:	104000f6 	beqz	v0,0xaaac
    a6d4:	af808170 	sw	zero,-32400(gp)
    a6d8:	afa000b0 	sw	zero,176(sp)
    a6dc:	26520001 	addiu	s2,s2,1
    a6e0:	025e102a 	slt	v0,s2,s8
    a6e4:	10400047 	beqz	v0,0xa804
    a6e8:	02721021 	addu	v0,s3,s2
    a6ec:	90420048 	lbu	v0,72(v0)
    a6f0:	240300ff 	li	v1,255
    a6f4:	1443ff8c 	bne	v0,v1,0xa528
    a6f8:	24030008 	li	v1,8
    a6fc:	8fbf00e4 	lw	ra,228(sp)
    a700:	8fbe00e0 	lw	s8,224(sp)
    a704:	8fb700dc 	lw	s7,220(sp)
    a708:	8fb600d8 	lw	s6,216(sp)
    a70c:	8fb500d4 	lw	s5,212(sp)
    a710:	8fb400d0 	lw	s4,208(sp)
    a714:	8fb300cc 	lw	s3,204(sp)
    a718:	8fb200c8 	lw	s2,200(sp)
    a71c:	8fb100c4 	lw	s1,196(sp)
    a720:	8fb000c0 	lw	s0,192(sp)
    a724:	03e00008 	jr	ra
    a728:	27bd00e8 	addiu	sp,sp,232
    a72c:	8fa400b0 	lw	a0,176(sp)
    a730:	24630001 	addiu	v1,v1,1
    a734:	24a5de00 	addiu	a1,a1,-8704
    a738:	2406018f 	li	a2,399
    a73c:	00c43023 	subu	a2,a2,a0
    a740:	00a32021 	addu	a0,a1,v1
    a744:	3c050002 	lui	a1,0x2
    a748:	24a5de00 	addiu	a1,a1,-8704
    a74c:	0c000903 	jal	0x240c
    a750:	afa300bc 	sw	v1,188(sp)
    a754:	3c040002 	lui	a0,0x2
    a758:	2484de00 	addiu	a0,a0,-8704
    a75c:	0c00085e 	jal	0x2178
    a760:	02002821 	move	a1,s0
    a764:	3c020002 	lui	v0,0x2
    a768:	2442de00 	addiu	v0,v0,-8704
    a76c:	a040018f 	sb	zero,399(v0)
    a770:	3c040002 	lui	a0,0x2
    a774:	8fa300bc 	lw	v1,188(sp)
    a778:	080029e4 	j	0xa790
    a77c:	2482ddfc 	addiu	v0,a0,-8708
    a780:	ac450000 	sw	a1,0(v0)
    a784:	2442fffc 	addiu	v0,v0,-4
    a788:	1056000c 	beq	v0,s6,0xa7bc
    a78c:	00000000 	nop
    a790:	8c44fffc 	lw	a0,-4(v0)
    a794:	00000000 	nop
    a798:	00832821 	addu	a1,a0,v1
    a79c:	10800003 	beqz	a0,0xa7ac
    a7a0:	00b7302b 	sltu	a2,a1,s7
    a7a4:	14c0fff6 	bnez	a2,0xa780
    a7a8:	00000000 	nop
    a7ac:	ac400000 	sw	zero,0(v0)
    a7b0:	2442fffc 	addiu	v0,v0,-4
    a7b4:	1456fff6 	bne	v0,s6,0xa790
    a7b8:	00000000 	nop
    a7bc:	3c020002 	lui	v0,0x2
    a7c0:	2442de00 	addiu	v0,v0,-8704
    a7c4:	3c050002 	lui	a1,0x2
    a7c8:	0800296f 	j	0xa5bc
    a7cc:	aca2ddd8 	sw	v0,-8744(a1)
    a7d0:	02631821 	addu	v1,s3,v1
    a7d4:	a040ffff 	sb	zero,-1(v0)
    a7d8:	24a50001 	addiu	a1,a1,1
    a7dc:	0800297d 	j	0xa5f4
    a7e0:	ac620020 	sw	v0,32(v1)
    a7e4:	3c050001 	lui	a1,0x1
    a7e8:	02a02021 	move	a0,s5
    a7ec:	24a5d3ac 	addiu	a1,a1,-11348
    a7f0:	0c0021b0 	jal	0x86c0
    a7f4:	26520001 	addiu	s2,s2,1
    a7f8:	025e102a 	slt	v0,s2,s8
    a7fc:	1440ffbb 	bnez	v0,0xa6ec
    a800:	02721021 	addu	v0,s3,s2
    a804:	0c001fe2 	jal	0x7f88
    a808:	02a02021 	move	a0,s5
    a80c:	02a02021 	move	a0,s5
    a810:	02202821 	move	a1,s1
    a814:	0c0020af 	jal	0x82bc
    a818:	24060053 	li	a2,83
    a81c:	0800293c 	j	0xa4f0
    a820:	0040f021 	move	s8,v0
    a824:	8fa400b0 	lw	a0,176(sp)
    a828:	00000000 	nop
    a82c:	1080ff53 	beqz	a0,0xa57c
    a830:	2484ffff 	addiu	a0,a0,-1
    a834:	02041021 	addu	v0,s0,a0
    a838:	afa400b0 	sw	a0,176(sp)
    a83c:	24030020 	li	v1,32
    a840:	a0400000 	sb	zero,0(v0)
    a844:	02a02021 	move	a0,s5
    a848:	24020008 	li	v0,8
    a84c:	02602821 	move	a1,s3
    a850:	24060003 	li	a2,3
    a854:	a3a20010 	sb	v0,16(sp)
    a858:	a3a30011 	sb	v1,17(sp)
    a85c:	0c001ffd 	jal	0x7ff4
    a860:	a3a20012 	sb	v0,18(sp)
    a864:	08002960 	j	0xa580
    a868:	3c050001 	lui	a1,0x1
    a86c:	02a02021 	move	a0,s5
    a870:	02322821 	addu	a1,s1,s2
    a874:	0c001ffd 	jal	0x7ff4
    a878:	24060001 	li	a2,1
    a87c:	8fa400b0 	lw	a0,176(sp)
    a880:	8fa500b0 	lw	a1,176(sp)
    a884:	02721021 	addu	v0,s3,s2
    a888:	02041821 	addu	v1,s0,a0
    a88c:	24a50001 	addiu	a1,a1,1
    a890:	90440048 	lbu	a0,72(v0)
    a894:	02051021 	addu	v0,s0,a1
    a898:	afa500b0 	sw	a1,176(sp)
    a89c:	a0640000 	sb	a0,0(v1)
    a8a0:	0800295f 	j	0xa57c
    a8a4:	a0400000 	sb	zero,0(v0)
    a8a8:	26520002 	addiu	s2,s2,2
    a8ac:	02721021 	addu	v0,s3,s2
    a8b0:	90420048 	lbu	v0,72(v0)
    a8b4:	00000000 	nop
    a8b8:	1043ffda 	beq	v0,v1,0xa824
    a8bc:	24030041 	li	v1,65
    a8c0:	10430080 	beq	v0,v1,0xaac4
    a8c4:	24030042 	li	v1,66
    a8c8:	1443ff8c 	bne	v0,v1,0xa6fc
    a8cc:	00000000 	nop
    a8d0:	8f828170 	lw	v0,-32400(gp)
    a8d4:	00000000 	nop
    a8d8:	2442ffff 	addiu	v0,v0,-1
    a8dc:	04400082 	bltz	v0,0xaae8
    a8e0:	af828170 	sw	v0,-32400(gp)
    a8e4:	8fa500b0 	lw	a1,176(sp)
    a8e8:	24020008 	li	v0,8
    a8ec:	24030020 	li	v1,32
    a8f0:	a3a20010 	sb	v0,16(sp)
    a8f4:	a3a30011 	sb	v1,17(sp)
    a8f8:	18a0000f 	blez	a1,0xa938
    a8fc:	a3a20012 	sb	v0,18(sp)
    a900:	00001821 	move	v1,zero
    a904:	24630001 	addiu	v1,v1,1
    a908:	02a02021 	move	a0,s5
    a90c:	02602821 	move	a1,s3
    a910:	24060003 	li	a2,3
    a914:	0c001ffd 	jal	0x7ff4
    a918:	afa300bc 	sw	v1,188(sp)
    a91c:	8fa300bc 	lw	v1,188(sp)
    a920:	8fa400b0 	lw	a0,176(sp)
    a924:	00000000 	nop
    a928:	0064102a 	slt	v0,v1,a0
    a92c:	1440fff6 	bnez	v0,0xa908
    a930:	24630001 	addiu	v1,v1,1
    a934:	2463ffff 	addiu	v1,v1,-1
    a938:	a2000000 	sb	zero,0(s0)
    a93c:	8f828170 	lw	v0,-32400(gp)
    a940:	00000000 	nop
    a944:	10400009 	beqz	v0,0xa96c
    a948:	2442ffff 	addiu	v0,v0,-1
    a94c:	00021080 	sll	v0,v0,0x2
    a950:	00561021 	addu	v0,v0,s6
    a954:	8c450000 	lw	a1,0(v0)
    a958:	00000000 	nop
    a95c:	10a00003 	beqz	a1,0xa96c
    a960:	02002021 	move	a0,s0
    a964:	0c00088b 	jal	0x222c
    a968:	2406004f 	li	a2,79
    a96c:	0c0008e0 	jal	0x2380
    a970:	02002021 	move	a0,s0
    a974:	00403021 	move	a2,v0
    a978:	02a02021 	move	a0,s5
    a97c:	02002821 	move	a1,s0
    a980:	0c001ffd 	jal	0x7ff4
    a984:	afa200b0 	sw	v0,176(sp)
    a988:	08002960 	j	0xa580
    a98c:	3c050001 	lui	a1,0x1
    a990:	27a30034 	addiu	v1,sp,52
    a994:	2406003e 	li	a2,62
    a998:	2407003c 	li	a3,60
    a99c:	8c640000 	lw	a0,0(v1)
    a9a0:	00000000 	nop
    a9a4:	80820000 	lb	v0,0(a0)
    a9a8:	00000000 	nop
    a9ac:	1046001c 	beq	v0,a2,0xaa20
    a9b0:	00000000 	nop
    a9b4:	1047002c 	beq	v0,a3,0xaa68
    a9b8:	00000000 	nop
    a9bc:	24630004 	addiu	v1,v1,4
    a9c0:	1623fff6 	bne	s1,v1,0xa99c
    a9c4:	02a02021 	move	a0,s5
    a9c8:	8f82816c 	lw	v0,-32404(gp)
    a9cc:	8fa300b0 	lw	v1,176(sp)
    a9d0:	00000000 	nop
    a9d4:	00431021 	addu	v0,v0,v1
    a9d8:	8c420004 	lw	v0,4(v0)
    a9dc:	00000000 	nop
    a9e0:	0040f809 	jalr	v0
    a9e4:	27a50030 	addiu	a1,sp,48
    a9e8:	8ea70090 	lw	a3,144(s5)
    a9ec:	00000000 	nop
    a9f0:	10e00009 	beqz	a3,0xaa18
    a9f4:	00000000 	nop
    a9f8:	3c040001 	lui	a0,0x1
    a9fc:	2484d394 	addiu	a0,a0,-11372
    aa00:	24050001 	li	a1,1
    aa04:	0c002f01 	jal	0xbc04
    aa08:	24060002 	li	a2,2
    aa0c:	8ea40090 	lw	a0,144(s5)
    aa10:	0c002f93 	jal	0xbe4c
    aa14:	00000000 	nop
    aa18:	080029ac 	j	0xa6b0
    aa1c:	aea00090 	sw	zero,144(s5)
    aa20:	80820001 	lb	v0,1(a0)
    aa24:	00000000 	nop
    aa28:	1040ffe4 	beqz	v0,0xa9bc
    aa2c:	24840001 	addiu	a0,a0,1
    aa30:	3c050001 	lui	a1,0x1
    aa34:	24a5d3b0 	addiu	a1,a1,-11344
    aa38:	afa300bc 	sw	v1,188(sp)
    aa3c:	afa600b4 	sw	a2,180(sp)
    aa40:	0c003027 	jal	0xc09c
    aa44:	afa700b8 	sw	a3,184(sp)
    aa48:	8fa300bc 	lw	v1,188(sp)
    aa4c:	8fa700b8 	lw	a3,184(sp)
    aa50:	aea20090 	sw	v0,144(s5)
    aa54:	00001021 	move	v0,zero
    aa58:	ac740000 	sw	s4,0(v1)
    aa5c:	8fa600b4 	lw	a2,180(sp)
    aa60:	1447ffd6 	bne	v0,a3,0xa9bc
    aa64:	02802021 	move	a0,s4
    aa68:	80820001 	lb	v0,1(a0)
    aa6c:	00000000 	nop
    aa70:	1040ffd2 	beqz	v0,0xa9bc
    aa74:	24840001 	addiu	a0,a0,1
    aa78:	3c050001 	lui	a1,0x1
    aa7c:	24a5c8b0 	addiu	a1,a1,-14160
    aa80:	afa300bc 	sw	v1,188(sp)
    aa84:	afa600b4 	sw	a2,180(sp)
    aa88:	0c003027 	jal	0xc09c
    aa8c:	afa700b8 	sw	a3,184(sp)
    aa90:	8fa300bc 	lw	v1,188(sp)
    aa94:	aea20094 	sw	v0,148(s5)
    aa98:	8fa700b8 	lw	a3,184(sp)
    aa9c:	ac740000 	sw	s4,0(v1)
    aaa0:	8fa600b4 	lw	a2,180(sp)
    aaa4:	08002a70 	j	0xa9c0
    aaa8:	24630004 	addiu	v1,v1,4
    aaac:	3c050001 	lui	a1,0x1
    aab0:	02a02021 	move	a0,s5
    aab4:	0c0021b0 	jal	0x86c0
    aab8:	24a5d3b4 	addiu	a1,a1,-11340
    aabc:	080029b7 	j	0xa6dc
    aac0:	afa000b0 	sw	zero,176(sp)
    aac4:	8f828170 	lw	v0,-32400(gp)
    aac8:	00000000 	nop
    aacc:	24420001 	addiu	v0,v0,1
    aad0:	2843000b 	slti	v1,v0,11
    aad4:	1460ff83 	bnez	v1,0xa8e4
    aad8:	af828170 	sw	v0,-32400(gp)
    aadc:	2402000a 	li	v0,10
    aae0:	08002a39 	j	0xa8e4
    aae4:	af828170 	sw	v0,-32400(gp)
    aae8:	08002a39 	j	0xa8e4
    aaec:	af808170 	sw	zero,-32400(gp)
    aaf0:	00002021 	move	a0,zero
    aaf4:	0c0002ba 	jal	0xae8
    aaf8:	24050050 	li	a1,80
    aafc:	00408021 	move	s0,v0
    ab00:	10400019 	beqz	v0,0xab68
    ab04:	aea200a0 	sw	v0,160(s5)
    ab08:	2402fffb 	li	v0,-5
    ab0c:	2404012c 	li	a0,300
    ab10:	3c050001 	lui	a1,0x1
    ab14:	2403ffff 	li	v1,-1
    ab18:	24060003 	li	a2,3
    ab1c:	aea40024 	sw	a0,36(s5)
    ab20:	24a5d398 	addiu	a1,a1,-11368
    ab24:	27a4005e 	addiu	a0,sp,94
    ab28:	a3a20059 	sb	v0,89(sp)
    ab2c:	a3a2005c 	sb	v0,92(sp)
    ab30:	24020001 	li	v0,1
    ab34:	a3a30058 	sb	v1,88(sp)
    ab38:	a3a3005b 	sb	v1,91(sp)
    ab3c:	a3a6005a 	sb	a2,90(sp)
    ab40:	0c00085e 	jal	0x2178
    ab44:	a3a2005d 	sb	v0,93(sp)
    ab48:	02a02021 	move	a0,s5
    ab4c:	02202821 	move	a1,s1
    ab50:	0c001ffd 	jal	0x7ff4
    ab54:	2406001d 	li	a2,29
    ab58:	0c001fe2 	jal	0x7f88
    ab5c:	02a02021 	move	a0,s5
    ab60:	080029bf 	j	0xa6fc
    ab64:	a2000000 	sb	zero,0(s0)
    ab68:	0c002134 	jal	0x84d0
    ab6c:	02a02021 	move	a0,s5
    ab70:	080029bf 	j	0xa6fc
    ab74:	00000000 	nop
    ab78:	27bdfdd0 	addiu	sp,sp,-560
    ab7c:	afb10224 	sw	s1,548(sp)
    ab80:	27b10010 	addiu	s1,sp,16
    ab84:	02202821 	move	a1,s1
    ab88:	24060204 	li	a2,516
    ab8c:	afb20228 	sw	s2,552(sp)
    ab90:	afb00220 	sw	s0,544(sp)
    ab94:	afbf022c 	sw	ra,556(sp)
    ab98:	8c9200a0 	lw	s2,160(a0)
    ab9c:	0c0020af 	jal	0x82bc
    aba0:	00808021 	move	s0,a0
    aba4:	28420004 	slti	v0,v0,4
    aba8:	1440000c 	bnez	v0,0xabdc
    abac:	00000000 	nop
    abb0:	93a20010 	lbu	v0,16(sp)
    abb4:	00000000 	nop
    abb8:	14400008 	bnez	v0,0xabdc
    abbc:	24030001 	li	v1,1
    abc0:	93a20011 	lbu	v0,17(sp)
    abc4:	00000000 	nop
    abc8:	10430030 	beq	v0,v1,0xac8c
    abcc:	02403821 	move	a3,s2
    abd0:	24030004 	li	v1,4
    abd4:	10430007 	beq	v0,v1,0xabf4
    abd8:	00000000 	nop
    abdc:	8fbf022c 	lw	ra,556(sp)
    abe0:	8fb20228 	lw	s2,552(sp)
    abe4:	8fb10224 	lw	s1,548(sp)
    abe8:	8fb00220 	lw	s0,544(sp)
    abec:	03e00008 	jr	ra
    abf0:	27bd0230 	addiu	sp,sp,560
    abf4:	10e0fff9 	beqz	a3,0xabdc
    abf8:	00000000 	nop
    abfc:	24030001 	li	v1,1
    ac00:	10430033 	beq	v0,v1,0xacd0
    ac04:	24020001 	li	v0,1
    ac08:	93a50012 	lbu	a1,18(sp)
    ac0c:	93a20013 	lbu	v0,19(sp)
    ac10:	00052a00 	sll	a1,a1,0x8
    ac14:	00a22825 	or	a1,a1,v0
    ac18:	24a20001 	addiu	v0,a1,1
    ac1c:	00021a03 	sra	v1,v0,0x8
    ac20:	306300ff 	andi	v1,v1,0xff
    ac24:	304200ff 	andi	v0,v0,0xff
    ac28:	00052a40 	sll	a1,a1,0x9
    ac2c:	24080003 	li	t0,3
    ac30:	00e02021 	move	a0,a3
    ac34:	00003021 	move	a2,zero
    ac38:	a3a80011 	sb	t0,17(sp)
    ac3c:	a3a30012 	sb	v1,18(sp)
    ac40:	afa70218 	sw	a3,536(sp)
    ac44:	a3a00010 	sb	zero,16(sp)
    ac48:	0c002f62 	jal	0xbd88
    ac4c:	a3a20013 	sb	v0,19(sp)
    ac50:	8fa70218 	lw	a3,536(sp)
    ac54:	27a40014 	addiu	a0,sp,20
    ac58:	24060200 	li	a2,512
    ac5c:	0c002e04 	jal	0xb810
    ac60:	24050001 	li	a1,1
    ac64:	24460004 	addiu	a2,v0,4
    ac68:	02002021 	move	a0,s0
    ac6c:	0c001ffd 	jal	0x7ff4
    ac70:	02202821 	move	a1,s1
    ac74:	8fbf022c 	lw	ra,556(sp)
    ac78:	8fb20228 	lw	s2,552(sp)
    ac7c:	8fb10224 	lw	s1,548(sp)
    ac80:	8fb00220 	lw	s0,544(sp)
    ac84:	03e00008 	jr	ra
    ac88:	27bd0230 	addiu	sp,sp,560
    ac8c:	12400003 	beqz	s2,0xac9c
    ac90:	00000000 	nop
    ac94:	0c002f93 	jal	0xbe4c
    ac98:	02402021 	move	a0,s2
    ac9c:	3c050001 	lui	a1,0x1
    aca0:	27a40012 	addiu	a0,sp,18
    aca4:	0c003027 	jal	0xc09c
    aca8:	24a5cf0c 	addiu	a1,a1,-12532
    acac:	00403821 	move	a3,v0
    acb0:	1040000a 	beqz	v0,0xacdc
    acb4:	ae0200a0 	sw	v0,160(s0)
    acb8:	93a20011 	lbu	v0,17(sp)
    acbc:	24030001 	li	v1,1
    acc0:	1043ffce 	beq	v0,v1,0xabfc
    acc4:	24030004 	li	v1,4
    acc8:	08002af5 	j	0xabd4
    accc:	00000000 	nop
    acd0:	00002821 	move	a1,zero
    acd4:	08002b0b 	j	0xac2c
    acd8:	00001821 	move	v1,zero
    acdc:	24020005 	li	v0,5
    ace0:	a3a20011 	sb	v0,17(sp)
    ace4:	02002021 	move	a0,s0
    ace8:	02202821 	move	a1,s1
    acec:	24060006 	li	a2,6
    acf0:	24020058 	li	v0,88
    acf4:	a3a00010 	sb	zero,16(sp)
    acf8:	a3a00012 	sb	zero,18(sp)
    acfc:	a3a00013 	sb	zero,19(sp)
    ad00:	a3a20014 	sb	v0,20(sp)
    ad04:	0c001ffd 	jal	0x7ff4
    ad08:	a3a00015 	sb	zero,21(sp)
    ad0c:	08002af7 	j	0xabdc
    ad10:	00000000 	nop
    ad14:	27bdfd80 	addiu	sp,sp,-640
    ad18:	afb00268 	sw	s0,616(sp)
    ad1c:	8c9000a0 	lw	s0,160(a0)
    ad20:	afb30274 	sw	s3,628(sp)
    ad24:	afbf027c 	sw	ra,636(sp)
    ad28:	afb40278 	sw	s4,632(sp)
    ad2c:	afb20270 	sw	s2,624(sp)
    ad30:	afb1026c 	sw	s1,620(sp)
    ad34:	12000005 	beqz	s0,0xad4c
    ad38:	00809821 	move	s3,a0
    ad3c:	8e020010 	lw	v0,16(s0)
    ad40:	00000000 	nop
    ad44:	10400009 	beqz	v0,0xad6c
    ad48:	00003021 	move	a2,zero
    ad4c:	8fbf027c 	lw	ra,636(sp)
    ad50:	8fb40278 	lw	s4,632(sp)
    ad54:	8fb30274 	lw	s3,628(sp)
    ad58:	8fb20270 	lw	s2,624(sp)
    ad5c:	8fb1026c 	lw	s1,620(sp)
    ad60:	8fb00268 	lw	s0,616(sp)
    ad64:	03e00008 	jr	ra
    ad68:	27bd0280 	addiu	sp,sp,640
    ad6c:	8e040018 	lw	a0,24(s0)
    ad70:	8e05000c 	lw	a1,12(s0)
    ad74:	0c002f62 	jal	0xbd88
    ad78:	3c110001 	lui	s1,0x1
    ad7c:	363186a0 	ori	s1,s1,0x86a0
    ad80:	08002b64 	j	0xad90
    ad84:	27b20010 	addiu	s2,sp,16
    ad88:	1220fff0 	beqz	s1,0xad4c
    ad8c:	00000000 	nop
    ad90:	8e070018 	lw	a3,24(s0)
    ad94:	02402021 	move	a0,s2
    ad98:	24050001 	li	a1,1
    ad9c:	0c002e04 	jal	0xb810
    ada0:	24060200 	li	a2,512
    ada4:	00403021 	move	a2,v0
    ada8:	02602021 	move	a0,s3
    adac:	02402821 	move	a1,s2
    adb0:	0c001ffd 	jal	0x7ff4
    adb4:	0040a021 	move	s4,v0
    adb8:	8e03000c 	lw	v1,12(s0)
    adbc:	2a840200 	slti	a0,s4,512
    adc0:	00621821 	addu	v1,v1,v0
    adc4:	2631ffff 	addiu	s1,s1,-1
    adc8:	1682ffe0 	bne	s4,v0,0xad4c
    adcc:	ae03000c 	sw	v1,12(s0)
    add0:	1080ffed 	beqz	a0,0xad88
    add4:	00000000 	nop
    add8:	8e040018 	lw	a0,24(s0)
    addc:	0c002f93 	jal	0xbe4c
    ade0:	00000000 	nop
    ade4:	0c002134 	jal	0x84d0
    ade8:	02602021 	move	a0,s3
    adec:	8e040000 	lw	a0,0(s0)
    adf0:	24020001 	li	v0,1
    adf4:	3c050001 	lui	a1,0x1
    adf8:	ae020010 	sw	v0,16(s0)
    adfc:	0c0021b0 	jal	0x86c0
    ae00:	24a5d338 	addiu	a1,a1,-11464
    ae04:	8fbf027c 	lw	ra,636(sp)
    ae08:	8fb40278 	lw	s4,632(sp)
    ae0c:	8fb30274 	lw	s3,628(sp)
    ae10:	8fb20270 	lw	s2,624(sp)
    ae14:	8fb1026c 	lw	s1,620(sp)
    ae18:	8fb00268 	lw	s0,616(sp)
    ae1c:	03e00008 	jr	ra
    ae20:	27bd0280 	addiu	sp,sp,640
    ae24:	27bdfd58 	addiu	sp,sp,-680
    ae28:	afb20298 	sw	s2,664(sp)
    ae2c:	27b20038 	addiu	s2,sp,56
    ae30:	02402821 	move	a1,s2
    ae34:	24060257 	li	a2,599
    ae38:	afb402a0 	sw	s4,672(sp)
    ae3c:	afb3029c 	sw	s3,668(sp)
    ae40:	afb10294 	sw	s1,660(sp)
    ae44:	afb00290 	sw	s0,656(sp)
    ae48:	afbf02a4 	sw	ra,676(sp)
    ae4c:	8c9100a0 	lw	s1,160(a0)
    ae50:	0c0020af 	jal	0x82bc
    ae54:	00808021 	move	s0,a0
    ae58:	0040a021 	move	s4,v0
    ae5c:	27b30020 	addiu	s3,sp,32
    ae60:	8e0200a0 	lw	v0,160(s0)
    ae64:	02741821 	addu	v1,s3,s4
    ae68:	10400025 	beqz	v0,0xaf00
    ae6c:	a0600018 	sb	zero,24(v1)
    ae70:	2403ffff 	li	v1,-1
    ae74:	10430010 	beq	v0,v1,0xaeb8
    ae78:	02402021 	move	a0,s2
    ae7c:	3c050001 	lui	a1,0x1
    ae80:	0c0008c1 	jal	0x2304
    ae84:	24a5d3d8 	addiu	a1,a1,-11304
    ae88:	10400013 	beqz	v0,0xaed8
    ae8c:	02402021 	move	a0,s2
    ae90:	3c050001 	lui	a1,0x1
    ae94:	0c0008c1 	jal	0x2304
    ae98:	24a5d3e0 	addiu	a1,a1,-11296
    ae9c:	10400002 	beqz	v0,0xaea8
    aea0:	24020001 	li	v0,1
    aea4:	ae220014 	sw	v0,20(s1)
    aea8:	3c050001 	lui	a1,0x1
    aeac:	02002021 	move	a0,s0
    aeb0:	0c0021b0 	jal	0x86c0
    aeb4:	24a5d3ec 	addiu	a1,a1,-11284
    aeb8:	8fbf02a4 	lw	ra,676(sp)
    aebc:	8fb402a0 	lw	s4,672(sp)
    aec0:	8fb3029c 	lw	s3,668(sp)
    aec4:	8fb20298 	lw	s2,664(sp)
    aec8:	8fb10294 	lw	s1,660(sp)
    aecc:	8fb00290 	lw	s0,656(sp)
    aed0:	03e00008 	jr	ra
    aed4:	27bd02a8 	addiu	sp,sp,680
    aed8:	3c050001 	lui	a1,0x1
    aedc:	0c0008c1 	jal	0x2304
    aee0:	24a5d3fc 	addiu	a1,a1,-11268
    aee4:	10400019 	beqz	v0,0xaf4c
    aee8:	02002021 	move	a0,s0
    aeec:	3c050001 	lui	a1,0x1
    aef0:	0c0021b0 	jal	0x86c0
    aef4:	24a5d404 	addiu	a1,a1,-11260
    aef8:	08002bae 	j	0xaeb8
    aefc:	00000000 	nop
    af00:	00002021 	move	a0,zero
    af04:	0c0002ba 	jal	0xae8
    af08:	2405001c 	li	a1,28
    af0c:	1040ffea 	beqz	v0,0xaeb8
    af10:	00408821 	move	s1,v0
    af14:	00402021 	move	a0,v0
    af18:	00002821 	move	a1,zero
    af1c:	0c00092b 	jal	0x24ac
    af20:	2406001c 	li	a2,28
    af24:	2402003c 	li	v0,60
    af28:	3c050001 	lui	a1,0x1
    af2c:	ae1100a0 	sw	s1,160(s0)
    af30:	02002021 	move	a0,s0
    af34:	ae300000 	sw	s0,0(s1)
    af38:	24a5d3bc 	addiu	a1,a1,-11332
    af3c:	0c0021b0 	jal	0x86c0
    af40:	ae020024 	sw	v0,36(s0)
    af44:	08002bae 	j	0xaeb8
    af48:	00000000 	nop
    af4c:	3c050001 	lui	a1,0x1
    af50:	02402021 	move	a0,s2
    af54:	0c0008c1 	jal	0x2304
    af58:	24a5d414 	addiu	a1,a1,-11244
    af5c:	10400024 	beqz	v0,0xaff0
    af60:	27a20028 	addiu	v0,sp,40
    af64:	afa20010 	sw	v0,16(sp)
    af68:	27a2002c 	addiu	v0,sp,44
    af6c:	afa20014 	sw	v0,20(sp)
    af70:	3c050001 	lui	a1,0x1
    af74:	27a20030 	addiu	v0,sp,48
    af78:	27a4003d 	addiu	a0,sp,61
    af7c:	afa20018 	sw	v0,24(sp)
    af80:	24a5d41c 	addiu	a1,a1,-11236
    af84:	27a20034 	addiu	v0,sp,52
    af88:	02603021 	move	a2,s3
    af8c:	27a70024 	addiu	a3,sp,36
    af90:	0c000ac9 	jal	0x2b24
    af94:	afa2001c 	sw	v0,28(sp)
    af98:	8fa50020 	lw	a1,32(sp)
    af9c:	8fa20024 	lw	v0,36(sp)
    afa0:	00052e00 	sll	a1,a1,0x18
    afa4:	00021400 	sll	v0,v0,0x10
    afa8:	00a22825 	or	a1,a1,v0
    afac:	8fa2002c 	lw	v0,44(sp)
    afb0:	8fa30028 	lw	v1,40(sp)
    afb4:	8fa40030 	lw	a0,48(sp)
    afb8:	00a22825 	or	a1,a1,v0
    afbc:	8fa20034 	lw	v0,52(sp)
    afc0:	00042200 	sll	a0,a0,0x8
    afc4:	00031a00 	sll	v1,v1,0x8
    afc8:	00a31825 	or	v1,a1,v1
    afcc:	00821025 	or	v0,a0,v0
    afd0:	3c050001 	lui	a1,0x1
    afd4:	ae230004 	sw	v1,4(s1)
    afd8:	ae220008 	sw	v0,8(s1)
    afdc:	02002021 	move	a0,s0
    afe0:	0c0021b0 	jal	0x86c0
    afe4:	24a5d430 	addiu	a1,a1,-11216
    afe8:	08002bae 	j	0xaeb8
    afec:	00000000 	nop
    aff0:	3c130001 	lui	s3,0x1
    aff4:	02402021 	move	a0,s2
    aff8:	0c0008c1 	jal	0x2304
    affc:	2665d43c 	addiu	a1,s3,-11204
    b000:	1040002f 	beqz	v0,0xb0c0
    b004:	02402021 	move	a0,s2
    b008:	3c050001 	lui	a1,0x1
    b00c:	02402021 	move	a0,s2
    b010:	0c0008c1 	jal	0x2304
    b014:	24a5d330 	addiu	a1,a1,-11472
    b018:	10400002 	beqz	v0,0xb024
    b01c:	00000000 	nop
    b020:	a0400000 	sb	zero,0(v0)
    b024:	ae200018 	sw	zero,24(s1)
    b028:	ae20000c 	sw	zero,12(s1)
    b02c:	ae200010 	sw	zero,16(s1)
    b030:	02402021 	move	a0,s2
    b034:	0c0008c1 	jal	0x2304
    b038:	2665d43c 	addiu	a1,s3,-11204
    b03c:	10400019 	beqz	v0,0xb0a4
    b040:	3c050001 	lui	a1,0x1
    b044:	26440005 	addiu	a0,s2,5
    b048:	0c003027 	jal	0xc09c
    b04c:	24a5cf0c 	addiu	a1,a1,-12532
    b050:	ae220018 	sw	v0,24(s1)
    b054:	1040003d 	beqz	v0,0xb14c
    b058:	00000000 	nop
    b05c:	3c050001 	lui	a1,0x1
    b060:	24a5d450 	addiu	a1,a1,-11184
    b064:	0c0021b0 	jal	0x86c0
    b068:	02002021 	move	a0,s0
    b06c:	02402021 	move	a0,s2
    b070:	0c0008c1 	jal	0x2304
    b074:	2665d43c 	addiu	a1,s3,-11204
    b078:	1040002b 	beqz	v0,0xb128
    b07c:	24040001 	li	a0,1
    b080:	3c070001 	lui	a3,0x1
    b084:	8e250004 	lw	a1,4(s1)
    b088:	8e260008 	lw	a2,8(s1)
    b08c:	0c001f21 	jal	0x7c84
    b090:	24e7ad14 	addiu	a3,a3,-21228
    b094:	1040ff88 	beqz	v0,0xaeb8
    b098:	00000000 	nop
    b09c:	08002bae 	j	0xaeb8
    b0a0:	ac5100a0 	sw	s1,160(v0)
    b0a4:	8e220014 	lw	v0,20(s1)
    b0a8:	00000000 	nop
    b0ac:	1440002d 	bnez	v0,0xb164
    b0b0:	26440005 	addiu	a0,s2,5
    b0b4:	8e220018 	lw	v0,24(s1)
    b0b8:	08002c15 	j	0xb054
    b0bc:	00000000 	nop
    b0c0:	3c050001 	lui	a1,0x1
    b0c4:	0c0008c1 	jal	0x2304
    b0c8:	24a5d444 	addiu	a1,a1,-11196
    b0cc:	1440ffce 	bnez	v0,0xb008
    b0d0:	02402021 	move	a0,s2
    b0d4:	3c050001 	lui	a1,0x1
    b0d8:	0c0008c1 	jal	0x2304
    b0dc:	24a5d470 	addiu	a1,a1,-11152
    b0e0:	10400018 	beqz	v0,0xb144
    b0e4:	00000000 	nop
    b0e8:	8e0400a0 	lw	a0,160(s0)
    b0ec:	00000000 	nop
    b0f0:	10800004 	beqz	a0,0xb104
    b0f4:	2402ffff 	li	v0,-1
    b0f8:	0c00036a 	jal	0xda8
    b0fc:	00000000 	nop
    b100:	2402ffff 	li	v0,-1
    b104:	3c050001 	lui	a1,0x1
    b108:	02002021 	move	a0,s0
    b10c:	ae0200a0 	sw	v0,160(s0)
    b110:	0c0021b0 	jal	0x86c0
    b114:	24a5d478 	addiu	a1,a1,-11144
    b118:	0c002134 	jal	0x84d0
    b11c:	02002021 	move	a0,s0
    b120:	08002bae 	j	0xaeb8
    b124:	00000000 	nop
    b128:	8e250004 	lw	a1,4(s1)
    b12c:	8e260008 	lw	a2,8(s1)
    b130:	3c070001 	lui	a3,0x1
    b134:	0c001f21 	jal	0x7c84
    b138:	24e7a170 	addiu	a3,a3,-24208
    b13c:	08002c25 	j	0xb094
    b140:	00000000 	nop
    b144:	1280ff5c 	beqz	s4,0xaeb8
    b148:	00000000 	nop
    b14c:	3c050001 	lui	a1,0x1
    b150:	02002021 	move	a0,s0
    b154:	0c0021b0 	jal	0x86c0
    b158:	24a5d464 	addiu	a1,a1,-11164
    b15c:	08002bae 	j	0xaeb8
    b160:	00000000 	nop
    b164:	3c050001 	lui	a1,0x1
    b168:	0c003027 	jal	0xc09c
    b16c:	24a5d44c 	addiu	a1,a1,-11188
    b170:	08002c15 	j	0xb054
    b174:	ae220018 	sw	v0,24(s1)
    b178:	3c070001 	lui	a3,0x1
    b17c:	24040001 	li	a0,1
    b180:	00002821 	move	a1,zero
    b184:	24060015 	li	a2,21
    b188:	08001f21 	j	0x7c84
    b18c:	24e7ae24 	addiu	a3,a3,-20956
    b190:	27bdffd0 	addiu	sp,sp,-48
    b194:	afb40024 	sw	s4,36(sp)
    b198:	afb2001c 	sw	s2,28(sp)
    b19c:	00a0a021 	move	s4,a1
    b1a0:	00809021 	move	s2,a0
    b1a4:	2405010c 	li	a1,268
    b1a8:	00002021 	move	a0,zero
    b1ac:	afb50028 	sw	s5,40(sp)
    b1b0:	afb30020 	sw	s3,32(sp)
    b1b4:	afb10018 	sw	s1,24(sp)
    b1b8:	afb00014 	sw	s0,20(sp)
    b1bc:	afbf002c 	sw	ra,44(sp)
    b1c0:	00c09821 	move	s3,a2
    b1c4:	8fb1004c 	lw	s1,76(sp)
    b1c8:	0c0002ba 	jal	0xae8
    b1cc:	00e0a821 	move	s5,a3
    b1d0:	10400034 	beqz	v0,0xb2a4
    b1d4:	00408021 	move	s0,v0
    b1d8:	24440008 	addiu	a0,v0,8
    b1dc:	02802821 	move	a1,s4
    b1e0:	0c000867 	jal	0x219c
    b1e4:	24060050 	li	a2,80
    b1e8:	26040058 	addiu	a0,s0,88
    b1ec:	02602821 	move	a1,s3
    b1f0:	0c000867 	jal	0x219c
    b1f4:	24060050 	li	a2,80
    b1f8:	260400a8 	addiu	a0,s0,168
    b1fc:	02a02821 	move	a1,s5
    b200:	0c000867 	jal	0x219c
    b204:	24060050 	li	a2,80
    b208:	8fa20040 	lw	v0,64(sp)
    b20c:	3c070001 	lui	a3,0x1
    b210:	ae0200f8 	sw	v0,248(s0)
    b214:	8fa20044 	lw	v0,68(sp)
    b218:	24040001 	li	a0,1
    b21c:	ae0200fc 	sw	v0,252(s0)
    b220:	8fa20048 	lw	v0,72(sp)
    b224:	00002821 	move	a1,zero
    b228:	ae020104 	sw	v0,260(s0)
    b22c:	240207d0 	li	v0,2000
    b230:	240607d0 	li	a2,2000
    b234:	24e7a09c 	addiu	a3,a3,-24420
    b238:	ae000100 	sw	zero,256(s0)
    b23c:	ae000108 	sw	zero,264(s0)
    b240:	0c001f21 	jal	0x7c84
    b244:	ae020004 	sw	v0,4(s0)
    b248:	3c070001 	lui	a3,0x1
    b24c:	02402821 	move	a1,s2
    b250:	24040001 	li	a0,1
    b254:	24060015 	li	a2,21
    b258:	24e7a254 	addiu	a3,a3,-23980
    b25c:	ac5000a0 	sw	s0,160(v0)
    b260:	0c001f21 	jal	0x7c84
    b264:	ac51009c 	sw	s1,156(v0)
    b268:	ac5000a0 	sw	s0,160(v0)
    b26c:	ac51009c 	sw	s1,156(v0)
    b270:	0c001b3d 	jal	0x6cf4
    b274:	00409021 	move	s2,v0
    b278:	ae020000 	sw	v0,0(s0)
    b27c:	8fbf002c 	lw	ra,44(sp)
    b280:	02401021 	move	v0,s2
    b284:	8fb50028 	lw	s5,40(sp)
    b288:	8fb40024 	lw	s4,36(sp)
    b28c:	8fb30020 	lw	s3,32(sp)
    b290:	8fb2001c 	lw	s2,28(sp)
    b294:	8fb10018 	lw	s1,24(sp)
    b298:	8fb00014 	lw	s0,20(sp)
    b29c:	03e00008 	jr	ra
    b2a0:	27bd0030 	addiu	sp,sp,48
    b2a4:	08002c9f 	j	0xb27c
    b2a8:	00009021 	move	s2,zero
    b2ac:	27bdffc0 	addiu	sp,sp,-64
    b2b0:	8ca20004 	lw	v0,4(a1)
    b2b4:	afb10038 	sw	s1,56(sp)
    b2b8:	afb00034 	sw	s0,52(sp)
    b2bc:	afbf003c 	sw	ra,60(sp)
    b2c0:	80430000 	lb	v1,0(v0)
    b2c4:	00a08021 	move	s0,a1
    b2c8:	10600032 	beqz	v1,0xb394
    b2cc:	00808821 	move	s1,a0
    b2d0:	00402021 	move	a0,v0
    b2d4:	3c050001 	lui	a1,0x1
    b2d8:	27a20028 	addiu	v0,sp,40
    b2dc:	afa20010 	sw	v0,16(sp)
    b2e0:	24a5d268 	addiu	a1,a1,-11672
    b2e4:	27a2002c 	addiu	v0,sp,44
    b2e8:	27a60020 	addiu	a2,sp,32
    b2ec:	27a70024 	addiu	a3,sp,36
    b2f0:	0c000ac9 	jal	0x2b24
    b2f4:	afa20014 	sw	v0,20(sp)
    b2f8:	8fa30020 	lw	v1,32(sp)
    b2fc:	8fa20024 	lw	v0,36(sp)
    b300:	00031e00 	sll	v1,v1,0x18
    b304:	00021400 	sll	v0,v0,0x10
    b308:	00621025 	or	v0,v1,v0
    b30c:	8fa3002c 	lw	v1,44(sp)
    b310:	af918164 	sw	s1,-32412(gp)
    b314:	00431025 	or	v0,v0,v1
    b318:	8fa30028 	lw	v1,40(sp)
    b31c:	00000000 	nop
    b320:	00031a00 	sll	v1,v1,0x8
    b324:	00431025 	or	v0,v0,v1
    b328:	afa20020 	sw	v0,32(sp)
    b32c:	8f828168 	lw	v0,-32408(gp)
    b330:	00000000 	nop
    b334:	1040001f 	beqz	v0,0xb3b4
    b338:	00000000 	nop
    b33c:	8e050010 	lw	a1,16(s0)
    b340:	3c040002 	lui	a0,0x2
    b344:	0c00085e 	jal	0x2178
    b348:	2484dd9c 	addiu	a0,a0,-8804
    b34c:	8f828168 	lw	v0,-32408(gp)
    b350:	8e050008 	lw	a1,8(s0)
    b354:	8e06000c 	lw	a2,12(s0)
    b358:	8e070010 	lw	a3,16(s0)
    b35c:	afa20010 	sw	v0,16(sp)
    b360:	3402ffff 	li	v0,0xffff
    b364:	afa20014 	sw	v0,20(sp)
    b368:	8fa40020 	lw	a0,32(sp)
    b36c:	3c020001 	lui	v0,0x1
    b370:	24429490 	addiu	v0,v0,-27504
    b374:	afa00018 	sw	zero,24(sp)
    b378:	0c002c64 	jal	0xb190
    b37c:	afa2001c 	sw	v0,28(sp)
    b380:	8fbf003c 	lw	ra,60(sp)
    b384:	8fb10038 	lw	s1,56(sp)
    b388:	8fb00034 	lw	s0,52(sp)
    b38c:	03e00008 	jr	ra
    b390:	27bd0040 	addiu	sp,sp,64
    b394:	3c050001 	lui	a1,0x1
    b398:	0c0021b0 	jal	0x86c0
    b39c:	24a5d484 	addiu	a1,a1,-11132
    b3a0:	8fbf003c 	lw	ra,60(sp)
    b3a4:	8fb10038 	lw	s1,56(sp)
    b3a8:	8fb00034 	lw	s0,52(sp)
    b3ac:	03e00008 	jr	ra
    b3b0:	27bd0040 	addiu	sp,sp,64
    b3b4:	00002021 	move	a0,zero
    b3b8:	0c0002ba 	jal	0xae8
    b3bc:	3c050001 	lui	a1,0x1
    b3c0:	1040ffef 	beqz	v0,0xb380
    b3c4:	af828168 	sw	v0,-32408(gp)
    b3c8:	08002ccf 	j	0xb33c
    b3cc:	00000000 	nop
    b3d0:	3c070001 	lui	a3,0x1
    b3d4:	00002021 	move	a0,zero
    b3d8:	00002821 	move	a1,zero
    b3dc:	24060045 	li	a2,69
    b3e0:	08001f21 	j	0x7c84
    b3e4:	24e7ab78 	addiu	a3,a3,-21640
    b3e8:	27bdfdd0 	addiu	sp,sp,-560
    b3ec:	afb10220 	sw	s1,544(sp)
    b3f0:	00801021 	move	v0,a0
    b3f4:	00e08821 	move	s1,a3
    b3f8:	3c070001 	lui	a3,0x1
    b3fc:	24e79f90 	addiu	a3,a3,-24688
    b400:	afb20224 	sw	s2,548(sp)
    b404:	afb0021c 	sw	s0,540(sp)
    b408:	00c09021 	move	s2,a2
    b40c:	00a08021 	move	s0,a1
    b410:	24060045 	li	a2,69
    b414:	00002021 	move	a0,zero
    b418:	00402821 	move	a1,v0
    b41c:	afbf022c 	sw	ra,556(sp)
    b420:	0c001f21 	jal	0x7c84
    b424:	afb30228 	sw	s3,552(sp)
    b428:	00409821 	move	s3,v0
    b42c:	ac5200a0 	sw	s2,160(v0)
    b430:	ac5100a8 	sw	s1,168(v0)
    b434:	8fa20240 	lw	v0,576(sp)
    b438:	02002821 	move	a1,s0
    b43c:	ae62009c 	sw	v0,156(s3)
    b440:	27a40012 	addiu	a0,sp,18
    b444:	24020001 	li	v0,1
    b448:	a3a00010 	sb	zero,16(sp)
    b44c:	0c00085e 	jal	0x2178
    b450:	a3a20011 	sb	v0,17(sp)
    b454:	0c0008e0 	jal	0x2380
    b458:	02002021 	move	a0,s0
    b45c:	27b10010 	addiu	s1,sp,16
    b460:	24440003 	addiu	a0,v0,3
    b464:	3c050001 	lui	a1,0x1
    b468:	00408021 	move	s0,v0
    b46c:	02242021 	addu	a0,s1,a0
    b470:	0c00085e 	jal	0x2178
    b474:	24a5d4a4 	addiu	a1,a1,-11100
    b478:	02602021 	move	a0,s3
    b47c:	02202821 	move	a1,s1
    b480:	0c001ffd 	jal	0x7ff4
    b484:	26060009 	addiu	a2,s0,9
    b488:	8fbf022c 	lw	ra,556(sp)
    b48c:	02601021 	move	v0,s3
    b490:	8fb30228 	lw	s3,552(sp)
    b494:	8fb20224 	lw	s2,548(sp)
    b498:	8fb10220 	lw	s1,544(sp)
    b49c:	8fb0021c 	lw	s0,540(sp)
    b4a0:	03e00008 	jr	ra
    b4a4:	27bd0230 	addiu	sp,sp,560
    b4a8:	27bdffc8 	addiu	sp,sp,-56
    b4ac:	8ca20004 	lw	v0,4(a1)
    b4b0:	afb10030 	sw	s1,48(sp)
    b4b4:	afb0002c 	sw	s0,44(sp)
    b4b8:	afbf0034 	sw	ra,52(sp)
    b4bc:	80430000 	lb	v1,0(v0)
    b4c0:	00a08021 	move	s0,a1
    b4c4:	1060002d 	beqz	v1,0xb57c
    b4c8:	00808821 	move	s1,a0
    b4cc:	00402021 	move	a0,v0
    b4d0:	3c050001 	lui	a1,0x1
    b4d4:	27a20020 	addiu	v0,sp,32
    b4d8:	afa20010 	sw	v0,16(sp)
    b4dc:	24a5d268 	addiu	a1,a1,-11672
    b4e0:	27a20024 	addiu	v0,sp,36
    b4e4:	27a60018 	addiu	a2,sp,24
    b4e8:	27a7001c 	addiu	a3,sp,28
    b4ec:	0c000ac9 	jal	0x2b24
    b4f0:	afa20014 	sw	v0,20(sp)
    b4f4:	8fa30018 	lw	v1,24(sp)
    b4f8:	8fa2001c 	lw	v0,28(sp)
    b4fc:	00031e00 	sll	v1,v1,0x18
    b500:	00021400 	sll	v0,v0,0x10
    b504:	00621025 	or	v0,v1,v0
    b508:	8fa30024 	lw	v1,36(sp)
    b50c:	af918164 	sw	s1,-32412(gp)
    b510:	00431025 	or	v0,v0,v1
    b514:	8fa30020 	lw	v1,32(sp)
    b518:	00000000 	nop
    b51c:	00031a00 	sll	v1,v1,0x8
    b520:	00431025 	or	v0,v0,v1
    b524:	afa20018 	sw	v0,24(sp)
    b528:	8f828168 	lw	v0,-32408(gp)
    b52c:	00000000 	nop
    b530:	1040001a 	beqz	v0,0xb59c
    b534:	00000000 	nop
    b538:	8e050008 	lw	a1,8(s0)
    b53c:	3c040002 	lui	a0,0x2
    b540:	0c00085e 	jal	0x2178
    b544:	2484dd9c 	addiu	a0,a0,-8804
    b548:	8e050008 	lw	a1,8(s0)
    b54c:	3c020001 	lui	v0,0x1
    b550:	8fa40018 	lw	a0,24(sp)
    b554:	8f868168 	lw	a2,-32408(gp)
    b558:	24429490 	addiu	v0,v0,-27504
    b55c:	3407ffff 	li	a3,0xffff
    b560:	0c002cfa 	jal	0xb3e8
    b564:	afa20010 	sw	v0,16(sp)
    b568:	8fbf0034 	lw	ra,52(sp)
    b56c:	8fb10030 	lw	s1,48(sp)
    b570:	8fb0002c 	lw	s0,44(sp)
    b574:	03e00008 	jr	ra
    b578:	27bd0038 	addiu	sp,sp,56
    b57c:	3c050001 	lui	a1,0x1
    b580:	0c0021b0 	jal	0x86c0
    b584:	24a5d4ac 	addiu	a1,a1,-11092
    b588:	8fbf0034 	lw	ra,52(sp)
    b58c:	8fb10030 	lw	s1,48(sp)
    b590:	8fb0002c 	lw	s0,44(sp)
    b594:	03e00008 	jr	ra
    b598:	27bd0038 	addiu	sp,sp,56
    b59c:	00002021 	move	a0,zero
    b5a0:	0c0002ba 	jal	0xae8
    b5a4:	3c050001 	lui	a1,0x1
    b5a8:	1040ffef 	beqz	v0,0xb568
    b5ac:	af828168 	sw	v0,-32408(gp)
    b5b0:	08002d4e 	j	0xb538
    b5b4:	00000000 	nop
    b5b8:	3c070001 	lui	a3,0x1
    b5bc:	af84816c 	sw	a0,-32404(gp)
    b5c0:	00002821 	move	a1,zero
    b5c4:	24040001 	li	a0,1
    b5c8:	24060017 	li	a2,23
    b5cc:	08001f21 	j	0x7c84
    b5d0:	24e7a47c 	addiu	a3,a3,-23428
    b5d4:	27bdffe8 	addiu	sp,sp,-24
    b5d8:	afbf0014 	sw	ra,20(sp)
    b5dc:	0c002c5e 	jal	0xb178
    b5e0:	24040001 	li	a0,1
    b5e4:	0c002cf4 	jal	0xb3d0
    b5e8:	00000000 	nop
    b5ec:	3c040001 	lui	a0,0x1
    b5f0:	8fbf0014 	lw	ra,20(sp)
    b5f4:	2484d61c 	addiu	a0,a0,-10724
    b5f8:	08002d6e 	j	0xb5b8
    b5fc:	27bd0018 	addiu	sp,sp,24
    b600:	27bdffe0 	addiu	sp,sp,-32
    b604:	afb00014 	sw	s0,20(sp)
    b608:	00808021 	move	s0,a0
    b60c:	8f848174 	lw	a0,-32396(gp)
    b610:	afb10018 	sw	s1,24(sp)
    b614:	afbf001c 	sw	ra,28(sp)
    b618:	0c0004b2 	jal	0x12c8
    b61c:	00a08821 	move	s1,a1
    b620:	1220001a 	beqz	s1,0xb68c
    b624:	00000000 	nop
    b628:	8e0200cc 	lw	v0,204(s0)
    b62c:	00000000 	nop
    b630:	10400006 	beqz	v0,0xb64c
    b634:	02201021 	move	v0,s1
    b638:	9203003d 	lbu	v1,61(s0)
    b63c:	00000000 	nop
    b640:	10600003 	beqz	v1,0xb650
    b644:	2403ffff 	li	v1,-1
    b648:	a200003d 	sb	zero,61(s0)
    b64c:	2403ffff 	li	v1,-1
    b650:	10430008 	beq	v0,v1,0xb674
    b654:	00000000 	nop
    b658:	92030037 	lbu	v1,55(s0)
    b65c:	ae020040 	sw	v0,64(s0)
    b660:	14600002 	bnez	v1,0xb66c
    b664:	ae000044 	sw	zero,68(s0)
    b668:	ae0200cc 	sw	v0,204(s0)
    b66c:	12200013 	beqz	s1,0xb6bc
    b670:	00000000 	nop
    b674:	8f848174 	lw	a0,-32396(gp)
    b678:	8fbf001c 	lw	ra,28(sp)
    b67c:	8fb10018 	lw	s1,24(sp)
    b680:	8fb00014 	lw	s0,20(sp)
    b684:	080004d8 	j	0x1360
    b688:	27bd0020 	addiu	sp,sp,32
    b68c:	92020037 	lbu	v0,55(s0)
    b690:	00000000 	nop
    b694:	10400015 	beqz	v0,0xb6ec
    b698:	2402ffff 	li	v0,-1
    b69c:	8e0300cc 	lw	v1,204(s0)
    b6a0:	00000000 	nop
    b6a4:	1060ffe9 	beqz	v1,0xb64c
    b6a8:	00000000 	nop
    b6ac:	ac620000 	sw	v0,0(v1)
    b6b0:	24030001 	li	v1,1
    b6b4:	08002d8e 	j	0xb638
    b6b8:	a203003d 	sb	v1,61(s0)
    b6bc:	8e0400cc 	lw	a0,204(s0)
    b6c0:	96060038 	lhu	a2,56(s0)
    b6c4:	0c00092b 	jal	0x24ac
    b6c8:	240500ff 	li	a1,255
    b6cc:	24020001 	li	v0,1
    b6d0:	a202003d 	sb	v0,61(s0)
    b6d4:	8f848174 	lw	a0,-32396(gp)
    b6d8:	8fbf001c 	lw	ra,28(sp)
    b6dc:	8fb10018 	lw	s1,24(sp)
    b6e0:	8fb00014 	lw	s0,20(sp)
    b6e4:	080004d8 	j	0x1360
    b6e8:	27bd0020 	addiu	sp,sp,32
    b6ec:	96050038 	lhu	a1,56(s0)
    b6f0:	0c0002ba 	jal	0xae8
    b6f4:	00002021 	move	a0,zero
    b6f8:	1440ffe8 	bnez	v0,0xb69c
    b6fc:	00000000 	nop
    b700:	08002da7 	j	0xb69c
    b704:	2402ffff 	li	v0,-1
    b708:	27bdffd8 	addiu	sp,sp,-40
    b70c:	afb30020 	sw	s3,32(sp)
    b710:	afb10018 	sw	s1,24(sp)
    b714:	00a09821 	move	s3,a1
    b718:	00c08821 	move	s1,a2
    b71c:	00002821 	move	a1,zero
    b720:	240602d0 	li	a2,720
    b724:	afb00014 	sw	s0,20(sp)
    b728:	afbf0024 	sw	ra,36(sp)
    b72c:	afb2001c 	sw	s2,28(sp)
    b730:	0c00092b 	jal	0x24ac
    b734:	00808021 	move	s0,a0
    b738:	1220002d 	beqz	s1,0xb7f0
    b73c:	24120001 	li	s2,1
    b740:	92220036 	lbu	v0,54(s1)
    b744:	00000000 	nop
    b748:	10520022 	beq	v0,s2,0xb7d4
    b74c:	2406003c 	li	a2,60
    b750:	02002021 	move	a0,s0
    b754:	00002821 	move	a1,zero
    b758:	a212003c 	sb	s2,60(s0)
    b75c:	0c00092b 	jal	0x24ac
    b760:	a212003d 	sb	s2,61(s0)
    b764:	02602821 	move	a1,s3
    b768:	a2000034 	sb	zero,52(s0)
    b76c:	ae000030 	sw	zero,48(s0)
    b770:	02002021 	move	a0,s0
    b774:	0c000867 	jal	0x219c
    b778:	24060027 	li	a2,39
    b77c:	96230038 	lhu	v1,56(s1)
    b780:	92220037 	lbu	v0,55(s1)
    b784:	ae000028 	sw	zero,40(s0)
    b788:	a2120036 	sb	s2,54(s0)
    b78c:	a6030038 	sh	v1,56(s0)
    b790:	a2020037 	sb	v0,55(s0)
    b794:	00002821 	move	a1,zero
    b798:	0c002d80 	jal	0xb600
    b79c:	02002021 	move	a0,s0
    b7a0:	8e030040 	lw	v1,64(s0)
    b7a4:	8fbf0024 	lw	ra,36(sp)
    b7a8:	00031027 	nor	v0,zero,v1
    b7ac:	0002102b 	sltu	v0,zero,v0
    b7b0:	ae000048 	sw	zero,72(s0)
    b7b4:	ae030028 	sw	v1,40(s0)
    b7b8:	2442ffff 	addiu	v0,v0,-1
    b7bc:	8fb30020 	lw	s3,32(sp)
    b7c0:	8fb2001c 	lw	s2,28(sp)
    b7c4:	8fb10018 	lw	s1,24(sp)
    b7c8:	8fb00014 	lw	s0,20(sp)
    b7cc:	03e00008 	jr	ra
    b7d0:	27bd0028 	addiu	sp,sp,40
    b7d4:	02202821 	move	a1,s1
    b7d8:	02002021 	move	a0,s0
    b7dc:	0c0008e8 	jal	0x23a0
    b7e0:	2406003c 	li	a2,60
    b7e4:	8e050028 	lw	a1,40(s0)
    b7e8:	08002de6 	j	0xb798
    b7ec:	00000000 	nop
    b7f0:	3c050002 	lui	a1,0x2
    b7f4:	24a5df90 	addiu	a1,a1,-8304
    b7f8:	02002021 	move	a0,s0
    b7fc:	0c0008e8 	jal	0x23a0
    b800:	2406003c 	li	a2,60
    b804:	8e050028 	lw	a1,40(s0)
    b808:	08002de6 	j	0xb798
    b80c:	00000000 	nop
    b810:	27bdffd0 	addiu	sp,sp,-48
    b814:	afb20018 	sw	s2,24(sp)
    b818:	afb10014 	sw	s1,20(sp)
    b81c:	afb00010 	sw	s0,16(sp)
    b820:	afbf002c 	sw	ra,44(sp)
    b824:	afb60028 	sw	s6,40(sp)
    b828:	afb50024 	sw	s5,36(sp)
    b82c:	afb40020 	sw	s4,32(sp)
    b830:	afb3001c 	sw	s3,28(sp)
    b834:	00c08821 	move	s1,a2
    b838:	00a08021 	move	s0,a1
    b83c:	18c0003b 	blez	a2,0xb92c
    b840:	00e09021 	move	s2,a3
    b844:	0080a021 	move	s4,a0
    b848:	0000b021 	move	s6,zero
    b84c:	2415ffff 	li	s5,-1
    b850:	1a000027 	blez	s0,0xb8f0
    b854:	00000000 	nop
    b858:	8e420048 	lw	v0,72(s2)
    b85c:	00009821 	move	s3,zero
    b860:	8e430030 	lw	v1,48(s2)
    b864:	26730001 	addiu	s3,s3,1
    b868:	0043102b 	sltu	v0,v0,v1
    b86c:	14400005 	bnez	v0,0xb884
    b870:	02402021 	move	a0,s2
    b874:	92420034 	lbu	v0,52(s2)
    b878:	00000000 	nop
    b87c:	10400020 	beqz	v0,0xb900
    b880:	00000000 	nop
    b884:	96430038 	lhu	v1,56(s2)
    b888:	8e420044 	lw	v0,68(s2)
    b88c:	2463fffc 	addiu	v1,v1,-4
    b890:	0043182b 	sltu	v1,v0,v1
    b894:	1460000a 	bnez	v1,0xb8c0
    b898:	00000000 	nop
    b89c:	8e4200cc 	lw	v0,204(s2)
    b8a0:	00000000 	nop
    b8a4:	8c420000 	lw	v0,0(v0)
    b8a8:	00000000 	nop
    b8ac:	10550014 	beq	v0,s5,0xb900
    b8b0:	00402821 	move	a1,v0
    b8b4:	0c002d80 	jal	0xb600
    b8b8:	00000000 	nop
    b8bc:	8e420044 	lw	v0,68(s2)
    b8c0:	8e4300cc 	lw	v1,204(s2)
    b8c4:	24440001 	addiu	a0,v0,1
    b8c8:	00621021 	addu	v0,v1,v0
    b8cc:	90420004 	lbu	v0,4(v0)
    b8d0:	0270182a 	slt	v1,s3,s0
    b8d4:	a2820000 	sb	v0,0(s4)
    b8d8:	8e420048 	lw	v0,72(s2)
    b8dc:	26940001 	addiu	s4,s4,1
    b8e0:	24420001 	addiu	v0,v0,1
    b8e4:	ae440044 	sw	a0,68(s2)
    b8e8:	1460ffdd 	bnez	v1,0xb860
    b8ec:	ae420048 	sw	v0,72(s2)
    b8f0:	26d60001 	addiu	s6,s6,1
    b8f4:	02d1102a 	slt	v0,s6,s1
    b8f8:	1440ffd5 	bnez	v0,0xb850
    b8fc:	00000000 	nop
    b900:	8fbf002c 	lw	ra,44(sp)
    b904:	02c01021 	move	v0,s6
    b908:	8fb60028 	lw	s6,40(sp)
    b90c:	8fb50024 	lw	s5,36(sp)
    b910:	8fb40020 	lw	s4,32(sp)
    b914:	8fb3001c 	lw	s3,28(sp)
    b918:	8fb20018 	lw	s2,24(sp)
    b91c:	8fb10014 	lw	s1,20(sp)
    b920:	8fb00010 	lw	s0,16(sp)
    b924:	03e00008 	jr	ra
    b928:	27bd0030 	addiu	sp,sp,48
    b92c:	08002e40 	j	0xb900
    b930:	0000b021 	move	s6,zero
    b934:	27bdffc0 	addiu	sp,sp,-64
    b938:	afb70034 	sw	s7,52(sp)
    b93c:	afb60030 	sw	s6,48(sp)
    b940:	afb5002c 	sw	s5,44(sp)
    b944:	afb20020 	sw	s2,32(sp)
    b948:	afb1001c 	sw	s1,28(sp)
    b94c:	afb00018 	sw	s0,24(sp)
    b950:	afbf003c 	sw	ra,60(sp)
    b954:	afbe0038 	sw	s8,56(sp)
    b958:	afb40028 	sw	s4,40(sp)
    b95c:	afb30024 	sw	s3,36(sp)
    b960:	00808821 	move	s1,a0
    b964:	00a0a821 	move	s5,a1
    b968:	00c08021 	move	s0,a2
    b96c:	0000b821 	move	s7,zero
    b970:	2416ffff 	li	s6,-1
    b974:	2412ffff 	li	s2,-1
    b978:	02002021 	move	a0,s0
    b97c:	2405003c 	li	a1,60
    b980:	24060001 	li	a2,1
    b984:	8e330040 	lw	s3,64(s1)
    b988:	8e340044 	lw	s4,68(s1)
    b98c:	0c002e04 	jal	0xb810
    b990:	02203821 	move	a3,s1
    b994:	02002021 	move	a0,s0
    b998:	1040001e 	beqz	v0,0xba14
    b99c:	02a02821 	move	a1,s5
    b9a0:	8e020028 	lw	v0,40(s0)
    b9a4:	00000000 	nop
    b9a8:	1052001a 	beq	v0,s2,0xba14
    b9ac:	24020001 	li	v0,1
    b9b0:	921e0036 	lbu	s8,54(s0)
    b9b4:	00000000 	nop
    b9b8:	17c20009 	bne	s8,v0,0xb9e0
    b9bc:	00000000 	nop
    b9c0:	0c0008a8 	jal	0x22a0
    b9c4:	00000000 	nop
    b9c8:	1040002c 	beqz	v0,0xba7c
    b9cc:	00001021 	move	v0,zero
    b9d0:	92020036 	lbu	v0,54(s0)
    b9d4:	00000000 	nop
    b9d8:	105effe8 	beq	v0,s8,0xb97c
    b9dc:	02002021 	move	a0,s0
    b9e0:	16d2ffe6 	bne	s6,s2,0xb97c
    b9e4:	02002021 	move	a0,s0
    b9e8:	2405003c 	li	a1,60
    b9ec:	24060001 	li	a2,1
    b9f0:	0280b821 	move	s7,s4
    b9f4:	0260b021 	move	s6,s3
    b9f8:	8e340044 	lw	s4,68(s1)
    b9fc:	8e330040 	lw	s3,64(s1)
    ba00:	0c002e04 	jal	0xb810
    ba04:	02203821 	move	a3,s1
    ba08:	02002021 	move	a0,s0
    ba0c:	1440ffe4 	bnez	v0,0xb9a0
    ba10:	02a02821 	move	a1,s5
    ba14:	92230037 	lbu	v1,55(s1)
    ba18:	24020001 	li	v0,1
    ba1c:	10620017 	beq	v1,v0,0xba7c
    ba20:	2402ffff 	li	v0,-1
    ba24:	12c20015 	beq	s6,v0,0xba7c
    ba28:	00000000 	nop
    ba2c:	8e220040 	lw	v0,64(s1)
    ba30:	00000000 	nop
    ba34:	12c20003 	beq	s6,v0,0xba44
    ba38:	02202021 	move	a0,s1
    ba3c:	0c002d80 	jal	0xb600
    ba40:	02c02821 	move	a1,s6
    ba44:	ae370044 	sw	s7,68(s1)
    ba48:	2402ffff 	li	v0,-1
    ba4c:	8fbf003c 	lw	ra,60(sp)
    ba50:	8fbe0038 	lw	s8,56(sp)
    ba54:	8fb70034 	lw	s7,52(sp)
    ba58:	8fb60030 	lw	s6,48(sp)
    ba5c:	8fb5002c 	lw	s5,44(sp)
    ba60:	8fb40028 	lw	s4,40(sp)
    ba64:	8fb30024 	lw	s3,36(sp)
    ba68:	8fb20020 	lw	s2,32(sp)
    ba6c:	8fb1001c 	lw	s1,28(sp)
    ba70:	8fb00018 	lw	s0,24(sp)
    ba74:	03e00008 	jr	ra
    ba78:	27bd0040 	addiu	sp,sp,64
    ba7c:	8e230040 	lw	v1,64(s1)
    ba80:	00000000 	nop
    ba84:	10730005 	beq	v1,s3,0xba9c
    ba88:	02202021 	move	a0,s1
    ba8c:	02602821 	move	a1,s3
    ba90:	0c002d80 	jal	0xb600
    ba94:	afa20010 	sw	v0,16(sp)
    ba98:	8fa20010 	lw	v0,16(sp)
    ba9c:	08002e93 	j	0xba4c
    baa0:	ae340044 	sw	s4,68(s1)
    baa4:	27bdffc8 	addiu	sp,sp,-56
    baa8:	afb10018 	sw	s1,24(sp)
    baac:	afb00014 	sw	s0,20(sp)
    bab0:	00c08821 	move	s1,a2
    bab4:	00a08021 	move	s0,a1
    bab8:	00003021 	move	a2,zero
    babc:	00002821 	move	a1,zero
    bac0:	afb6002c 	sw	s6,44(sp)
    bac4:	afb50028 	sw	s5,40(sp)
    bac8:	afb40024 	sw	s4,36(sp)
    bacc:	afb2001c 	sw	s2,28(sp)
    bad0:	afbf0034 	sw	ra,52(sp)
    bad4:	afb70030 	sw	s7,48(sp)
    bad8:	afb30020 	sw	s3,32(sp)
    badc:	00809021 	move	s2,a0
    bae0:	0c002dc2 	jal	0xb708
    bae4:	00e0a021 	move	s4,a3
    bae8:	82020000 	lb	v0,0(s0)
    baec:	2415002f 	li	s5,47
    baf0:	10550021 	beq	v0,s5,0xbb78
    baf4:	24160028 	li	s6,40
    baf8:	08002ec4 	j	0xbb10
    bafc:	00001821 	move	v1,zero
    bb00:	10550009 	beq	v0,s5,0xbb28
    bb04:	00000000 	nop
    bb08:	1076001d 	beq	v1,s6,0xbb80
    bb0c:	a0820000 	sb	v0,0(a0)
    bb10:	02031021 	addu	v0,s0,v1
    bb14:	80420000 	lb	v0,0(v0)
    bb18:	00609821 	move	s3,v1
    bb1c:	02832021 	addu	a0,s4,v1
    bb20:	1440fff7 	bnez	v0,0xbb00
    bb24:	24630001 	addiu	v1,v1,1
    bb28:	02931021 	addu	v0,s4,s3
    bb2c:	a0400000 	sb	zero,0(v0)
    bb30:	02402021 	move	a0,s2
    bb34:	02802821 	move	a1,s4
    bb38:	0c002e4d 	jal	0xb934
    bb3c:	02203021 	move	a2,s1
    bb40:	14400018 	bnez	v0,0xbba4
    bb44:	0040b821 	move	s7,v0
    bb48:	02138021 	addu	s0,s0,s3
    bb4c:	82020000 	lb	v0,0(s0)
    bb50:	00000000 	nop
    bb54:	1040001f 	beqz	v0,0xbbd4
    bb58:	02402021 	move	a0,s2
    bb5c:	02802821 	move	a1,s4
    bb60:	0c002dc2 	jal	0xb708
    bb64:	02203021 	move	a2,s1
    bb68:	82020000 	lb	v0,0(s0)
    bb6c:	00000000 	nop
    bb70:	1455ffe1 	bne	v0,s5,0xbaf8
    bb74:	00000000 	nop
    bb78:	08002ebe 	j	0xbaf8
    bb7c:	26100001 	addiu	s0,s0,1
    bb80:	24130028 	li	s3,40
    bb84:	02931021 	addu	v0,s4,s3
    bb88:	a0400000 	sb	zero,0(v0)
    bb8c:	02402021 	move	a0,s2
    bb90:	02802821 	move	a1,s4
    bb94:	0c002e4d 	jal	0xb934
    bb98:	02203021 	move	a2,s1
    bb9c:	1040ffea 	beqz	v0,0xbb48
    bba0:	0040b821 	move	s7,v0
    bba4:	92430037 	lbu	v1,55(s2)
    bba8:	96420038 	lhu	v0,56(s2)
    bbac:	3c050001 	lui	a1,0x1
    bbb0:	a2230037 	sb	v1,55(s1)
    bbb4:	a6220038 	sh	v0,56(s1)
    bbb8:	a2200036 	sb	zero,54(s1)
    bbbc:	02002021 	move	a0,s0
    bbc0:	0c0008c1 	jal	0x2304
    bbc4:	24a5cf00 	addiu	a1,a1,-12544
    bbc8:	10400002 	beqz	v0,0xbbd4
    bbcc:	00000000 	nop
    bbd0:	2417fffe 	li	s7,-2
    bbd4:	8fbf0034 	lw	ra,52(sp)
    bbd8:	02e01021 	move	v0,s7
    bbdc:	8fb70030 	lw	s7,48(sp)
    bbe0:	8fb6002c 	lw	s6,44(sp)
    bbe4:	8fb50028 	lw	s5,40(sp)
    bbe8:	8fb40024 	lw	s4,36(sp)
    bbec:	8fb30020 	lw	s3,32(sp)
    bbf0:	8fb2001c 	lw	s2,28(sp)
    bbf4:	8fb10018 	lw	s1,24(sp)
    bbf8:	8fb00014 	lw	s0,20(sp)
    bbfc:	03e00008 	jr	ra
    bc00:	27bd0038 	addiu	sp,sp,56
    bc04:	27bdffc8 	addiu	sp,sp,-56
    bc08:	afb00014 	sw	s0,20(sp)
    bc0c:	00808021 	move	s0,a0
    bc10:	8f848174 	lw	a0,-32396(gp)
    bc14:	afb70030 	sw	s7,48(sp)
    bc18:	afb2001c 	sw	s2,28(sp)
    bc1c:	afb10018 	sw	s1,24(sp)
    bc20:	afbf0034 	sw	ra,52(sp)
    bc24:	00e08821 	move	s1,a3
    bc28:	afb6002c 	sw	s6,44(sp)
    bc2c:	afb50028 	sw	s5,40(sp)
    bc30:	afb40024 	sw	s4,36(sp)
    bc34:	afb30020 	sw	s3,32(sp)
    bc38:	00a09021 	move	s2,a1
    bc3c:	0c0004b2 	jal	0x12c8
    bc40:	00c0b821 	move	s7,a2
    bc44:	24020001 	li	v0,1
    bc48:	1ae0004d 	blez	s7,0xbd80
    bc4c:	a222003d 	sb	v0,61(s1)
    bc50:	0000b021 	move	s6,zero
    bc54:	2414ffff 	li	s4,-1
    bc58:	24150001 	li	s5,1
    bc5c:	1a400042 	blez	s2,0xbd68
    bc60:	00009821 	move	s3,zero
    bc64:	8e220044 	lw	v0,68(s1)
    bc68:	08002f30 	j	0xbcc0
    bc6c:	00000000 	nop
    bc70:	0c002d80 	jal	0xb600
    bc74:	00000000 	nop
    bc78:	8e220040 	lw	v0,64(s1)
    bc7c:	00000000 	nop
    bc80:	10540022 	beq	v0,s4,0xbd0c
    bc84:	00000000 	nop
    bc88:	8e220044 	lw	v0,68(s1)
    bc8c:	a235003d 	sb	s5,61(s1)
    bc90:	8e2300cc 	lw	v1,204(s1)
    bc94:	92040000 	lbu	a0,0(s0)
    bc98:	00621821 	addu	v1,v1,v0
    bc9c:	a0640004 	sb	a0,4(v1)
    bca0:	8e240048 	lw	a0,72(s1)
    bca4:	24420001 	addiu	v0,v0,1
    bca8:	24840001 	addiu	a0,a0,1
    bcac:	0272182a 	slt	v1,s3,s2
    bcb0:	ae220044 	sw	v0,68(s1)
    bcb4:	26100001 	addiu	s0,s0,1
    bcb8:	1060002b 	beqz	v1,0xbd68
    bcbc:	ae240048 	sw	a0,72(s1)
    bcc0:	96230038 	lhu	v1,56(s1)
    bcc4:	02202021 	move	a0,s1
    bcc8:	2463fffc 	addiu	v1,v1,-4
    bccc:	0043182b 	sltu	v1,v0,v1
    bcd0:	1460ffef 	bnez	v1,0xbc90
    bcd4:	26730001 	addiu	s3,s3,1
    bcd8:	8e2200cc 	lw	v0,204(s1)
    bcdc:	00000000 	nop
    bce0:	8c450000 	lw	a1,0(v0)
    bce4:	00000000 	nop
    bce8:	14b4ffe1 	bne	a1,s4,0xbc70
    bcec:	00000000 	nop
    bcf0:	ac400000 	sw	zero,0(v0)
    bcf4:	0c002d80 	jal	0xb600
    bcf8:	00002821 	move	a1,zero
    bcfc:	8e220040 	lw	v0,64(s1)
    bd00:	00000000 	nop
    bd04:	1454ffe0 	bne	v0,s4,0xbc88
    bd08:	00000000 	nop
    bd0c:	8e230048 	lw	v1,72(s1)
    bd10:	8e240030 	lw	a0,48(s1)
    bd14:	24020001 	li	v0,1
    bd18:	0083202b 	sltu	a0,a0,v1
    bd1c:	a222003d 	sb	v0,61(s1)
    bd20:	10800002 	beqz	a0,0xbd2c
    bd24:	a222003c 	sb	v0,60(s1)
    bd28:	ae230030 	sw	v1,48(s1)
    bd2c:	8f848174 	lw	a0,-32396(gp)
    bd30:	0c0004d8 	jal	0x1360
    bd34:	00000000 	nop
    bd38:	8fbf0034 	lw	ra,52(sp)
    bd3c:	02c01021 	move	v0,s6
    bd40:	8fb70030 	lw	s7,48(sp)
    bd44:	8fb6002c 	lw	s6,44(sp)
    bd48:	8fb50028 	lw	s5,40(sp)
    bd4c:	8fb40024 	lw	s4,36(sp)
    bd50:	8fb30020 	lw	s3,32(sp)
    bd54:	8fb2001c 	lw	s2,28(sp)
    bd58:	8fb10018 	lw	s1,24(sp)
    bd5c:	8fb00014 	lw	s0,20(sp)
    bd60:	03e00008 	jr	ra
    bd64:	27bd0038 	addiu	sp,sp,56
    bd68:	26d60001 	addiu	s6,s6,1
    bd6c:	02d7102a 	slt	v0,s6,s7
    bd70:	1440ffba 	bnez	v0,0xbc5c
    bd74:	00000000 	nop
    bd78:	08002f43 	j	0xbd0c
    bd7c:	00000000 	nop
    bd80:	08002f43 	j	0xbd0c
    bd84:	0000b021 	move	s6,zero
    bd88:	27bdffe0 	addiu	sp,sp,-32
    bd8c:	24020001 	li	v0,1
    bd90:	afb10014 	sw	s1,20(sp)
    bd94:	afb00010 	sw	s0,16(sp)
    bd98:	afbf001c 	sw	ra,28(sp)
    bd9c:	afb20018 	sw	s2,24(sp)
    bda0:	00808021 	move	s0,a0
    bda4:	10c20023 	beq	a2,v0,0xbe34
    bda8:	00a08821 	move	s1,a1
    bdac:	24020002 	li	v0,2
    bdb0:	10c20023 	beq	a2,v0,0xbe40
    bdb4:	00000000 	nop
    bdb8:	8e050028 	lw	a1,40(s0)
    bdbc:	ae110048 	sw	s1,72(s0)
    bdc0:	0c002d80 	jal	0xb600
    bdc4:	02002021 	move	a0,s0
    bdc8:	96020038 	lhu	v0,56(s0)
    bdcc:	00000000 	nop
    bdd0:	2442fffd 	addiu	v0,v0,-3
    bdd4:	0222102a 	slt	v0,s1,v0
    bdd8:	1440000e 	bnez	v0,0xbe14
    bddc:	24120004 	li	s2,4
    bde0:	8e0200cc 	lw	v0,204(s0)
    bde4:	00000000 	nop
    bde8:	8c450000 	lw	a1,0(v0)
    bdec:	0c002d80 	jal	0xb600
    bdf0:	02002021 	move	a0,s0
    bdf4:	96020038 	lhu	v0,56(s0)
    bdf8:	00000000 	nop
    bdfc:	02421823 	subu	v1,s2,v0
    be00:	02238821 	addu	s1,s1,v1
    be04:	2442fffd 	addiu	v0,v0,-3
    be08:	0222102a 	slt	v0,s1,v0
    be0c:	1040fff4 	beqz	v0,0xbde0
    be10:	00000000 	nop
    be14:	8fbf001c 	lw	ra,28(sp)
    be18:	ae110044 	sw	s1,68(s0)
    be1c:	00001021 	move	v0,zero
    be20:	8fb20018 	lw	s2,24(sp)
    be24:	8fb10014 	lw	s1,20(sp)
    be28:	8fb00010 	lw	s0,16(sp)
    be2c:	03e00008 	jr	ra
    be30:	27bd0020 	addiu	sp,sp,32
    be34:	8c820048 	lw	v0,72(a0)
    be38:	08002f6e 	j	0xbdb8
    be3c:	00a28821 	addu	s1,a1,v0
    be40:	8c820030 	lw	v0,48(a0)
    be44:	08002f6e 	j	0xbdb8
    be48:	00a28821 	addu	s1,a1,v0
    be4c:	27bdfca8 	addiu	sp,sp,-856
    be50:	afb00348 	sw	s0,840(sp)
    be54:	afbf0354 	sw	ra,852(sp)
    be58:	afb20350 	sw	s2,848(sp)
    be5c:	afb1034c 	sw	s1,844(sp)
    be60:	9082003c 	lbu	v0,60(a0)
    be64:	00000000 	nop
    be68:	14400009 	bnez	v0,0xbe90
    be6c:	00808021 	move	s0,a0
    be70:	0c00036a 	jal	0xda8
    be74:	02002021 	move	a0,s0
    be78:	8fbf0354 	lw	ra,852(sp)
    be7c:	8fb20350 	lw	s2,848(sp)
    be80:	8fb1034c 	lw	s1,844(sp)
    be84:	8fb00348 	lw	s0,840(sp)
    be88:	03e00008 	jr	ra
    be8c:	27bd0358 	addiu	sp,sp,856
    be90:	8f848174 	lw	a0,-32396(gp)
    be94:	0c0004b2 	jal	0x12c8
    be98:	27b10074 	addiu	s1,sp,116
    be9c:	27b20038 	addiu	s2,sp,56
    bea0:	02002021 	move	a0,s0
    bea4:	0c002d80 	jal	0xb600
    bea8:	2405ffff 	li	a1,-1
    beac:	02202021 	move	a0,s1
    beb0:	2605004c 	addiu	a1,s0,76
    beb4:	02403021 	move	a2,s2
    beb8:	0c002ea9 	jal	0xbaa4
    bebc:	27a70010 	addiu	a3,sp,16
    bec0:	92040037 	lbu	a0,55(s0)
    bec4:	24030001 	li	v1,1
    bec8:	10830014 	beq	a0,v1,0xbf1c
    becc:	00000000 	nop
    bed0:	02203821 	move	a3,s1
    bed4:	24060001 	li	a2,1
    bed8:	02002021 	move	a0,s0
    bedc:	0c002f01 	jal	0xbc04
    bee0:	2405003c 	li	a1,60
    bee4:	02202021 	move	a0,s1
    bee8:	0c002d80 	jal	0xb600
    beec:	2405ffff 	li	a1,-1
    bef0:	8f848174 	lw	a0,-32396(gp)
    bef4:	0c0004d8 	jal	0x1360
    bef8:	00000000 	nop
    befc:	0c00036a 	jal	0xda8
    bf00:	02002021 	move	a0,s0
    bf04:	8fbf0354 	lw	ra,852(sp)
    bf08:	8fb20350 	lw	s2,848(sp)
    bf0c:	8fb1034c 	lw	s1,844(sp)
    bf10:	8fb00348 	lw	s0,840(sp)
    bf14:	03e00008 	jr	ra
    bf18:	27bd0358 	addiu	sp,sp,856
    bf1c:	1440ffec 	bnez	v0,0xbed0
    bf20:	2405003c 	li	a1,60
    bf24:	02402021 	move	a0,s2
    bf28:	24060001 	li	a2,1
    bf2c:	02203821 	move	a3,s1
    bf30:	0c002f01 	jal	0xbc04
    bf34:	a3a0006e 	sb	zero,110(sp)
    bf38:	3c050001 	lui	a1,0x1
    bf3c:	02202021 	move	a0,s1
    bf40:	24a5d538 	addiu	a1,a1,-10952
    bf44:	0c002e4d 	jal	0xb934
    bf48:	02403021 	move	a2,s2
    bf4c:	08002fb5 	j	0xbed4
    bf50:	02203821 	move	a3,s1
    bf54:	00802821 	move	a1,a0
    bf58:	8f848174 	lw	a0,-32396(gp)
    bf5c:	27bdf9c8 	addiu	sp,sp,-1592
    bf60:	afb10624 	sw	s1,1572(sp)
    bf64:	afb00620 	sw	s0,1568(sp)
    bf68:	afa50618 	sw	a1,1560(sp)
    bf6c:	afbf0634 	sw	ra,1588(sp)
    bf70:	afb40630 	sw	s4,1584(sp)
    bf74:	afb3062c 	sw	s3,1580(sp)
    bf78:	afb20628 	sw	s2,1576(sp)
    bf7c:	0c0004b2 	jal	0x12c8
    bf80:	27b00074 	addiu	s0,sp,116
    bf84:	27b10038 	addiu	s1,sp,56
    bf88:	8fa50618 	lw	a1,1560(sp)
    bf8c:	02002021 	move	a0,s0
    bf90:	02203021 	move	a2,s1
    bf94:	0c002ea9 	jal	0xbaa4
    bf98:	27a70010 	addiu	a3,sp,16
    bf9c:	1040000c 	beqz	v0,0xbfd0
    bfa0:	27b20344 	addiu	s2,sp,836
    bfa4:	8f848174 	lw	a0,-32396(gp)
    bfa8:	0c0004d8 	jal	0x1360
    bfac:	00000000 	nop
    bfb0:	8fbf0634 	lw	ra,1588(sp)
    bfb4:	8fb40630 	lw	s4,1584(sp)
    bfb8:	8fb3062c 	lw	s3,1580(sp)
    bfbc:	8fb20628 	lw	s2,1576(sp)
    bfc0:	8fb10624 	lw	s1,1572(sp)
    bfc4:	8fb00620 	lw	s0,1568(sp)
    bfc8:	03e00008 	jr	ra
    bfcc:	27bd0638 	addiu	sp,sp,1592
    bfd0:	00002821 	move	a1,zero
    bfd4:	02402021 	move	a0,s2
    bfd8:	0c002dc2 	jal	0xb708
    bfdc:	02203021 	move	a2,s1
    bfe0:	8fa20410 	lw	v0,1040(sp)
    bfe4:	8fb30384 	lw	s3,900(sp)
    bfe8:	8c450000 	lw	a1,0(v0)
    bfec:	2402ffff 	li	v0,-1
    bff0:	10a20017 	beq	a1,v0,0xc050
    bff4:	2414ffff 	li	s4,-1
    bff8:	08003006 	j	0xc018
    bffc:	00000000 	nop
    c000:	8fa20410 	lw	v0,1040(sp)
    c004:	8fb30384 	lw	s3,900(sp)
    c008:	8c450000 	lw	a1,0(v0)
    c00c:	00000000 	nop
    c010:	10b4000f 	beq	a1,s4,0xc050
    c014:	00000000 	nop
    c018:	0c002d80 	jal	0xb600
    c01c:	02402021 	move	a0,s2
    c020:	93a2037b 	lbu	v0,891(sp)
    c024:	00000000 	nop
    c028:	1440fff5 	bnez	v0,0xc000
    c02c:	00000000 	nop
    c030:	0c00036a 	jal	0xda8
    c034:	02602021 	move	a0,s3
    c038:	8fa20410 	lw	v0,1040(sp)
    c03c:	8fb30384 	lw	s3,900(sp)
    c040:	8c450000 	lw	a1,0(v0)
    c044:	00000000 	nop
    c048:	14b4fff3 	bne	a1,s4,0xc018
    c04c:	00000000 	nop
    c050:	93a2037b 	lbu	v0,891(sp)
    c054:	00000000 	nop
    c058:	1040000c 	beqz	v0,0xc08c
    c05c:	00000000 	nop
    c060:	02202021 	move	a0,s1
    c064:	2405003c 	li	a1,60
    c068:	24060001 	li	a2,1
    c06c:	02003821 	move	a3,s0
    c070:	0c002f01 	jal	0xbc04
    c074:	a3a0006e 	sb	zero,110(sp)
    c078:	02002021 	move	a0,s0
    c07c:	0c002d80 	jal	0xb600
    c080:	2405ffff 	li	a1,-1
    c084:	08002fe9 	j	0xbfa4
    c088:	00000000 	nop
    c08c:	0c00036a 	jal	0xda8
    c090:	02602021 	move	a0,s3
    c094:	08003019 	j	0xc064
    c098:	02202021 	move	a0,s1
    c09c:	27bdfc98 	addiu	sp,sp,-872
    c0a0:	afb0034c 	sw	s0,844(sp)
    c0a4:	3c100002 	lui	s0,0x2
    c0a8:	2610df90 	addiu	s0,s0,-8304
    c0ac:	8e020028 	lw	v0,40(s0)
    c0b0:	afb30358 	sw	s3,856(sp)
    c0b4:	afb10350 	sw	s1,848(sp)
    c0b8:	afbf0364 	sw	ra,868(sp)
    c0bc:	afb50360 	sw	s5,864(sp)
    c0c0:	afb4035c 	sw	s4,860(sp)
    c0c4:	afb20354 	sw	s2,852(sp)
    c0c8:	00808821 	move	s1,a0
    c0cc:	10400049 	beqz	v0,0xc1f4
    c0d0:	00a09821 	move	s3,a1
    c0d4:	00002021 	move	a0,zero
    c0d8:	0c0002ba 	jal	0xae8
    c0dc:	240502d0 	li	a1,720
    c0e0:	10400031 	beqz	v0,0xc1a8
    c0e4:	00408021 	move	s0,v0
    c0e8:	8f848174 	lw	a0,-32396(gp)
    c0ec:	0c0004b2 	jal	0x12c8
    c0f0:	00000000 	nop
    c0f4:	82220000 	lb	v0,0(s1)
    c0f8:	00000000 	nop
    c0fc:	10400034 	beqz	v0,0xc1d0
    c100:	3c050001 	lui	a1,0x1
    c104:	02202021 	move	a0,s1
    c108:	0c0008a8 	jal	0x22a0
    c10c:	24a5cf00 	addiu	a1,a1,-12544
    c110:	1040002f 	beqz	v0,0xc1d0
    c114:	24020077 	li	v0,119
    c118:	82630000 	lb	v1,0(s3)
    c11c:	00000000 	nop
    c120:	10620059 	beq	v1,v0,0xc288
    c124:	27b20074 	addiu	s2,sp,116
    c128:	27b40038 	addiu	s4,sp,56
    c12c:	27b50010 	addiu	s5,sp,16
    c130:	02402021 	move	a0,s2
    c134:	02202821 	move	a1,s1
    c138:	02803021 	move	a2,s4
    c13c:	0c002ea9 	jal	0xbaa4
    c140:	02a03821 	move	a3,s5
    c144:	2403fffe 	li	v1,-2
    c148:	10430061 	beq	v0,v1,0xc2d0
    c14c:	00000000 	nop
    c150:	10400006 	beqz	v0,0xc16c
    c154:	02002021 	move	a0,s0
    c158:	82630000 	lb	v1,0(s3)
    c15c:	24020072 	li	v0,114
    c160:	1062005b 	beq	v1,v0,0xc2d0
    c164:	00000000 	nop
    c168:	a3a0006e 	sb	zero,110(sp)
    c16c:	02a02821 	move	a1,s5
    c170:	0c002dc2 	jal	0xb708
    c174:	02803021 	move	a2,s4
    c178:	2604004c 	addiu	a0,s0,76
    c17c:	02202821 	move	a1,s1
    c180:	24060080 	li	a2,128
    c184:	0c00088b 	jal	0x222c
    c188:	a200004c 	sb	zero,76(s0)
    c18c:	8f848174 	lw	a0,-32396(gp)
    c190:	0c0004d8 	jal	0x1360
    c194:	00000000 	nop
    c198:	82630000 	lb	v1,0(s3)
    c19c:	24020061 	li	v0,97
    c1a0:	10620034 	beq	v1,v0,0xc274
    c1a4:	02002021 	move	a0,s0
    c1a8:	8fbf0364 	lw	ra,868(sp)
    c1ac:	02001021 	move	v0,s0
    c1b0:	8fb50360 	lw	s5,864(sp)
    c1b4:	8fb4035c 	lw	s4,860(sp)
    c1b8:	8fb30358 	lw	s3,856(sp)
    c1bc:	8fb20354 	lw	s2,852(sp)
    c1c0:	8fb10350 	lw	s1,848(sp)
    c1c4:	8fb0034c 	lw	s0,844(sp)
    c1c8:	03e00008 	jr	ra
    c1cc:	27bd0368 	addiu	sp,sp,872
    c1d0:	02002021 	move	a0,s0
    c1d4:	00002821 	move	a1,zero
    c1d8:	0c002dc2 	jal	0xb708
    c1dc:	00003021 	move	a2,zero
    c1e0:	8f848174 	lw	a0,-32396(gp)
    c1e4:	0c0004d8 	jal	0x1360
    c1e8:	00000000 	nop
    c1ec:	0800306a 	j	0xc1a8
    c1f0:	00000000 	nop
    c1f4:	3c040001 	lui	a0,0x1
    c1f8:	27b20074 	addiu	s2,sp,116
    c1fc:	0c000487 	jal	0x121c
    c200:	2484d544 	addiu	a0,a0,-10940
    c204:	240602d0 	li	a2,720
    c208:	02402021 	move	a0,s2
    c20c:	00002821 	move	a1,zero
    c210:	0c00092b 	jal	0x24ac
    c214:	af828174 	sw	v0,-32396(gp)
    c218:	02402021 	move	a0,s2
    c21c:	24020200 	li	v0,512
    c220:	00002821 	move	a1,zero
    c224:	0c002d80 	jal	0xb600
    c228:	a7a200ac 	sh	v0,172(sp)
    c22c:	3c050001 	lui	a1,0x1
    c230:	02002021 	move	a0,s0
    c234:	0c00085e 	jal	0x2178
    c238:	24a5cf00 	addiu	a1,a1,-12544
    c23c:	93a200ab 	lbu	v0,171(sp)
    c240:	02402021 	move	a0,s2
    c244:	a2020037 	sb	v0,55(s0)
    c248:	8fa200b4 	lw	v0,180(sp)
    c24c:	2405ffff 	li	a1,-1
    c250:	ae020028 	sw	v0,40(s0)
    c254:	97a200ac 	lhu	v0,172(sp)
    c258:	00000000 	nop
    c25c:	a6020038 	sh	v0,56(s0)
    c260:	24020001 	li	v0,1
    c264:	0c002d80 	jal	0xb600
    c268:	a2020034 	sb	v0,52(s0)
    c26c:	08003036 	j	0xc0d8
    c270:	00002021 	move	a0,zero
    c274:	00002821 	move	a1,zero
    c278:	0c002f62 	jal	0xbd88
    c27c:	24060002 	li	a2,2
    c280:	0800306a 	j	0xc1a8
    c284:	00000000 	nop
    c288:	27b40038 	addiu	s4,sp,56
    c28c:	27b50010 	addiu	s5,sp,16
    c290:	02402021 	move	a0,s2
    c294:	02202821 	move	a1,s1
    c298:	02803021 	move	a2,s4
    c29c:	02a03821 	move	a3,s5
    c2a0:	0c002ea9 	jal	0xbaa4
    c2a4:	a3a0006c 	sb	zero,108(sp)
    c2a8:	1440ffa2 	bnez	v0,0xc134
    c2ac:	02402021 	move	a0,s2
    c2b0:	93a2006c 	lbu	v0,108(sp)
    c2b4:	00000000 	nop
    c2b8:	1440000c 	bnez	v0,0xc2ec
    c2bc:	00000000 	nop
    c2c0:	0c002fd5 	jal	0xbf54
    c2c4:	02202021 	move	a0,s1
    c2c8:	0800304d 	j	0xc134
    c2cc:	02402021 	move	a0,s2
    c2d0:	0c00036a 	jal	0xda8
    c2d4:	02002021 	move	a0,s0
    c2d8:	8f848174 	lw	a0,-32396(gp)
    c2dc:	0c0004d8 	jal	0x1360
    c2e0:	00008021 	move	s0,zero
    c2e4:	0800306a 	j	0xc1a8
    c2e8:	00000000 	nop
    c2ec:	0c00036a 	jal	0xda8
    c2f0:	02002021 	move	a0,s0
    c2f4:	0800306a 	j	0xc1a8
    c2f8:	00008021 	move	s0,zero
    c2fc:	3c050001 	lui	a1,0x1
    c300:	27bdffe8 	addiu	sp,sp,-24
    c304:	afbf0014 	sw	ra,20(sp)
    c308:	0c003027 	jal	0xc09c
    c30c:	24a5d54c 	addiu	a1,a1,-10932
    c310:	10400008 	beqz	v0,0xc334
    c314:	24030001 	li	v1,1
    c318:	a0430034 	sb	v1,52(v0)
    c31c:	0c002f93 	jal	0xbe4c
    c320:	00402021 	move	a0,v0
    c324:	8fbf0014 	lw	ra,20(sp)
    c328:	00001021 	move	v0,zero
    c32c:	03e00008 	jr	ra
    c330:	27bd0018 	addiu	sp,sp,24
    c334:	8fbf0014 	lw	ra,20(sp)
    c338:	2402ffff 	li	v0,-1
    c33c:	03e00008 	jr	ra
    c340:	27bd0018 	addiu	sp,sp,24
    c344:	8c820030 	lw	v0,48(a0)
    c348:	03e00008 	jr	ra
    c34c:	00000000 	nop
    c350:	27bdffe0 	addiu	sp,sp,-32
    c354:	afb20018 	sw	s2,24(sp)
    c358:	afb10014 	sw	s1,20(sp)
    c35c:	afb00010 	sw	s0,16(sp)
    c360:	afbf001c 	sw	ra,28(sp)
    c364:	00808821 	move	s1,a0
    c368:	00a08021 	move	s0,a1
    c36c:	080030e5 	j	0xc394
    c370:	2412ffff 	li	s2,-1
    c374:	8e020028 	lw	v0,40(s0)
    c378:	00000000 	nop
    c37c:	1052000c 	beq	v0,s2,0xc3b0
    c380:	24020001 	li	v0,1
    c384:	92030036 	lbu	v1,54(s0)
    c388:	00000000 	nop
    c38c:	1062000f 	beq	v1,v0,0xc3cc
    c390:	00001021 	move	v0,zero
    c394:	02002021 	move	a0,s0
    c398:	2405003c 	li	a1,60
    c39c:	24060001 	li	a2,1
    c3a0:	0c002e04 	jal	0xb810
    c3a4:	02203821 	move	a3,s1
    c3a8:	1440fff2 	bnez	v0,0xc374
    c3ac:	00000000 	nop
    c3b0:	8fbf001c 	lw	ra,28(sp)
    c3b4:	2402ffff 	li	v0,-1
    c3b8:	8fb20018 	lw	s2,24(sp)
    c3bc:	8fb10014 	lw	s1,20(sp)
    c3c0:	8fb00010 	lw	s0,16(sp)
    c3c4:	03e00008 	jr	ra
    c3c8:	27bd0020 	addiu	sp,sp,32
    c3cc:	8fbf001c 	lw	ra,28(sp)
    c3d0:	8fb20018 	lw	s2,24(sp)
    c3d4:	8fb10014 	lw	s1,20(sp)
    c3d8:	8fb00010 	lw	s0,16(sp)
    c3dc:	03e00008 	jr	ra
    c3e0:	27bd0020 	addiu	sp,sp,32
    c3e4:	3c050001 	lui	a1,0x1
    c3e8:	27bdff08 	addiu	sp,sp,-248
    c3ec:	24a5c8b0 	addiu	a1,a1,-14160
    c3f0:	afb700f0 	sw	s7,240(sp)
    c3f4:	afb600ec 	sw	s6,236(sp)
    c3f8:	afb500e8 	sw	s5,232(sp)
    c3fc:	afb400e4 	sw	s4,228(sp)
    c400:	afb300e0 	sw	s3,224(sp)
    c404:	afb200dc 	sw	s2,220(sp)
    c408:	afb100d8 	sw	s1,216(sp)
    c40c:	afb000d4 	sw	s0,212(sp)
    c410:	afbf00f4 	sw	ra,244(sp)
    c414:	0080a021 	move	s4,a0
    c418:	0c003027 	jal	0xc09c
    c41c:	3c120001 	lui	s2,0x1
    c420:	3c160001 	lui	s6,0x1
    c424:	3c150001 	lui	s5,0x1
    c428:	3c170001 	lui	s7,0x1
    c42c:	00408821 	move	s1,v0
    c430:	27b00010 	addiu	s0,sp,16
    c434:	2652d550 	addiu	s2,s2,-10928
    c438:	26d6cf00 	addiu	s6,s6,-12544
    c43c:	27b3004c 	addiu	s3,sp,76
    c440:	26b5d55c 	addiu	s5,s5,-10916
    c444:	0800311a 	j	0xc468
    c448:	26f7d558 	addiu	s7,s7,-10920
    c44c:	8fa60040 	lw	a2,64(sp)
    c450:	0c000d18 	jal	0x3460
    c454:	00000000 	nop
    c458:	93a20044 	lbu	v0,68(sp)
    c45c:	00000000 	nop
    c460:	14400015 	bnez	v0,0xc4b8
    c464:	02802021 	move	a0,s4
    c468:	02202021 	move	a0,s1
    c46c:	0c0030d4 	jal	0xc350
    c470:	02002821 	move	a1,s0
    c474:	02402021 	move	a0,s2
    c478:	1040fff4 	beqz	v0,0xc44c
    c47c:	02002821 	move	a1,s0
    c480:	0c002f93 	jal	0xbe4c
    c484:	02202021 	move	a0,s1
    c488:	8fbf00f4 	lw	ra,244(sp)
    c48c:	00001021 	move	v0,zero
    c490:	8fb700f0 	lw	s7,240(sp)
    c494:	8fb600ec 	lw	s6,236(sp)
    c498:	8fb500e8 	lw	s5,232(sp)
    c49c:	8fb400e4 	lw	s4,228(sp)
    c4a0:	8fb300e0 	lw	s3,224(sp)
    c4a4:	8fb200dc 	lw	s2,220(sp)
    c4a8:	8fb100d8 	lw	s1,216(sp)
    c4ac:	8fb000d4 	lw	s0,212(sp)
    c4b0:	03e00008 	jr	ra
    c4b4:	27bd00f8 	addiu	sp,sp,248
    c4b8:	0c0008a8 	jal	0x22a0
    c4bc:	02c02821 	move	a1,s6
    c4c0:	02602021 	move	a0,s3
    c4c4:	02a02821 	move	a1,s5
    c4c8:	02803021 	move	a2,s4
    c4cc:	10400007 	beqz	v0,0xc4ec
    c4d0:	02003821 	move	a3,s0
    c4d4:	0c0009c7 	jal	0x271c
    c4d8:	00000000 	nop
    c4dc:	0c0030f9 	jal	0xc3e4
    c4e0:	02602021 	move	a0,s3
    c4e4:	0800311b 	j	0xc46c
    c4e8:	02202021 	move	a0,s1
    c4ec:	02e02821 	move	a1,s7
    c4f0:	0c0009c7 	jal	0x271c
    c4f4:	02003021 	move	a2,s0
    c4f8:	08003137 	j	0xc4dc
    c4fc:	00000000 	nop
    c500:	27bdffc0 	addiu	sp,sp,-64
    c504:	24051388 	li	a1,5000
    c508:	00002021 	move	a0,zero
    c50c:	afbf003c 	sw	ra,60(sp)
    c510:	afb00018 	sw	s0,24(sp)
    c514:	afbe0038 	sw	s8,56(sp)
    c518:	afb70034 	sw	s7,52(sp)
    c51c:	afb60030 	sw	s6,48(sp)
    c520:	afb5002c 	sw	s5,44(sp)
    c524:	afb40028 	sw	s4,40(sp)
    c528:	afb30024 	sw	s3,36(sp)
    c52c:	afb20020 	sw	s2,32(sp)
    c530:	0c0002ba 	jal	0xae8
    c534:	afb1001c 	sw	s1,28(sp)
    c538:	00402021 	move	a0,v0
    c53c:	00002821 	move	a1,zero
    c540:	24061388 	li	a2,5000
    c544:	0c00092b 	jal	0x24ac
    c548:	00408021 	move	s0,v0
    c54c:	00001021 	move	v0,zero
    c550:	2403001a 	li	v1,26
    c554:	24050fa0 	li	a1,4000
    c558:	14600002 	bnez	v1,0xc564
    c55c:	0043001a 	div	zero,v0,v1
    c560:	0007000d 	break	0x7
    c564:	02023021 	addu	a2,s0,v0
    c568:	24420001 	addiu	v0,v0,1
    c56c:	00002010 	mfhi	a0
    c570:	24840041 	addiu	a0,a0,65
    c574:	1445fff8 	bne	v0,a1,0xc558
    c578:	a0c40000 	sb	a0,0(a2)
    c57c:	3c040001 	lui	a0,0x1
    c580:	0c0030bf 	jal	0xc2fc
    c584:	2484d56c 	addiu	a0,a0,-10900
    c588:	3c020001 	lui	v0,0x1
    c58c:	0c0030bf 	jal	0xc2fc
    c590:	2444d564 	addiu	a0,v0,-10908
    c594:	3c140001 	lui	s4,0x1
    c598:	3c020001 	lui	v0,0x1
    c59c:	2685d21c 	addiu	a1,s4,-11748
    c5a0:	0c003027 	jal	0xc09c
    c5a4:	2444d570 	addiu	a0,v0,-10896
    c5a8:	00403821 	move	a3,v0
    c5ac:	00408821 	move	s1,v0
    c5b0:	24050001 	li	a1,1
    c5b4:	24060fa0 	li	a2,4000
    c5b8:	0c002f01 	jal	0xbc04
    c5bc:	02002021 	move	a0,s0
    c5c0:	0c002f93 	jal	0xbe4c
    c5c4:	02202021 	move	a0,s1
    c5c8:	24061388 	li	a2,5000
    c5cc:	02002021 	move	a0,s0
    c5d0:	0c00092b 	jal	0x24ac
    c5d4:	00002821 	move	a1,zero
    c5d8:	3c020001 	lui	v0,0x1
    c5dc:	2445c8b0 	addiu	a1,v0,-14160
    c5e0:	3c020001 	lui	v0,0x1
    c5e4:	0c003027 	jal	0xc09c
    c5e8:	2444d570 	addiu	a0,v0,-10896
    c5ec:	00403821 	move	a3,v0
    c5f0:	24061388 	li	a2,5000
    c5f4:	24050001 	li	a1,1
    c5f8:	00408821 	move	s1,v0
    c5fc:	0c002e04 	jal	0xb810
    c600:	02002021 	move	a0,s0
    c604:	0c002f93 	jal	0xbe4c
    c608:	02202021 	move	a0,s1
    c60c:	3c040001 	lui	a0,0x1
    c610:	2484ccb8 	addiu	a0,a0,-13128
    c614:	0c000d18 	jal	0x3460
    c618:	02002821 	move	a1,s0
    c61c:	3c020001 	lui	v0,0x1
    c620:	0c0030f9 	jal	0xc3e4
    c624:	2444cf00 	addiu	a0,v0,-12544
    c628:	3c020001 	lui	v0,0x1
    c62c:	245ed588 	addiu	s8,v0,-10872
    c630:	3c160001 	lui	s6,0x1
    c634:	3c020001 	lui	v0,0x1
    c638:	00009021 	move	s2,zero
    c63c:	2457d590 	addiu	s7,v0,-10864
    c640:	2694d21c 	addiu	s4,s4,-11748
    c644:	26d6d5a0 	addiu	s6,s6,-10848
    c648:	24150005 	li	s5,5
    c64c:	03c02821 	move	a1,s8
    c650:	02403021 	move	a2,s2
    c654:	0c0009c7 	jal	0x271c
    c658:	02002021 	move	a0,s0
    c65c:	0c0030bf 	jal	0xc2fc
    c660:	02002021 	move	a0,s0
    c664:	00008821 	move	s1,zero
    c668:	02403021 	move	a2,s2
    c66c:	02403821 	move	a3,s2
    c670:	02002021 	move	a0,s0
    c674:	02e02821 	move	a1,s7
    c678:	0c0009c7 	jal	0x271c
    c67c:	afb10010 	sw	s1,16(sp)
    c680:	02002021 	move	a0,s0
    c684:	0c003027 	jal	0xc09c
    c688:	02802821 	move	a1,s4
    c68c:	00409821 	move	s3,v0
    c690:	02203821 	move	a3,s1
    c694:	02002021 	move	a0,s0
    c698:	02c02821 	move	a1,s6
    c69c:	0c0009c7 	jal	0x271c
    c6a0:	02403021 	move	a2,s2
    c6a4:	02002021 	move	a0,s0
    c6a8:	24050001 	li	a1,1
    c6ac:	24060008 	li	a2,8
    c6b0:	0c002f01 	jal	0xbc04
    c6b4:	02603821 	move	a3,s3
    c6b8:	26310001 	addiu	s1,s1,1
    c6bc:	0c002f93 	jal	0xbe4c
    c6c0:	02602021 	move	a0,s3
    c6c4:	1635ffe9 	bne	s1,s5,0xc66c
    c6c8:	02403021 	move	a2,s2
    c6cc:	26520001 	addiu	s2,s2,1
    c6d0:	1651ffdf 	bne	s2,s1,0xc650
    c6d4:	03c02821 	move	a1,s8
    c6d8:	3c040001 	lui	a0,0x1
    c6dc:	0c002fd5 	jal	0xbf54
    c6e0:	2484d5ac 	addiu	a0,a0,-10836
    c6e4:	3c020001 	lui	v0,0x1
    c6e8:	0c0030f9 	jal	0xc3e4
    c6ec:	2444cf00 	addiu	a0,v0,-12544
    c6f0:	3c040001 	lui	a0,0x1
    c6f4:	2484d5bc 	addiu	a0,a0,-10820
    c6f8:	0c003027 	jal	0xc09c
    c6fc:	02802821 	move	a1,s4
    c700:	10400003 	beqz	v0,0xc710
    c704:	3c040001 	lui	a0,0x1
    c708:	0c000d18 	jal	0x3460
    c70c:	2484d5d0 	addiu	a0,a0,-10800
    c710:	3c020001 	lui	v0,0x1
    c714:	2456d590 	addiu	s6,v0,-10864
    c718:	3c170001 	lui	s7,0x1
    c71c:	3c020001 	lui	v0,0x1
    c720:	00009821 	move	s3,zero
    c724:	2455c8b0 	addiu	s5,v0,-14160
    c728:	26f7d5d8 	addiu	s7,s7,-10792
    c72c:	24140005 	li	s4,5
    c730:	00008821 	move	s1,zero
    c734:	02603021 	move	a2,s3
    c738:	02603821 	move	a3,s3
    c73c:	02002021 	move	a0,s0
    c740:	02c02821 	move	a1,s6
    c744:	0c0009c7 	jal	0x271c
    c748:	afb10010 	sw	s1,16(sp)
    c74c:	02002021 	move	a0,s0
    c750:	0c003027 	jal	0xc09c
    c754:	02a02821 	move	a1,s5
    c758:	00409021 	move	s2,v0
    c75c:	02002021 	move	a0,s0
    c760:	24050001 	li	a1,1
    c764:	240601f4 	li	a2,500
    c768:	1040000b 	beqz	v0,0xc798
    c76c:	00403821 	move	a3,v0
    c770:	0c002e04 	jal	0xb810
    c774:	00000000 	nop
    c778:	00403821 	move	a3,v0
    c77c:	02e02021 	move	a0,s7
    c780:	02203021 	move	a2,s1
    c784:	02602821 	move	a1,s3
    c788:	0c000d18 	jal	0x3460
    c78c:	afb00010 	sw	s0,16(sp)
    c790:	0c002f93 	jal	0xbe4c
    c794:	02402021 	move	a0,s2
    c798:	26310001 	addiu	s1,s1,1
    c79c:	1634ffe6 	bne	s1,s4,0xc738
    c7a0:	02603021 	move	a2,s3
    c7a4:	26730001 	addiu	s3,s3,1
    c7a8:	1671ffe2 	bne	s3,s1,0xc734
    c7ac:	00008821 	move	s1,zero
    c7b0:	3c020001 	lui	v0,0x1
    c7b4:	0c002fd5 	jal	0xbf54
    c7b8:	2444d570 	addiu	a0,v0,-10896
    c7bc:	3c020001 	lui	v0,0x1
    c7c0:	0c002fd5 	jal	0xbf54
    c7c4:	2444d564 	addiu	a0,v0,-10908
    c7c8:	3c040001 	lui	a0,0x1
    c7cc:	0c002fd5 	jal	0xbf54
    c7d0:	2484d5f4 	addiu	a0,a0,-10764
    c7d4:	3c020001 	lui	v0,0x1
    c7d8:	2454d590 	addiu	s4,v0,-10864
    c7dc:	3c020001 	lui	v0,0x1
    c7e0:	00009021 	move	s2,zero
    c7e4:	24130005 	li	s3,5
    c7e8:	2455d588 	addiu	s5,v0,-10872
    c7ec:	00008821 	move	s1,zero
    c7f0:	02002021 	move	a0,s0
    c7f4:	02802821 	move	a1,s4
    c7f8:	02403021 	move	a2,s2
    c7fc:	02403821 	move	a3,s2
    c800:	0c0009c7 	jal	0x271c
    c804:	afb10010 	sw	s1,16(sp)
    c808:	26310001 	addiu	s1,s1,1
    c80c:	0c002fd5 	jal	0xbf54
    c810:	02002021 	move	a0,s0
    c814:	1633fff6 	bne	s1,s3,0xc7f0
    c818:	02403021 	move	a2,s2
    c81c:	02002021 	move	a0,s0
    c820:	0c0009c7 	jal	0x271c
    c824:	02a02821 	move	a1,s5
    c828:	26520001 	addiu	s2,s2,1
    c82c:	0c002fd5 	jal	0xbf54
    c830:	02002021 	move	a0,s0
    c834:	1651ffee 	bne	s2,s1,0xc7f0
    c838:	00008821 	move	s1,zero
    c83c:	3c020001 	lui	v0,0x1
    c840:	0c0030f9 	jal	0xc3e4
    c844:	2444cf00 	addiu	a0,v0,-12544
    c848:	0c00036a 	jal	0xda8
    c84c:	02002021 	move	a0,s0
    c850:	8fbf003c 	lw	ra,60(sp)
    c854:	00001021 	move	v0,zero
    c858:	8fbe0038 	lw	s8,56(sp)
    c85c:	8fb70034 	lw	s7,52(sp)
    c860:	8fb60030 	lw	s6,48(sp)
    c864:	8fb5002c 	lw	s5,44(sp)
    c868:	8fb40028 	lw	s4,40(sp)
    c86c:	8fb30024 	lw	s3,36(sp)
    c870:	8fb20020 	lw	s2,32(sp)
    c874:	8fb1001c 	lw	s1,28(sp)
    c878:	8fb00018 	lw	s0,24(sp)
    c87c:	03e00008 	jr	ra
    c880:	27bd0040 	addiu	sp,sp,64
